
Self_Balancing_Robot.elf:     file format elf32-littlearm

Sections:
Idx Name          Size      VMA       LMA       File off  Algn
  0 .isr_vector   0000010c  08000000  08000000  00010000  2**0
                  CONTENTS, ALLOC, LOAD, READONLY, DATA
  1 .text         00008770  08000110  08000110  00010110  2**3
                  CONTENTS, ALLOC, LOAD, READONLY, CODE
  2 .rodata       00000338  08008880  08008880  00018880  2**3
                  CONTENTS, ALLOC, LOAD, READONLY, DATA
  3 .ARM.extab    00000000  08008bb8  08008bb8  00020120  2**0
                  CONTENTS
  4 .ARM          00000000  08008bb8  08008bb8  00020120  2**0
                  CONTENTS
  5 .preinit_array 00000000  08008bb8  08008bb8  00020120  2**0
                  CONTENTS, ALLOC, LOAD, DATA
  6 .init_array   00000004  08008bb8  08008bb8  00018bb8  2**2
                  CONTENTS, ALLOC, LOAD, DATA
  7 .fini_array   00000004  08008bbc  08008bbc  00018bbc  2**2
                  CONTENTS, ALLOC, LOAD, DATA
  8 .data         00000120  20000000  08008bc0  00020000  2**3
                  CONTENTS, ALLOC, LOAD, DATA
  9 .bss          00000470  20000120  08008ce0  00020120  2**3
                  ALLOC
 10 ._user_heap_stack 00000600  20000590  08008ce0  00020590  2**0
                  ALLOC
 11 .ARM.attributes 00000029  00000000  00000000  00020120  2**0
                  CONTENTS, READONLY
 12 .debug_info   00013fb3  00000000  00000000  00020149  2**0
                  CONTENTS, READONLY, DEBUGGING
 13 .debug_abbrev 0000276c  00000000  00000000  000340fc  2**0
                  CONTENTS, READONLY, DEBUGGING
 14 .debug_aranges 00001360  00000000  00000000  00036868  2**3
                  CONTENTS, READONLY, DEBUGGING
 15 .debug_ranges 00001298  00000000  00000000  00037bc8  2**3
                  CONTENTS, READONLY, DEBUGGING
 16 .debug_macro  00018da3  00000000  00000000  00038e60  2**0
                  CONTENTS, READONLY, DEBUGGING
 17 .debug_line   0000e0be  00000000  00000000  00051c03  2**0
                  CONTENTS, READONLY, DEBUGGING
 18 .debug_str    0008e308  00000000  00000000  0005fcc1  2**0
                  CONTENTS, READONLY, DEBUGGING
 19 .comment      0000007b  00000000  00000000  000edfc9  2**0
                  CONTENTS, READONLY
 20 .debug_frame  000057c8  00000000  00000000  000ee044  2**2
                  CONTENTS, READONLY, DEBUGGING

Disassembly of section .text:

08000110 <__do_global_dtors_aux>:
 8000110:	b510      	push	{r4, lr}
 8000112:	4c05      	ldr	r4, [pc, #20]	; (8000128 <__do_global_dtors_aux+0x18>)
 8000114:	7823      	ldrb	r3, [r4, #0]
 8000116:	b933      	cbnz	r3, 8000126 <__do_global_dtors_aux+0x16>
 8000118:	4b04      	ldr	r3, [pc, #16]	; (800012c <__do_global_dtors_aux+0x1c>)
 800011a:	b113      	cbz	r3, 8000122 <__do_global_dtors_aux+0x12>
 800011c:	4804      	ldr	r0, [pc, #16]	; (8000130 <__do_global_dtors_aux+0x20>)
 800011e:	f3af 8000 	nop.w
 8000122:	2301      	movs	r3, #1
 8000124:	7023      	strb	r3, [r4, #0]
 8000126:	bd10      	pop	{r4, pc}
 8000128:	20000120 	.word	0x20000120
 800012c:	00000000 	.word	0x00000000
 8000130:	08008868 	.word	0x08008868

08000134 <frame_dummy>:
 8000134:	b508      	push	{r3, lr}
 8000136:	4b03      	ldr	r3, [pc, #12]	; (8000144 <frame_dummy+0x10>)
 8000138:	b11b      	cbz	r3, 8000142 <frame_dummy+0xe>
 800013a:	4903      	ldr	r1, [pc, #12]	; (8000148 <frame_dummy+0x14>)
 800013c:	4803      	ldr	r0, [pc, #12]	; (800014c <frame_dummy+0x18>)
 800013e:	f3af 8000 	nop.w
 8000142:	bd08      	pop	{r3, pc}
 8000144:	00000000 	.word	0x00000000
 8000148:	20000124 	.word	0x20000124
 800014c:	08008868 	.word	0x08008868

08000150 <__aeabi_drsub>:
 8000150:	f081 4100 	eor.w	r1, r1, #2147483648	; 0x80000000
 8000154:	e002      	b.n	800015c <__adddf3>
 8000156:	bf00      	nop

08000158 <__aeabi_dsub>:
 8000158:	f083 4300 	eor.w	r3, r3, #2147483648	; 0x80000000

0800015c <__adddf3>:
 800015c:	b530      	push	{r4, r5, lr}
 800015e:	ea4f 0441 	mov.w	r4, r1, lsl #1
 8000162:	ea4f 0543 	mov.w	r5, r3, lsl #1
 8000166:	ea94 0f05 	teq	r4, r5
 800016a:	bf08      	it	eq
 800016c:	ea90 0f02 	teqeq	r0, r2
 8000170:	bf1f      	itttt	ne
 8000172:	ea54 0c00 	orrsne.w	ip, r4, r0
 8000176:	ea55 0c02 	orrsne.w	ip, r5, r2
 800017a:	ea7f 5c64 	mvnsne.w	ip, r4, asr #21
 800017e:	ea7f 5c65 	mvnsne.w	ip, r5, asr #21
 8000182:	f000 80e2 	beq.w	800034a <__adddf3+0x1ee>
 8000186:	ea4f 5454 	mov.w	r4, r4, lsr #21
 800018a:	ebd4 5555 	rsbs	r5, r4, r5, lsr #21
 800018e:	bfb8      	it	lt
 8000190:	426d      	neglt	r5, r5
 8000192:	dd0c      	ble.n	80001ae <__adddf3+0x52>
 8000194:	442c      	add	r4, r5
 8000196:	ea80 0202 	eor.w	r2, r0, r2
 800019a:	ea81 0303 	eor.w	r3, r1, r3
 800019e:	ea82 0000 	eor.w	r0, r2, r0
 80001a2:	ea83 0101 	eor.w	r1, r3, r1
 80001a6:	ea80 0202 	eor.w	r2, r0, r2
 80001aa:	ea81 0303 	eor.w	r3, r1, r3
 80001ae:	2d36      	cmp	r5, #54	; 0x36
 80001b0:	bf88      	it	hi
 80001b2:	bd30      	pophi	{r4, r5, pc}
 80001b4:	f011 4f00 	tst.w	r1, #2147483648	; 0x80000000
 80001b8:	ea4f 3101 	mov.w	r1, r1, lsl #12
 80001bc:	f44f 1c80 	mov.w	ip, #1048576	; 0x100000
 80001c0:	ea4c 3111 	orr.w	r1, ip, r1, lsr #12
 80001c4:	d002      	beq.n	80001cc <__adddf3+0x70>
 80001c6:	4240      	negs	r0, r0
 80001c8:	eb61 0141 	sbc.w	r1, r1, r1, lsl #1
 80001cc:	f013 4f00 	tst.w	r3, #2147483648	; 0x80000000
 80001d0:	ea4f 3303 	mov.w	r3, r3, lsl #12
 80001d4:	ea4c 3313 	orr.w	r3, ip, r3, lsr #12
 80001d8:	d002      	beq.n	80001e0 <__adddf3+0x84>
 80001da:	4252      	negs	r2, r2
 80001dc:	eb63 0343 	sbc.w	r3, r3, r3, lsl #1
 80001e0:	ea94 0f05 	teq	r4, r5
 80001e4:	f000 80a7 	beq.w	8000336 <__adddf3+0x1da>
 80001e8:	f1a4 0401 	sub.w	r4, r4, #1
 80001ec:	f1d5 0e20 	rsbs	lr, r5, #32
 80001f0:	db0d      	blt.n	800020e <__adddf3+0xb2>
 80001f2:	fa02 fc0e 	lsl.w	ip, r2, lr
 80001f6:	fa22 f205 	lsr.w	r2, r2, r5
 80001fa:	1880      	adds	r0, r0, r2
 80001fc:	f141 0100 	adc.w	r1, r1, #0
 8000200:	fa03 f20e 	lsl.w	r2, r3, lr
 8000204:	1880      	adds	r0, r0, r2
 8000206:	fa43 f305 	asr.w	r3, r3, r5
 800020a:	4159      	adcs	r1, r3
 800020c:	e00e      	b.n	800022c <__adddf3+0xd0>
 800020e:	f1a5 0520 	sub.w	r5, r5, #32
 8000212:	f10e 0e20 	add.w	lr, lr, #32
 8000216:	2a01      	cmp	r2, #1
 8000218:	fa03 fc0e 	lsl.w	ip, r3, lr
 800021c:	bf28      	it	cs
 800021e:	f04c 0c02 	orrcs.w	ip, ip, #2
 8000222:	fa43 f305 	asr.w	r3, r3, r5
 8000226:	18c0      	adds	r0, r0, r3
 8000228:	eb51 71e3 	adcs.w	r1, r1, r3, asr #31
 800022c:	f001 4500 	and.w	r5, r1, #2147483648	; 0x80000000
 8000230:	d507      	bpl.n	8000242 <__adddf3+0xe6>
 8000232:	f04f 0e00 	mov.w	lr, #0
 8000236:	f1dc 0c00 	rsbs	ip, ip, #0
 800023a:	eb7e 0000 	sbcs.w	r0, lr, r0
 800023e:	eb6e 0101 	sbc.w	r1, lr, r1
 8000242:	f5b1 1f80 	cmp.w	r1, #1048576	; 0x100000
 8000246:	d31b      	bcc.n	8000280 <__adddf3+0x124>
 8000248:	f5b1 1f00 	cmp.w	r1, #2097152	; 0x200000
 800024c:	d30c      	bcc.n	8000268 <__adddf3+0x10c>
 800024e:	0849      	lsrs	r1, r1, #1
 8000250:	ea5f 0030 	movs.w	r0, r0, rrx
 8000254:	ea4f 0c3c 	mov.w	ip, ip, rrx
 8000258:	f104 0401 	add.w	r4, r4, #1
 800025c:	ea4f 5244 	mov.w	r2, r4, lsl #21
 8000260:	f512 0f80 	cmn.w	r2, #4194304	; 0x400000
 8000264:	f080 809a 	bcs.w	800039c <__adddf3+0x240>
 8000268:	f1bc 4f00 	cmp.w	ip, #2147483648	; 0x80000000
 800026c:	bf08      	it	eq
 800026e:	ea5f 0c50 	movseq.w	ip, r0, lsr #1
 8000272:	f150 0000 	adcs.w	r0, r0, #0
 8000276:	eb41 5104 	adc.w	r1, r1, r4, lsl #20
 800027a:	ea41 0105 	orr.w	r1, r1, r5
 800027e:	bd30      	pop	{r4, r5, pc}
 8000280:	ea5f 0c4c 	movs.w	ip, ip, lsl #1
 8000284:	4140      	adcs	r0, r0
 8000286:	eb41 0101 	adc.w	r1, r1, r1
 800028a:	f411 1f80 	tst.w	r1, #1048576	; 0x100000
 800028e:	f1a4 0401 	sub.w	r4, r4, #1
 8000292:	d1e9      	bne.n	8000268 <__adddf3+0x10c>
 8000294:	f091 0f00 	teq	r1, #0
 8000298:	bf04      	itt	eq
 800029a:	4601      	moveq	r1, r0
 800029c:	2000      	moveq	r0, #0
 800029e:	fab1 f381 	clz	r3, r1
 80002a2:	bf08      	it	eq
 80002a4:	3320      	addeq	r3, #32
 80002a6:	f1a3 030b 	sub.w	r3, r3, #11
 80002aa:	f1b3 0220 	subs.w	r2, r3, #32
 80002ae:	da0c      	bge.n	80002ca <__adddf3+0x16e>
 80002b0:	320c      	adds	r2, #12
 80002b2:	dd08      	ble.n	80002c6 <__adddf3+0x16a>
 80002b4:	f102 0c14 	add.w	ip, r2, #20
 80002b8:	f1c2 020c 	rsb	r2, r2, #12
 80002bc:	fa01 f00c 	lsl.w	r0, r1, ip
 80002c0:	fa21 f102 	lsr.w	r1, r1, r2
 80002c4:	e00c      	b.n	80002e0 <__adddf3+0x184>
 80002c6:	f102 0214 	add.w	r2, r2, #20
 80002ca:	bfd8      	it	le
 80002cc:	f1c2 0c20 	rsble	ip, r2, #32
 80002d0:	fa01 f102 	lsl.w	r1, r1, r2
 80002d4:	fa20 fc0c 	lsr.w	ip, r0, ip
 80002d8:	bfdc      	itt	le
 80002da:	ea41 010c 	orrle.w	r1, r1, ip
 80002de:	4090      	lslle	r0, r2
 80002e0:	1ae4      	subs	r4, r4, r3
 80002e2:	bfa2      	ittt	ge
 80002e4:	eb01 5104 	addge.w	r1, r1, r4, lsl #20
 80002e8:	4329      	orrge	r1, r5
 80002ea:	bd30      	popge	{r4, r5, pc}
 80002ec:	ea6f 0404 	mvn.w	r4, r4
 80002f0:	3c1f      	subs	r4, #31
 80002f2:	da1c      	bge.n	800032e <__adddf3+0x1d2>
 80002f4:	340c      	adds	r4, #12
 80002f6:	dc0e      	bgt.n	8000316 <__adddf3+0x1ba>
 80002f8:	f104 0414 	add.w	r4, r4, #20
 80002fc:	f1c4 0220 	rsb	r2, r4, #32
 8000300:	fa20 f004 	lsr.w	r0, r0, r4
 8000304:	fa01 f302 	lsl.w	r3, r1, r2
 8000308:	ea40 0003 	orr.w	r0, r0, r3
 800030c:	fa21 f304 	lsr.w	r3, r1, r4
 8000310:	ea45 0103 	orr.w	r1, r5, r3
 8000314:	bd30      	pop	{r4, r5, pc}
 8000316:	f1c4 040c 	rsb	r4, r4, #12
 800031a:	f1c4 0220 	rsb	r2, r4, #32
 800031e:	fa20 f002 	lsr.w	r0, r0, r2
 8000322:	fa01 f304 	lsl.w	r3, r1, r4
 8000326:	ea40 0003 	orr.w	r0, r0, r3
 800032a:	4629      	mov	r1, r5
 800032c:	bd30      	pop	{r4, r5, pc}
 800032e:	fa21 f004 	lsr.w	r0, r1, r4
 8000332:	4629      	mov	r1, r5
 8000334:	bd30      	pop	{r4, r5, pc}
 8000336:	f094 0f00 	teq	r4, #0
 800033a:	f483 1380 	eor.w	r3, r3, #1048576	; 0x100000
 800033e:	bf06      	itte	eq
 8000340:	f481 1180 	eoreq.w	r1, r1, #1048576	; 0x100000
 8000344:	3401      	addeq	r4, #1
 8000346:	3d01      	subne	r5, #1
 8000348:	e74e      	b.n	80001e8 <__adddf3+0x8c>
 800034a:	ea7f 5c64 	mvns.w	ip, r4, asr #21
 800034e:	bf18      	it	ne
 8000350:	ea7f 5c65 	mvnsne.w	ip, r5, asr #21
 8000354:	d029      	beq.n	80003aa <__adddf3+0x24e>
 8000356:	ea94 0f05 	teq	r4, r5
 800035a:	bf08      	it	eq
 800035c:	ea90 0f02 	teqeq	r0, r2
 8000360:	d005      	beq.n	800036e <__adddf3+0x212>
 8000362:	ea54 0c00 	orrs.w	ip, r4, r0
 8000366:	bf04      	itt	eq
 8000368:	4619      	moveq	r1, r3
 800036a:	4610      	moveq	r0, r2
 800036c:	bd30      	pop	{r4, r5, pc}
 800036e:	ea91 0f03 	teq	r1, r3
 8000372:	bf1e      	ittt	ne
 8000374:	2100      	movne	r1, #0
 8000376:	2000      	movne	r0, #0
 8000378:	bd30      	popne	{r4, r5, pc}
 800037a:	ea5f 5c54 	movs.w	ip, r4, lsr #21
 800037e:	d105      	bne.n	800038c <__adddf3+0x230>
 8000380:	0040      	lsls	r0, r0, #1
 8000382:	4149      	adcs	r1, r1
 8000384:	bf28      	it	cs
 8000386:	f041 4100 	orrcs.w	r1, r1, #2147483648	; 0x80000000
 800038a:	bd30      	pop	{r4, r5, pc}
 800038c:	f514 0480 	adds.w	r4, r4, #4194304	; 0x400000
 8000390:	bf3c      	itt	cc
 8000392:	f501 1180 	addcc.w	r1, r1, #1048576	; 0x100000
 8000396:	bd30      	popcc	{r4, r5, pc}
 8000398:	f001 4500 	and.w	r5, r1, #2147483648	; 0x80000000
 800039c:	f045 41fe 	orr.w	r1, r5, #2130706432	; 0x7f000000
 80003a0:	f441 0170 	orr.w	r1, r1, #15728640	; 0xf00000
 80003a4:	f04f 0000 	mov.w	r0, #0
 80003a8:	bd30      	pop	{r4, r5, pc}
 80003aa:	ea7f 5c64 	mvns.w	ip, r4, asr #21
 80003ae:	bf1a      	itte	ne
 80003b0:	4619      	movne	r1, r3
 80003b2:	4610      	movne	r0, r2
 80003b4:	ea7f 5c65 	mvnseq.w	ip, r5, asr #21
 80003b8:	bf1c      	itt	ne
 80003ba:	460b      	movne	r3, r1
 80003bc:	4602      	movne	r2, r0
 80003be:	ea50 3401 	orrs.w	r4, r0, r1, lsl #12
 80003c2:	bf06      	itte	eq
 80003c4:	ea52 3503 	orrseq.w	r5, r2, r3, lsl #12
 80003c8:	ea91 0f03 	teqeq	r1, r3
 80003cc:	f441 2100 	orrne.w	r1, r1, #524288	; 0x80000
 80003d0:	bd30      	pop	{r4, r5, pc}
 80003d2:	bf00      	nop

080003d4 <__aeabi_ui2d>:
 80003d4:	f090 0f00 	teq	r0, #0
 80003d8:	bf04      	itt	eq
 80003da:	2100      	moveq	r1, #0
 80003dc:	4770      	bxeq	lr
 80003de:	b530      	push	{r4, r5, lr}
 80003e0:	f44f 6480 	mov.w	r4, #1024	; 0x400
 80003e4:	f104 0432 	add.w	r4, r4, #50	; 0x32
 80003e8:	f04f 0500 	mov.w	r5, #0
 80003ec:	f04f 0100 	mov.w	r1, #0
 80003f0:	e750      	b.n	8000294 <__adddf3+0x138>
 80003f2:	bf00      	nop

080003f4 <__aeabi_i2d>:
 80003f4:	f090 0f00 	teq	r0, #0
 80003f8:	bf04      	itt	eq
 80003fa:	2100      	moveq	r1, #0
 80003fc:	4770      	bxeq	lr
 80003fe:	b530      	push	{r4, r5, lr}
 8000400:	f44f 6480 	mov.w	r4, #1024	; 0x400
 8000404:	f104 0432 	add.w	r4, r4, #50	; 0x32
 8000408:	f010 4500 	ands.w	r5, r0, #2147483648	; 0x80000000
 800040c:	bf48      	it	mi
 800040e:	4240      	negmi	r0, r0
 8000410:	f04f 0100 	mov.w	r1, #0
 8000414:	e73e      	b.n	8000294 <__adddf3+0x138>
 8000416:	bf00      	nop

08000418 <__aeabi_f2d>:
 8000418:	0042      	lsls	r2, r0, #1
 800041a:	ea4f 01e2 	mov.w	r1, r2, asr #3
 800041e:	ea4f 0131 	mov.w	r1, r1, rrx
 8000422:	ea4f 7002 	mov.w	r0, r2, lsl #28
 8000426:	bf1f      	itttt	ne
 8000428:	f012 437f 	andsne.w	r3, r2, #4278190080	; 0xff000000
 800042c:	f093 4f7f 	teqne	r3, #4278190080	; 0xff000000
 8000430:	f081 5160 	eorne.w	r1, r1, #939524096	; 0x38000000
 8000434:	4770      	bxne	lr
 8000436:	f032 427f 	bics.w	r2, r2, #4278190080	; 0xff000000
 800043a:	bf08      	it	eq
 800043c:	4770      	bxeq	lr
 800043e:	f093 4f7f 	teq	r3, #4278190080	; 0xff000000
 8000442:	bf04      	itt	eq
 8000444:	f441 2100 	orreq.w	r1, r1, #524288	; 0x80000
 8000448:	4770      	bxeq	lr
 800044a:	b530      	push	{r4, r5, lr}
 800044c:	f44f 7460 	mov.w	r4, #896	; 0x380
 8000450:	f001 4500 	and.w	r5, r1, #2147483648	; 0x80000000
 8000454:	f021 4100 	bic.w	r1, r1, #2147483648	; 0x80000000
 8000458:	e71c      	b.n	8000294 <__adddf3+0x138>
 800045a:	bf00      	nop

0800045c <__aeabi_ul2d>:
 800045c:	ea50 0201 	orrs.w	r2, r0, r1
 8000460:	bf08      	it	eq
 8000462:	4770      	bxeq	lr
 8000464:	b530      	push	{r4, r5, lr}
 8000466:	f04f 0500 	mov.w	r5, #0
 800046a:	e00a      	b.n	8000482 <__aeabi_l2d+0x16>

0800046c <__aeabi_l2d>:
 800046c:	ea50 0201 	orrs.w	r2, r0, r1
 8000470:	bf08      	it	eq
 8000472:	4770      	bxeq	lr
 8000474:	b530      	push	{r4, r5, lr}
 8000476:	f011 4500 	ands.w	r5, r1, #2147483648	; 0x80000000
 800047a:	d502      	bpl.n	8000482 <__aeabi_l2d+0x16>
 800047c:	4240      	negs	r0, r0
 800047e:	eb61 0141 	sbc.w	r1, r1, r1, lsl #1
 8000482:	f44f 6480 	mov.w	r4, #1024	; 0x400
 8000486:	f104 0432 	add.w	r4, r4, #50	; 0x32
 800048a:	ea5f 5c91 	movs.w	ip, r1, lsr #22
 800048e:	f43f aed8 	beq.w	8000242 <__adddf3+0xe6>
 8000492:	f04f 0203 	mov.w	r2, #3
 8000496:	ea5f 0cdc 	movs.w	ip, ip, lsr #3
 800049a:	bf18      	it	ne
 800049c:	3203      	addne	r2, #3
 800049e:	ea5f 0cdc 	movs.w	ip, ip, lsr #3
 80004a2:	bf18      	it	ne
 80004a4:	3203      	addne	r2, #3
 80004a6:	eb02 02dc 	add.w	r2, r2, ip, lsr #3
 80004aa:	f1c2 0320 	rsb	r3, r2, #32
 80004ae:	fa00 fc03 	lsl.w	ip, r0, r3
 80004b2:	fa20 f002 	lsr.w	r0, r0, r2
 80004b6:	fa01 fe03 	lsl.w	lr, r1, r3
 80004ba:	ea40 000e 	orr.w	r0, r0, lr
 80004be:	fa21 f102 	lsr.w	r1, r1, r2
 80004c2:	4414      	add	r4, r2
 80004c4:	e6bd      	b.n	8000242 <__adddf3+0xe6>
 80004c6:	bf00      	nop

080004c8 <__aeabi_dmul>:
 80004c8:	b570      	push	{r4, r5, r6, lr}
 80004ca:	f04f 0cff 	mov.w	ip, #255	; 0xff
 80004ce:	f44c 6ce0 	orr.w	ip, ip, #1792	; 0x700
 80004d2:	ea1c 5411 	ands.w	r4, ip, r1, lsr #20
 80004d6:	bf1d      	ittte	ne
 80004d8:	ea1c 5513 	andsne.w	r5, ip, r3, lsr #20
 80004dc:	ea94 0f0c 	teqne	r4, ip
 80004e0:	ea95 0f0c 	teqne	r5, ip
 80004e4:	f000 f8de 	bleq	80006a4 <__aeabi_dmul+0x1dc>
 80004e8:	442c      	add	r4, r5
 80004ea:	ea81 0603 	eor.w	r6, r1, r3
 80004ee:	ea21 514c 	bic.w	r1, r1, ip, lsl #21
 80004f2:	ea23 534c 	bic.w	r3, r3, ip, lsl #21
 80004f6:	ea50 3501 	orrs.w	r5, r0, r1, lsl #12
 80004fa:	bf18      	it	ne
 80004fc:	ea52 3503 	orrsne.w	r5, r2, r3, lsl #12
 8000500:	f441 1180 	orr.w	r1, r1, #1048576	; 0x100000
 8000504:	f443 1380 	orr.w	r3, r3, #1048576	; 0x100000
 8000508:	d038      	beq.n	800057c <__aeabi_dmul+0xb4>
 800050a:	fba0 ce02 	umull	ip, lr, r0, r2
 800050e:	f04f 0500 	mov.w	r5, #0
 8000512:	fbe1 e502 	umlal	lr, r5, r1, r2
 8000516:	f006 4200 	and.w	r2, r6, #2147483648	; 0x80000000
 800051a:	fbe0 e503 	umlal	lr, r5, r0, r3
 800051e:	f04f 0600 	mov.w	r6, #0
 8000522:	fbe1 5603 	umlal	r5, r6, r1, r3
 8000526:	f09c 0f00 	teq	ip, #0
 800052a:	bf18      	it	ne
 800052c:	f04e 0e01 	orrne.w	lr, lr, #1
 8000530:	f1a4 04ff 	sub.w	r4, r4, #255	; 0xff
 8000534:	f5b6 7f00 	cmp.w	r6, #512	; 0x200
 8000538:	f564 7440 	sbc.w	r4, r4, #768	; 0x300
 800053c:	d204      	bcs.n	8000548 <__aeabi_dmul+0x80>
 800053e:	ea5f 0e4e 	movs.w	lr, lr, lsl #1
 8000542:	416d      	adcs	r5, r5
 8000544:	eb46 0606 	adc.w	r6, r6, r6
 8000548:	ea42 21c6 	orr.w	r1, r2, r6, lsl #11
 800054c:	ea41 5155 	orr.w	r1, r1, r5, lsr #21
 8000550:	ea4f 20c5 	mov.w	r0, r5, lsl #11
 8000554:	ea40 505e 	orr.w	r0, r0, lr, lsr #21
 8000558:	ea4f 2ece 	mov.w	lr, lr, lsl #11
 800055c:	f1b4 0cfd 	subs.w	ip, r4, #253	; 0xfd
 8000560:	bf88      	it	hi
 8000562:	f5bc 6fe0 	cmphi.w	ip, #1792	; 0x700
 8000566:	d81e      	bhi.n	80005a6 <__aeabi_dmul+0xde>
 8000568:	f1be 4f00 	cmp.w	lr, #2147483648	; 0x80000000
 800056c:	bf08      	it	eq
 800056e:	ea5f 0e50 	movseq.w	lr, r0, lsr #1
 8000572:	f150 0000 	adcs.w	r0, r0, #0
 8000576:	eb41 5104 	adc.w	r1, r1, r4, lsl #20
 800057a:	bd70      	pop	{r4, r5, r6, pc}
 800057c:	f006 4600 	and.w	r6, r6, #2147483648	; 0x80000000
 8000580:	ea46 0101 	orr.w	r1, r6, r1
 8000584:	ea40 0002 	orr.w	r0, r0, r2
 8000588:	ea81 0103 	eor.w	r1, r1, r3
 800058c:	ebb4 045c 	subs.w	r4, r4, ip, lsr #1
 8000590:	bfc2      	ittt	gt
 8000592:	ebd4 050c 	rsbsgt	r5, r4, ip
 8000596:	ea41 5104 	orrgt.w	r1, r1, r4, lsl #20
 800059a:	bd70      	popgt	{r4, r5, r6, pc}
 800059c:	f441 1180 	orr.w	r1, r1, #1048576	; 0x100000
 80005a0:	f04f 0e00 	mov.w	lr, #0
 80005a4:	3c01      	subs	r4, #1
 80005a6:	f300 80ab 	bgt.w	8000700 <__aeabi_dmul+0x238>
 80005aa:	f114 0f36 	cmn.w	r4, #54	; 0x36
 80005ae:	bfde      	ittt	le
 80005b0:	2000      	movle	r0, #0
 80005b2:	f001 4100 	andle.w	r1, r1, #2147483648	; 0x80000000
 80005b6:	bd70      	pople	{r4, r5, r6, pc}
 80005b8:	f1c4 0400 	rsb	r4, r4, #0
 80005bc:	3c20      	subs	r4, #32
 80005be:	da35      	bge.n	800062c <__aeabi_dmul+0x164>
 80005c0:	340c      	adds	r4, #12
 80005c2:	dc1b      	bgt.n	80005fc <__aeabi_dmul+0x134>
 80005c4:	f104 0414 	add.w	r4, r4, #20
 80005c8:	f1c4 0520 	rsb	r5, r4, #32
 80005cc:	fa00 f305 	lsl.w	r3, r0, r5
 80005d0:	fa20 f004 	lsr.w	r0, r0, r4
 80005d4:	fa01 f205 	lsl.w	r2, r1, r5
 80005d8:	ea40 0002 	orr.w	r0, r0, r2
 80005dc:	f001 4200 	and.w	r2, r1, #2147483648	; 0x80000000
 80005e0:	f021 4100 	bic.w	r1, r1, #2147483648	; 0x80000000
 80005e4:	eb10 70d3 	adds.w	r0, r0, r3, lsr #31
 80005e8:	fa21 f604 	lsr.w	r6, r1, r4
 80005ec:	eb42 0106 	adc.w	r1, r2, r6
 80005f0:	ea5e 0e43 	orrs.w	lr, lr, r3, lsl #1
 80005f4:	bf08      	it	eq
 80005f6:	ea20 70d3 	biceq.w	r0, r0, r3, lsr #31
 80005fa:	bd70      	pop	{r4, r5, r6, pc}
 80005fc:	f1c4 040c 	rsb	r4, r4, #12
 8000600:	f1c4 0520 	rsb	r5, r4, #32
 8000604:	fa00 f304 	lsl.w	r3, r0, r4
 8000608:	fa20 f005 	lsr.w	r0, r0, r5
 800060c:	fa01 f204 	lsl.w	r2, r1, r4
 8000610:	ea40 0002 	orr.w	r0, r0, r2
 8000614:	f001 4100 	and.w	r1, r1, #2147483648	; 0x80000000
 8000618:	eb10 70d3 	adds.w	r0, r0, r3, lsr #31
 800061c:	f141 0100 	adc.w	r1, r1, #0
 8000620:	ea5e 0e43 	orrs.w	lr, lr, r3, lsl #1
 8000624:	bf08      	it	eq
 8000626:	ea20 70d3 	biceq.w	r0, r0, r3, lsr #31
 800062a:	bd70      	pop	{r4, r5, r6, pc}
 800062c:	f1c4 0520 	rsb	r5, r4, #32
 8000630:	fa00 f205 	lsl.w	r2, r0, r5
 8000634:	ea4e 0e02 	orr.w	lr, lr, r2
 8000638:	fa20 f304 	lsr.w	r3, r0, r4
 800063c:	fa01 f205 	lsl.w	r2, r1, r5
 8000640:	ea43 0302 	orr.w	r3, r3, r2
 8000644:	fa21 f004 	lsr.w	r0, r1, r4
 8000648:	f001 4100 	and.w	r1, r1, #2147483648	; 0x80000000
 800064c:	fa21 f204 	lsr.w	r2, r1, r4
 8000650:	ea20 0002 	bic.w	r0, r0, r2
 8000654:	eb00 70d3 	add.w	r0, r0, r3, lsr #31
 8000658:	ea5e 0e43 	orrs.w	lr, lr, r3, lsl #1
 800065c:	bf08      	it	eq
 800065e:	ea20 70d3 	biceq.w	r0, r0, r3, lsr #31
 8000662:	bd70      	pop	{r4, r5, r6, pc}
 8000664:	f094 0f00 	teq	r4, #0
 8000668:	d10f      	bne.n	800068a <__aeabi_dmul+0x1c2>
 800066a:	f001 4600 	and.w	r6, r1, #2147483648	; 0x80000000
 800066e:	0040      	lsls	r0, r0, #1
 8000670:	eb41 0101 	adc.w	r1, r1, r1
 8000674:	f411 1f80 	tst.w	r1, #1048576	; 0x100000
 8000678:	bf08      	it	eq
 800067a:	3c01      	subeq	r4, #1
 800067c:	d0f7      	beq.n	800066e <__aeabi_dmul+0x1a6>
 800067e:	ea41 0106 	orr.w	r1, r1, r6
 8000682:	f095 0f00 	teq	r5, #0
 8000686:	bf18      	it	ne
 8000688:	4770      	bxne	lr
 800068a:	f003 4600 	and.w	r6, r3, #2147483648	; 0x80000000
 800068e:	0052      	lsls	r2, r2, #1
 8000690:	eb43 0303 	adc.w	r3, r3, r3
 8000694:	f413 1f80 	tst.w	r3, #1048576	; 0x100000
 8000698:	bf08      	it	eq
 800069a:	3d01      	subeq	r5, #1
 800069c:	d0f7      	beq.n	800068e <__aeabi_dmul+0x1c6>
 800069e:	ea43 0306 	orr.w	r3, r3, r6
 80006a2:	4770      	bx	lr
 80006a4:	ea94 0f0c 	teq	r4, ip
 80006a8:	ea0c 5513 	and.w	r5, ip, r3, lsr #20
 80006ac:	bf18      	it	ne
 80006ae:	ea95 0f0c 	teqne	r5, ip
 80006b2:	d00c      	beq.n	80006ce <__aeabi_dmul+0x206>
 80006b4:	ea50 0641 	orrs.w	r6, r0, r1, lsl #1
 80006b8:	bf18      	it	ne
 80006ba:	ea52 0643 	orrsne.w	r6, r2, r3, lsl #1
 80006be:	d1d1      	bne.n	8000664 <__aeabi_dmul+0x19c>
 80006c0:	ea81 0103 	eor.w	r1, r1, r3
 80006c4:	f001 4100 	and.w	r1, r1, #2147483648	; 0x80000000
 80006c8:	f04f 0000 	mov.w	r0, #0
 80006cc:	bd70      	pop	{r4, r5, r6, pc}
 80006ce:	ea50 0641 	orrs.w	r6, r0, r1, lsl #1
 80006d2:	bf06      	itte	eq
 80006d4:	4610      	moveq	r0, r2
 80006d6:	4619      	moveq	r1, r3
 80006d8:	ea52 0643 	orrsne.w	r6, r2, r3, lsl #1
 80006dc:	d019      	beq.n	8000712 <__aeabi_dmul+0x24a>
 80006de:	ea94 0f0c 	teq	r4, ip
 80006e2:	d102      	bne.n	80006ea <__aeabi_dmul+0x222>
 80006e4:	ea50 3601 	orrs.w	r6, r0, r1, lsl #12
 80006e8:	d113      	bne.n	8000712 <__aeabi_dmul+0x24a>
 80006ea:	ea95 0f0c 	teq	r5, ip
 80006ee:	d105      	bne.n	80006fc <__aeabi_dmul+0x234>
 80006f0:	ea52 3603 	orrs.w	r6, r2, r3, lsl #12
 80006f4:	bf1c      	itt	ne
 80006f6:	4610      	movne	r0, r2
 80006f8:	4619      	movne	r1, r3
 80006fa:	d10a      	bne.n	8000712 <__aeabi_dmul+0x24a>
 80006fc:	ea81 0103 	eor.w	r1, r1, r3
 8000700:	f001 4100 	and.w	r1, r1, #2147483648	; 0x80000000
 8000704:	f041 41fe 	orr.w	r1, r1, #2130706432	; 0x7f000000
 8000708:	f441 0170 	orr.w	r1, r1, #15728640	; 0xf00000
 800070c:	f04f 0000 	mov.w	r0, #0
 8000710:	bd70      	pop	{r4, r5, r6, pc}
 8000712:	f041 41fe 	orr.w	r1, r1, #2130706432	; 0x7f000000
 8000716:	f441 0178 	orr.w	r1, r1, #16252928	; 0xf80000
 800071a:	bd70      	pop	{r4, r5, r6, pc}

0800071c <__aeabi_ddiv>:
 800071c:	b570      	push	{r4, r5, r6, lr}
 800071e:	f04f 0cff 	mov.w	ip, #255	; 0xff
 8000722:	f44c 6ce0 	orr.w	ip, ip, #1792	; 0x700
 8000726:	ea1c 5411 	ands.w	r4, ip, r1, lsr #20
 800072a:	bf1d      	ittte	ne
 800072c:	ea1c 5513 	andsne.w	r5, ip, r3, lsr #20
 8000730:	ea94 0f0c 	teqne	r4, ip
 8000734:	ea95 0f0c 	teqne	r5, ip
 8000738:	f000 f8a7 	bleq	800088a <__aeabi_ddiv+0x16e>
 800073c:	eba4 0405 	sub.w	r4, r4, r5
 8000740:	ea81 0e03 	eor.w	lr, r1, r3
 8000744:	ea52 3503 	orrs.w	r5, r2, r3, lsl #12
 8000748:	ea4f 3101 	mov.w	r1, r1, lsl #12
 800074c:	f000 8088 	beq.w	8000860 <__aeabi_ddiv+0x144>
 8000750:	ea4f 3303 	mov.w	r3, r3, lsl #12
 8000754:	f04f 5580 	mov.w	r5, #268435456	; 0x10000000
 8000758:	ea45 1313 	orr.w	r3, r5, r3, lsr #4
 800075c:	ea43 6312 	orr.w	r3, r3, r2, lsr #24
 8000760:	ea4f 2202 	mov.w	r2, r2, lsl #8
 8000764:	ea45 1511 	orr.w	r5, r5, r1, lsr #4
 8000768:	ea45 6510 	orr.w	r5, r5, r0, lsr #24
 800076c:	ea4f 2600 	mov.w	r6, r0, lsl #8
 8000770:	f00e 4100 	and.w	r1, lr, #2147483648	; 0x80000000
 8000774:	429d      	cmp	r5, r3
 8000776:	bf08      	it	eq
 8000778:	4296      	cmpeq	r6, r2
 800077a:	f144 04fd 	adc.w	r4, r4, #253	; 0xfd
 800077e:	f504 7440 	add.w	r4, r4, #768	; 0x300
 8000782:	d202      	bcs.n	800078a <__aeabi_ddiv+0x6e>
 8000784:	085b      	lsrs	r3, r3, #1
 8000786:	ea4f 0232 	mov.w	r2, r2, rrx
 800078a:	1ab6      	subs	r6, r6, r2
 800078c:	eb65 0503 	sbc.w	r5, r5, r3
 8000790:	085b      	lsrs	r3, r3, #1
 8000792:	ea4f 0232 	mov.w	r2, r2, rrx
 8000796:	f44f 1080 	mov.w	r0, #1048576	; 0x100000
 800079a:	f44f 2c00 	mov.w	ip, #524288	; 0x80000
 800079e:	ebb6 0e02 	subs.w	lr, r6, r2
 80007a2:	eb75 0e03 	sbcs.w	lr, r5, r3
 80007a6:	bf22      	ittt	cs
 80007a8:	1ab6      	subcs	r6, r6, r2
 80007aa:	4675      	movcs	r5, lr
 80007ac:	ea40 000c 	orrcs.w	r0, r0, ip
 80007b0:	085b      	lsrs	r3, r3, #1
 80007b2:	ea4f 0232 	mov.w	r2, r2, rrx
 80007b6:	ebb6 0e02 	subs.w	lr, r6, r2
 80007ba:	eb75 0e03 	sbcs.w	lr, r5, r3
 80007be:	bf22      	ittt	cs
 80007c0:	1ab6      	subcs	r6, r6, r2
 80007c2:	4675      	movcs	r5, lr
 80007c4:	ea40 005c 	orrcs.w	r0, r0, ip, lsr #1
 80007c8:	085b      	lsrs	r3, r3, #1
 80007ca:	ea4f 0232 	mov.w	r2, r2, rrx
 80007ce:	ebb6 0e02 	subs.w	lr, r6, r2
 80007d2:	eb75 0e03 	sbcs.w	lr, r5, r3
 80007d6:	bf22      	ittt	cs
 80007d8:	1ab6      	subcs	r6, r6, r2
 80007da:	4675      	movcs	r5, lr
 80007dc:	ea40 009c 	orrcs.w	r0, r0, ip, lsr #2
 80007e0:	085b      	lsrs	r3, r3, #1
 80007e2:	ea4f 0232 	mov.w	r2, r2, rrx
 80007e6:	ebb6 0e02 	subs.w	lr, r6, r2
 80007ea:	eb75 0e03 	sbcs.w	lr, r5, r3
 80007ee:	bf22      	ittt	cs
 80007f0:	1ab6      	subcs	r6, r6, r2
 80007f2:	4675      	movcs	r5, lr
 80007f4:	ea40 00dc 	orrcs.w	r0, r0, ip, lsr #3
 80007f8:	ea55 0e06 	orrs.w	lr, r5, r6
 80007fc:	d018      	beq.n	8000830 <__aeabi_ddiv+0x114>
 80007fe:	ea4f 1505 	mov.w	r5, r5, lsl #4
 8000802:	ea45 7516 	orr.w	r5, r5, r6, lsr #28
 8000806:	ea4f 1606 	mov.w	r6, r6, lsl #4
 800080a:	ea4f 03c3 	mov.w	r3, r3, lsl #3
 800080e:	ea43 7352 	orr.w	r3, r3, r2, lsr #29
 8000812:	ea4f 02c2 	mov.w	r2, r2, lsl #3
 8000816:	ea5f 1c1c 	movs.w	ip, ip, lsr #4
 800081a:	d1c0      	bne.n	800079e <__aeabi_ddiv+0x82>
 800081c:	f411 1f80 	tst.w	r1, #1048576	; 0x100000
 8000820:	d10b      	bne.n	800083a <__aeabi_ddiv+0x11e>
 8000822:	ea41 0100 	orr.w	r1, r1, r0
 8000826:	f04f 0000 	mov.w	r0, #0
 800082a:	f04f 4c00 	mov.w	ip, #2147483648	; 0x80000000
 800082e:	e7b6      	b.n	800079e <__aeabi_ddiv+0x82>
 8000830:	f411 1f80 	tst.w	r1, #1048576	; 0x100000
 8000834:	bf04      	itt	eq
 8000836:	4301      	orreq	r1, r0
 8000838:	2000      	moveq	r0, #0
 800083a:	f1b4 0cfd 	subs.w	ip, r4, #253	; 0xfd
 800083e:	bf88      	it	hi
 8000840:	f5bc 6fe0 	cmphi.w	ip, #1792	; 0x700
 8000844:	f63f aeaf 	bhi.w	80005a6 <__aeabi_dmul+0xde>
 8000848:	ebb5 0c03 	subs.w	ip, r5, r3
 800084c:	bf04      	itt	eq
 800084e:	ebb6 0c02 	subseq.w	ip, r6, r2
 8000852:	ea5f 0c50 	movseq.w	ip, r0, lsr #1
 8000856:	f150 0000 	adcs.w	r0, r0, #0
 800085a:	eb41 5104 	adc.w	r1, r1, r4, lsl #20
 800085e:	bd70      	pop	{r4, r5, r6, pc}
 8000860:	f00e 4e00 	and.w	lr, lr, #2147483648	; 0x80000000
 8000864:	ea4e 3111 	orr.w	r1, lr, r1, lsr #12
 8000868:	eb14 045c 	adds.w	r4, r4, ip, lsr #1
 800086c:	bfc2      	ittt	gt
 800086e:	ebd4 050c 	rsbsgt	r5, r4, ip
 8000872:	ea41 5104 	orrgt.w	r1, r1, r4, lsl #20
 8000876:	bd70      	popgt	{r4, r5, r6, pc}
 8000878:	f441 1180 	orr.w	r1, r1, #1048576	; 0x100000
 800087c:	f04f 0e00 	mov.w	lr, #0
 8000880:	3c01      	subs	r4, #1
 8000882:	e690      	b.n	80005a6 <__aeabi_dmul+0xde>
 8000884:	ea45 0e06 	orr.w	lr, r5, r6
 8000888:	e68d      	b.n	80005a6 <__aeabi_dmul+0xde>
 800088a:	ea0c 5513 	and.w	r5, ip, r3, lsr #20
 800088e:	ea94 0f0c 	teq	r4, ip
 8000892:	bf08      	it	eq
 8000894:	ea95 0f0c 	teqeq	r5, ip
 8000898:	f43f af3b 	beq.w	8000712 <__aeabi_dmul+0x24a>
 800089c:	ea94 0f0c 	teq	r4, ip
 80008a0:	d10a      	bne.n	80008b8 <__aeabi_ddiv+0x19c>
 80008a2:	ea50 3401 	orrs.w	r4, r0, r1, lsl #12
 80008a6:	f47f af34 	bne.w	8000712 <__aeabi_dmul+0x24a>
 80008aa:	ea95 0f0c 	teq	r5, ip
 80008ae:	f47f af25 	bne.w	80006fc <__aeabi_dmul+0x234>
 80008b2:	4610      	mov	r0, r2
 80008b4:	4619      	mov	r1, r3
 80008b6:	e72c      	b.n	8000712 <__aeabi_dmul+0x24a>
 80008b8:	ea95 0f0c 	teq	r5, ip
 80008bc:	d106      	bne.n	80008cc <__aeabi_ddiv+0x1b0>
 80008be:	ea52 3503 	orrs.w	r5, r2, r3, lsl #12
 80008c2:	f43f aefd 	beq.w	80006c0 <__aeabi_dmul+0x1f8>
 80008c6:	4610      	mov	r0, r2
 80008c8:	4619      	mov	r1, r3
 80008ca:	e722      	b.n	8000712 <__aeabi_dmul+0x24a>
 80008cc:	ea50 0641 	orrs.w	r6, r0, r1, lsl #1
 80008d0:	bf18      	it	ne
 80008d2:	ea52 0643 	orrsne.w	r6, r2, r3, lsl #1
 80008d6:	f47f aec5 	bne.w	8000664 <__aeabi_dmul+0x19c>
 80008da:	ea50 0441 	orrs.w	r4, r0, r1, lsl #1
 80008de:	f47f af0d 	bne.w	80006fc <__aeabi_dmul+0x234>
 80008e2:	ea52 0543 	orrs.w	r5, r2, r3, lsl #1
 80008e6:	f47f aeeb 	bne.w	80006c0 <__aeabi_dmul+0x1f8>
 80008ea:	e712      	b.n	8000712 <__aeabi_dmul+0x24a>

080008ec <__gedf2>:
 80008ec:	f04f 3cff 	mov.w	ip, #4294967295
 80008f0:	e006      	b.n	8000900 <__cmpdf2+0x4>
 80008f2:	bf00      	nop

080008f4 <__ledf2>:
 80008f4:	f04f 0c01 	mov.w	ip, #1
 80008f8:	e002      	b.n	8000900 <__cmpdf2+0x4>
 80008fa:	bf00      	nop

080008fc <__cmpdf2>:
 80008fc:	f04f 0c01 	mov.w	ip, #1
 8000900:	f84d cd04 	str.w	ip, [sp, #-4]!
 8000904:	ea4f 0c41 	mov.w	ip, r1, lsl #1
 8000908:	ea7f 5c6c 	mvns.w	ip, ip, asr #21
 800090c:	ea4f 0c43 	mov.w	ip, r3, lsl #1
 8000910:	bf18      	it	ne
 8000912:	ea7f 5c6c 	mvnsne.w	ip, ip, asr #21
 8000916:	d01b      	beq.n	8000950 <__cmpdf2+0x54>
 8000918:	b001      	add	sp, #4
 800091a:	ea50 0c41 	orrs.w	ip, r0, r1, lsl #1
 800091e:	bf0c      	ite	eq
 8000920:	ea52 0c43 	orrseq.w	ip, r2, r3, lsl #1
 8000924:	ea91 0f03 	teqne	r1, r3
 8000928:	bf02      	ittt	eq
 800092a:	ea90 0f02 	teqeq	r0, r2
 800092e:	2000      	moveq	r0, #0
 8000930:	4770      	bxeq	lr
 8000932:	f110 0f00 	cmn.w	r0, #0
 8000936:	ea91 0f03 	teq	r1, r3
 800093a:	bf58      	it	pl
 800093c:	4299      	cmppl	r1, r3
 800093e:	bf08      	it	eq
 8000940:	4290      	cmpeq	r0, r2
 8000942:	bf2c      	ite	cs
 8000944:	17d8      	asrcs	r0, r3, #31
 8000946:	ea6f 70e3 	mvncc.w	r0, r3, asr #31
 800094a:	f040 0001 	orr.w	r0, r0, #1
 800094e:	4770      	bx	lr
 8000950:	ea4f 0c41 	mov.w	ip, r1, lsl #1
 8000954:	ea7f 5c6c 	mvns.w	ip, ip, asr #21
 8000958:	d102      	bne.n	8000960 <__cmpdf2+0x64>
 800095a:	ea50 3c01 	orrs.w	ip, r0, r1, lsl #12
 800095e:	d107      	bne.n	8000970 <__cmpdf2+0x74>
 8000960:	ea4f 0c43 	mov.w	ip, r3, lsl #1
 8000964:	ea7f 5c6c 	mvns.w	ip, ip, asr #21
 8000968:	d1d6      	bne.n	8000918 <__cmpdf2+0x1c>
 800096a:	ea52 3c03 	orrs.w	ip, r2, r3, lsl #12
 800096e:	d0d3      	beq.n	8000918 <__cmpdf2+0x1c>
 8000970:	f85d 0b04 	ldr.w	r0, [sp], #4
 8000974:	4770      	bx	lr
 8000976:	bf00      	nop

08000978 <__aeabi_cdrcmple>:
 8000978:	4684      	mov	ip, r0
 800097a:	4610      	mov	r0, r2
 800097c:	4662      	mov	r2, ip
 800097e:	468c      	mov	ip, r1
 8000980:	4619      	mov	r1, r3
 8000982:	4663      	mov	r3, ip
 8000984:	e000      	b.n	8000988 <__aeabi_cdcmpeq>
 8000986:	bf00      	nop

08000988 <__aeabi_cdcmpeq>:
 8000988:	b501      	push	{r0, lr}
 800098a:	f7ff ffb7 	bl	80008fc <__cmpdf2>
 800098e:	2800      	cmp	r0, #0
 8000990:	bf48      	it	mi
 8000992:	f110 0f00 	cmnmi.w	r0, #0
 8000996:	bd01      	pop	{r0, pc}

08000998 <__aeabi_dcmpeq>:
 8000998:	f84d ed08 	str.w	lr, [sp, #-8]!
 800099c:	f7ff fff4 	bl	8000988 <__aeabi_cdcmpeq>
 80009a0:	bf0c      	ite	eq
 80009a2:	2001      	moveq	r0, #1
 80009a4:	2000      	movne	r0, #0
 80009a6:	f85d fb08 	ldr.w	pc, [sp], #8
 80009aa:	bf00      	nop

080009ac <__aeabi_dcmplt>:
 80009ac:	f84d ed08 	str.w	lr, [sp, #-8]!
 80009b0:	f7ff ffea 	bl	8000988 <__aeabi_cdcmpeq>
 80009b4:	bf34      	ite	cc
 80009b6:	2001      	movcc	r0, #1
 80009b8:	2000      	movcs	r0, #0
 80009ba:	f85d fb08 	ldr.w	pc, [sp], #8
 80009be:	bf00      	nop

080009c0 <__aeabi_dcmple>:
 80009c0:	f84d ed08 	str.w	lr, [sp, #-8]!
 80009c4:	f7ff ffe0 	bl	8000988 <__aeabi_cdcmpeq>
 80009c8:	bf94      	ite	ls
 80009ca:	2001      	movls	r0, #1
 80009cc:	2000      	movhi	r0, #0
 80009ce:	f85d fb08 	ldr.w	pc, [sp], #8
 80009d2:	bf00      	nop

080009d4 <__aeabi_dcmpge>:
 80009d4:	f84d ed08 	str.w	lr, [sp, #-8]!
 80009d8:	f7ff ffce 	bl	8000978 <__aeabi_cdrcmple>
 80009dc:	bf94      	ite	ls
 80009de:	2001      	movls	r0, #1
 80009e0:	2000      	movhi	r0, #0
 80009e2:	f85d fb08 	ldr.w	pc, [sp], #8
 80009e6:	bf00      	nop

080009e8 <__aeabi_dcmpgt>:
 80009e8:	f84d ed08 	str.w	lr, [sp, #-8]!
 80009ec:	f7ff ffc4 	bl	8000978 <__aeabi_cdrcmple>
 80009f0:	bf34      	ite	cc
 80009f2:	2001      	movcc	r0, #1
 80009f4:	2000      	movcs	r0, #0
 80009f6:	f85d fb08 	ldr.w	pc, [sp], #8
 80009fa:	bf00      	nop

080009fc <__aeabi_dcmpun>:
 80009fc:	ea4f 0c41 	mov.w	ip, r1, lsl #1
 8000a00:	ea7f 5c6c 	mvns.w	ip, ip, asr #21
 8000a04:	d102      	bne.n	8000a0c <__aeabi_dcmpun+0x10>
 8000a06:	ea50 3c01 	orrs.w	ip, r0, r1, lsl #12
 8000a0a:	d10a      	bne.n	8000a22 <__aeabi_dcmpun+0x26>
 8000a0c:	ea4f 0c43 	mov.w	ip, r3, lsl #1
 8000a10:	ea7f 5c6c 	mvns.w	ip, ip, asr #21
 8000a14:	d102      	bne.n	8000a1c <__aeabi_dcmpun+0x20>
 8000a16:	ea52 3c03 	orrs.w	ip, r2, r3, lsl #12
 8000a1a:	d102      	bne.n	8000a22 <__aeabi_dcmpun+0x26>
 8000a1c:	f04f 0000 	mov.w	r0, #0
 8000a20:	4770      	bx	lr
 8000a22:	f04f 0001 	mov.w	r0, #1
 8000a26:	4770      	bx	lr

08000a28 <__aeabi_d2f>:
 8000a28:	ea4f 0241 	mov.w	r2, r1, lsl #1
 8000a2c:	f1b2 43e0 	subs.w	r3, r2, #1879048192	; 0x70000000
 8000a30:	bf24      	itt	cs
 8000a32:	f5b3 1c00 	subscs.w	ip, r3, #2097152	; 0x200000
 8000a36:	f1dc 5cfe 	rsbscs	ip, ip, #532676608	; 0x1fc00000
 8000a3a:	d90d      	bls.n	8000a58 <__aeabi_d2f+0x30>
 8000a3c:	f001 4c00 	and.w	ip, r1, #2147483648	; 0x80000000
 8000a40:	ea4f 02c0 	mov.w	r2, r0, lsl #3
 8000a44:	ea4c 7050 	orr.w	r0, ip, r0, lsr #29
 8000a48:	f1b2 4f00 	cmp.w	r2, #2147483648	; 0x80000000
 8000a4c:	eb40 0083 	adc.w	r0, r0, r3, lsl #2
 8000a50:	bf08      	it	eq
 8000a52:	f020 0001 	biceq.w	r0, r0, #1
 8000a56:	4770      	bx	lr
 8000a58:	f011 4f80 	tst.w	r1, #1073741824	; 0x40000000
 8000a5c:	d121      	bne.n	8000aa2 <__aeabi_d2f+0x7a>
 8000a5e:	f113 7238 	adds.w	r2, r3, #48234496	; 0x2e00000
 8000a62:	bfbc      	itt	lt
 8000a64:	f001 4000 	andlt.w	r0, r1, #2147483648	; 0x80000000
 8000a68:	4770      	bxlt	lr
 8000a6a:	f441 1180 	orr.w	r1, r1, #1048576	; 0x100000
 8000a6e:	ea4f 5252 	mov.w	r2, r2, lsr #21
 8000a72:	f1c2 0218 	rsb	r2, r2, #24
 8000a76:	f1c2 0c20 	rsb	ip, r2, #32
 8000a7a:	fa10 f30c 	lsls.w	r3, r0, ip
 8000a7e:	fa20 f002 	lsr.w	r0, r0, r2
 8000a82:	bf18      	it	ne
 8000a84:	f040 0001 	orrne.w	r0, r0, #1
 8000a88:	ea4f 23c1 	mov.w	r3, r1, lsl #11
 8000a8c:	ea4f 23d3 	mov.w	r3, r3, lsr #11
 8000a90:	fa03 fc0c 	lsl.w	ip, r3, ip
 8000a94:	ea40 000c 	orr.w	r0, r0, ip
 8000a98:	fa23 f302 	lsr.w	r3, r3, r2
 8000a9c:	ea4f 0343 	mov.w	r3, r3, lsl #1
 8000aa0:	e7cc      	b.n	8000a3c <__aeabi_d2f+0x14>
 8000aa2:	ea7f 5362 	mvns.w	r3, r2, asr #21
 8000aa6:	d107      	bne.n	8000ab8 <__aeabi_d2f+0x90>
 8000aa8:	ea50 3301 	orrs.w	r3, r0, r1, lsl #12
 8000aac:	bf1e      	ittt	ne
 8000aae:	f04f 40fe 	movne.w	r0, #2130706432	; 0x7f000000
 8000ab2:	f440 0040 	orrne.w	r0, r0, #12582912	; 0xc00000
 8000ab6:	4770      	bxne	lr
 8000ab8:	f001 4000 	and.w	r0, r1, #2147483648	; 0x80000000
 8000abc:	f040 40fe 	orr.w	r0, r0, #2130706432	; 0x7f000000
 8000ac0:	f440 0000 	orr.w	r0, r0, #8388608	; 0x800000
 8000ac4:	4770      	bx	lr
 8000ac6:	bf00      	nop

08000ac8 <__aeabi_frsub>:
 8000ac8:	f080 4000 	eor.w	r0, r0, #2147483648	; 0x80000000
 8000acc:	e002      	b.n	8000ad4 <__addsf3>
 8000ace:	bf00      	nop

08000ad0 <__aeabi_fsub>:
 8000ad0:	f081 4100 	eor.w	r1, r1, #2147483648	; 0x80000000

08000ad4 <__addsf3>:
 8000ad4:	0042      	lsls	r2, r0, #1
 8000ad6:	bf1f      	itttt	ne
 8000ad8:	ea5f 0341 	movsne.w	r3, r1, lsl #1
 8000adc:	ea92 0f03 	teqne	r2, r3
 8000ae0:	ea7f 6c22 	mvnsne.w	ip, r2, asr #24
 8000ae4:	ea7f 6c23 	mvnsne.w	ip, r3, asr #24
 8000ae8:	d06a      	beq.n	8000bc0 <__addsf3+0xec>
 8000aea:	ea4f 6212 	mov.w	r2, r2, lsr #24
 8000aee:	ebd2 6313 	rsbs	r3, r2, r3, lsr #24
 8000af2:	bfc1      	itttt	gt
 8000af4:	18d2      	addgt	r2, r2, r3
 8000af6:	4041      	eorgt	r1, r0
 8000af8:	4048      	eorgt	r0, r1
 8000afa:	4041      	eorgt	r1, r0
 8000afc:	bfb8      	it	lt
 8000afe:	425b      	neglt	r3, r3
 8000b00:	2b19      	cmp	r3, #25
 8000b02:	bf88      	it	hi
 8000b04:	4770      	bxhi	lr
 8000b06:	f010 4f00 	tst.w	r0, #2147483648	; 0x80000000
 8000b0a:	f440 0000 	orr.w	r0, r0, #8388608	; 0x800000
 8000b0e:	f020 407f 	bic.w	r0, r0, #4278190080	; 0xff000000
 8000b12:	bf18      	it	ne
 8000b14:	4240      	negne	r0, r0
 8000b16:	f011 4f00 	tst.w	r1, #2147483648	; 0x80000000
 8000b1a:	f441 0100 	orr.w	r1, r1, #8388608	; 0x800000
 8000b1e:	f021 417f 	bic.w	r1, r1, #4278190080	; 0xff000000
 8000b22:	bf18      	it	ne
 8000b24:	4249      	negne	r1, r1
 8000b26:	ea92 0f03 	teq	r2, r3
 8000b2a:	d03f      	beq.n	8000bac <__addsf3+0xd8>
 8000b2c:	f1a2 0201 	sub.w	r2, r2, #1
 8000b30:	fa41 fc03 	asr.w	ip, r1, r3
 8000b34:	eb10 000c 	adds.w	r0, r0, ip
 8000b38:	f1c3 0320 	rsb	r3, r3, #32
 8000b3c:	fa01 f103 	lsl.w	r1, r1, r3
 8000b40:	f000 4300 	and.w	r3, r0, #2147483648	; 0x80000000
 8000b44:	d502      	bpl.n	8000b4c <__addsf3+0x78>
 8000b46:	4249      	negs	r1, r1
 8000b48:	eb60 0040 	sbc.w	r0, r0, r0, lsl #1
 8000b4c:	f5b0 0f00 	cmp.w	r0, #8388608	; 0x800000
 8000b50:	d313      	bcc.n	8000b7a <__addsf3+0xa6>
 8000b52:	f1b0 7f80 	cmp.w	r0, #16777216	; 0x1000000
 8000b56:	d306      	bcc.n	8000b66 <__addsf3+0x92>
 8000b58:	0840      	lsrs	r0, r0, #1
 8000b5a:	ea4f 0131 	mov.w	r1, r1, rrx
 8000b5e:	f102 0201 	add.w	r2, r2, #1
 8000b62:	2afe      	cmp	r2, #254	; 0xfe
 8000b64:	d251      	bcs.n	8000c0a <__addsf3+0x136>
 8000b66:	f1b1 4f00 	cmp.w	r1, #2147483648	; 0x80000000
 8000b6a:	eb40 50c2 	adc.w	r0, r0, r2, lsl #23
 8000b6e:	bf08      	it	eq
 8000b70:	f020 0001 	biceq.w	r0, r0, #1
 8000b74:	ea40 0003 	orr.w	r0, r0, r3
 8000b78:	4770      	bx	lr
 8000b7a:	0049      	lsls	r1, r1, #1
 8000b7c:	eb40 0000 	adc.w	r0, r0, r0
 8000b80:	f410 0f00 	tst.w	r0, #8388608	; 0x800000
 8000b84:	f1a2 0201 	sub.w	r2, r2, #1
 8000b88:	d1ed      	bne.n	8000b66 <__addsf3+0x92>
 8000b8a:	fab0 fc80 	clz	ip, r0
 8000b8e:	f1ac 0c08 	sub.w	ip, ip, #8
 8000b92:	ebb2 020c 	subs.w	r2, r2, ip
 8000b96:	fa00 f00c 	lsl.w	r0, r0, ip
 8000b9a:	bfaa      	itet	ge
 8000b9c:	eb00 50c2 	addge.w	r0, r0, r2, lsl #23
 8000ba0:	4252      	neglt	r2, r2
 8000ba2:	4318      	orrge	r0, r3
 8000ba4:	bfbc      	itt	lt
 8000ba6:	40d0      	lsrlt	r0, r2
 8000ba8:	4318      	orrlt	r0, r3
 8000baa:	4770      	bx	lr
 8000bac:	f092 0f00 	teq	r2, #0
 8000bb0:	f481 0100 	eor.w	r1, r1, #8388608	; 0x800000
 8000bb4:	bf06      	itte	eq
 8000bb6:	f480 0000 	eoreq.w	r0, r0, #8388608	; 0x800000
 8000bba:	3201      	addeq	r2, #1
 8000bbc:	3b01      	subne	r3, #1
 8000bbe:	e7b5      	b.n	8000b2c <__addsf3+0x58>
 8000bc0:	ea4f 0341 	mov.w	r3, r1, lsl #1
 8000bc4:	ea7f 6c22 	mvns.w	ip, r2, asr #24
 8000bc8:	bf18      	it	ne
 8000bca:	ea7f 6c23 	mvnsne.w	ip, r3, asr #24
 8000bce:	d021      	beq.n	8000c14 <__addsf3+0x140>
 8000bd0:	ea92 0f03 	teq	r2, r3
 8000bd4:	d004      	beq.n	8000be0 <__addsf3+0x10c>
 8000bd6:	f092 0f00 	teq	r2, #0
 8000bda:	bf08      	it	eq
 8000bdc:	4608      	moveq	r0, r1
 8000bde:	4770      	bx	lr
 8000be0:	ea90 0f01 	teq	r0, r1
 8000be4:	bf1c      	itt	ne
 8000be6:	2000      	movne	r0, #0
 8000be8:	4770      	bxne	lr
 8000bea:	f012 4f7f 	tst.w	r2, #4278190080	; 0xff000000
 8000bee:	d104      	bne.n	8000bfa <__addsf3+0x126>
 8000bf0:	0040      	lsls	r0, r0, #1
 8000bf2:	bf28      	it	cs
 8000bf4:	f040 4000 	orrcs.w	r0, r0, #2147483648	; 0x80000000
 8000bf8:	4770      	bx	lr
 8000bfa:	f112 7200 	adds.w	r2, r2, #33554432	; 0x2000000
 8000bfe:	bf3c      	itt	cc
 8000c00:	f500 0000 	addcc.w	r0, r0, #8388608	; 0x800000
 8000c04:	4770      	bxcc	lr
 8000c06:	f000 4300 	and.w	r3, r0, #2147483648	; 0x80000000
 8000c0a:	f043 40fe 	orr.w	r0, r3, #2130706432	; 0x7f000000
 8000c0e:	f440 0000 	orr.w	r0, r0, #8388608	; 0x800000
 8000c12:	4770      	bx	lr
 8000c14:	ea7f 6222 	mvns.w	r2, r2, asr #24
 8000c18:	bf16      	itet	ne
 8000c1a:	4608      	movne	r0, r1
 8000c1c:	ea7f 6323 	mvnseq.w	r3, r3, asr #24
 8000c20:	4601      	movne	r1, r0
 8000c22:	0242      	lsls	r2, r0, #9
 8000c24:	bf06      	itte	eq
 8000c26:	ea5f 2341 	movseq.w	r3, r1, lsl #9
 8000c2a:	ea90 0f01 	teqeq	r0, r1
 8000c2e:	f440 0080 	orrne.w	r0, r0, #4194304	; 0x400000
 8000c32:	4770      	bx	lr

08000c34 <__aeabi_ui2f>:
 8000c34:	f04f 0300 	mov.w	r3, #0
 8000c38:	e004      	b.n	8000c44 <__aeabi_i2f+0x8>
 8000c3a:	bf00      	nop

08000c3c <__aeabi_i2f>:
 8000c3c:	f010 4300 	ands.w	r3, r0, #2147483648	; 0x80000000
 8000c40:	bf48      	it	mi
 8000c42:	4240      	negmi	r0, r0
 8000c44:	ea5f 0c00 	movs.w	ip, r0
 8000c48:	bf08      	it	eq
 8000c4a:	4770      	bxeq	lr
 8000c4c:	f043 4396 	orr.w	r3, r3, #1258291200	; 0x4b000000
 8000c50:	4601      	mov	r1, r0
 8000c52:	f04f 0000 	mov.w	r0, #0
 8000c56:	e01c      	b.n	8000c92 <__aeabi_l2f+0x2a>

08000c58 <__aeabi_ul2f>:
 8000c58:	ea50 0201 	orrs.w	r2, r0, r1
 8000c5c:	bf08      	it	eq
 8000c5e:	4770      	bxeq	lr
 8000c60:	f04f 0300 	mov.w	r3, #0
 8000c64:	e00a      	b.n	8000c7c <__aeabi_l2f+0x14>
 8000c66:	bf00      	nop

08000c68 <__aeabi_l2f>:
 8000c68:	ea50 0201 	orrs.w	r2, r0, r1
 8000c6c:	bf08      	it	eq
 8000c6e:	4770      	bxeq	lr
 8000c70:	f011 4300 	ands.w	r3, r1, #2147483648	; 0x80000000
 8000c74:	d502      	bpl.n	8000c7c <__aeabi_l2f+0x14>
 8000c76:	4240      	negs	r0, r0
 8000c78:	eb61 0141 	sbc.w	r1, r1, r1, lsl #1
 8000c7c:	ea5f 0c01 	movs.w	ip, r1
 8000c80:	bf02      	ittt	eq
 8000c82:	4684      	moveq	ip, r0
 8000c84:	4601      	moveq	r1, r0
 8000c86:	2000      	moveq	r0, #0
 8000c88:	f043 43b6 	orr.w	r3, r3, #1526726656	; 0x5b000000
 8000c8c:	bf08      	it	eq
 8000c8e:	f1a3 5380 	subeq.w	r3, r3, #268435456	; 0x10000000
 8000c92:	f5a3 0300 	sub.w	r3, r3, #8388608	; 0x800000
 8000c96:	fabc f28c 	clz	r2, ip
 8000c9a:	3a08      	subs	r2, #8
 8000c9c:	eba3 53c2 	sub.w	r3, r3, r2, lsl #23
 8000ca0:	db10      	blt.n	8000cc4 <__aeabi_l2f+0x5c>
 8000ca2:	fa01 fc02 	lsl.w	ip, r1, r2
 8000ca6:	4463      	add	r3, ip
 8000ca8:	fa00 fc02 	lsl.w	ip, r0, r2
 8000cac:	f1c2 0220 	rsb	r2, r2, #32
 8000cb0:	f1bc 4f00 	cmp.w	ip, #2147483648	; 0x80000000
 8000cb4:	fa20 f202 	lsr.w	r2, r0, r2
 8000cb8:	eb43 0002 	adc.w	r0, r3, r2
 8000cbc:	bf08      	it	eq
 8000cbe:	f020 0001 	biceq.w	r0, r0, #1
 8000cc2:	4770      	bx	lr
 8000cc4:	f102 0220 	add.w	r2, r2, #32
 8000cc8:	fa01 fc02 	lsl.w	ip, r1, r2
 8000ccc:	f1c2 0220 	rsb	r2, r2, #32
 8000cd0:	ea50 004c 	orrs.w	r0, r0, ip, lsl #1
 8000cd4:	fa21 f202 	lsr.w	r2, r1, r2
 8000cd8:	eb43 0002 	adc.w	r0, r3, r2
 8000cdc:	bf08      	it	eq
 8000cde:	ea20 70dc 	biceq.w	r0, r0, ip, lsr #31
 8000ce2:	4770      	bx	lr

08000ce4 <__aeabi_fmul>:
 8000ce4:	f04f 0cff 	mov.w	ip, #255	; 0xff
 8000ce8:	ea1c 52d0 	ands.w	r2, ip, r0, lsr #23
 8000cec:	bf1e      	ittt	ne
 8000cee:	ea1c 53d1 	andsne.w	r3, ip, r1, lsr #23
 8000cf2:	ea92 0f0c 	teqne	r2, ip
 8000cf6:	ea93 0f0c 	teqne	r3, ip
 8000cfa:	d06f      	beq.n	8000ddc <__aeabi_fmul+0xf8>
 8000cfc:	441a      	add	r2, r3
 8000cfe:	ea80 0c01 	eor.w	ip, r0, r1
 8000d02:	0240      	lsls	r0, r0, #9
 8000d04:	bf18      	it	ne
 8000d06:	ea5f 2141 	movsne.w	r1, r1, lsl #9
 8000d0a:	d01e      	beq.n	8000d4a <__aeabi_fmul+0x66>
 8000d0c:	f04f 6300 	mov.w	r3, #134217728	; 0x8000000
 8000d10:	ea43 1050 	orr.w	r0, r3, r0, lsr #5
 8000d14:	ea43 1151 	orr.w	r1, r3, r1, lsr #5
 8000d18:	fba0 3101 	umull	r3, r1, r0, r1
 8000d1c:	f00c 4000 	and.w	r0, ip, #2147483648	; 0x80000000
 8000d20:	f5b1 0f00 	cmp.w	r1, #8388608	; 0x800000
 8000d24:	bf3e      	ittt	cc
 8000d26:	0049      	lslcc	r1, r1, #1
 8000d28:	ea41 71d3 	orrcc.w	r1, r1, r3, lsr #31
 8000d2c:	005b      	lslcc	r3, r3, #1
 8000d2e:	ea40 0001 	orr.w	r0, r0, r1
 8000d32:	f162 027f 	sbc.w	r2, r2, #127	; 0x7f
 8000d36:	2afd      	cmp	r2, #253	; 0xfd
 8000d38:	d81d      	bhi.n	8000d76 <__aeabi_fmul+0x92>
 8000d3a:	f1b3 4f00 	cmp.w	r3, #2147483648	; 0x80000000
 8000d3e:	eb40 50c2 	adc.w	r0, r0, r2, lsl #23
 8000d42:	bf08      	it	eq
 8000d44:	f020 0001 	biceq.w	r0, r0, #1
 8000d48:	4770      	bx	lr
 8000d4a:	f090 0f00 	teq	r0, #0
 8000d4e:	f00c 4c00 	and.w	ip, ip, #2147483648	; 0x80000000
 8000d52:	bf08      	it	eq
 8000d54:	0249      	lsleq	r1, r1, #9
 8000d56:	ea4c 2050 	orr.w	r0, ip, r0, lsr #9
 8000d5a:	ea40 2051 	orr.w	r0, r0, r1, lsr #9
 8000d5e:	3a7f      	subs	r2, #127	; 0x7f
 8000d60:	bfc2      	ittt	gt
 8000d62:	f1d2 03ff 	rsbsgt	r3, r2, #255	; 0xff
 8000d66:	ea40 50c2 	orrgt.w	r0, r0, r2, lsl #23
 8000d6a:	4770      	bxgt	lr
 8000d6c:	f440 0000 	orr.w	r0, r0, #8388608	; 0x800000
 8000d70:	f04f 0300 	mov.w	r3, #0
 8000d74:	3a01      	subs	r2, #1
 8000d76:	dc5d      	bgt.n	8000e34 <__aeabi_fmul+0x150>
 8000d78:	f112 0f19 	cmn.w	r2, #25
 8000d7c:	bfdc      	itt	le
 8000d7e:	f000 4000 	andle.w	r0, r0, #2147483648	; 0x80000000
 8000d82:	4770      	bxle	lr
 8000d84:	f1c2 0200 	rsb	r2, r2, #0
 8000d88:	0041      	lsls	r1, r0, #1
 8000d8a:	fa21 f102 	lsr.w	r1, r1, r2
 8000d8e:	f1c2 0220 	rsb	r2, r2, #32
 8000d92:	fa00 fc02 	lsl.w	ip, r0, r2
 8000d96:	ea5f 0031 	movs.w	r0, r1, rrx
 8000d9a:	f140 0000 	adc.w	r0, r0, #0
 8000d9e:	ea53 034c 	orrs.w	r3, r3, ip, lsl #1
 8000da2:	bf08      	it	eq
 8000da4:	ea20 70dc 	biceq.w	r0, r0, ip, lsr #31
 8000da8:	4770      	bx	lr
 8000daa:	f092 0f00 	teq	r2, #0
 8000dae:	f000 4c00 	and.w	ip, r0, #2147483648	; 0x80000000
 8000db2:	bf02      	ittt	eq
 8000db4:	0040      	lsleq	r0, r0, #1
 8000db6:	f410 0f00 	tsteq.w	r0, #8388608	; 0x800000
 8000dba:	3a01      	subeq	r2, #1
 8000dbc:	d0f9      	beq.n	8000db2 <__aeabi_fmul+0xce>
 8000dbe:	ea40 000c 	orr.w	r0, r0, ip
 8000dc2:	f093 0f00 	teq	r3, #0
 8000dc6:	f001 4c00 	and.w	ip, r1, #2147483648	; 0x80000000
 8000dca:	bf02      	ittt	eq
 8000dcc:	0049      	lsleq	r1, r1, #1
 8000dce:	f411 0f00 	tsteq.w	r1, #8388608	; 0x800000
 8000dd2:	3b01      	subeq	r3, #1
 8000dd4:	d0f9      	beq.n	8000dca <__aeabi_fmul+0xe6>
 8000dd6:	ea41 010c 	orr.w	r1, r1, ip
 8000dda:	e78f      	b.n	8000cfc <__aeabi_fmul+0x18>
 8000ddc:	ea0c 53d1 	and.w	r3, ip, r1, lsr #23
 8000de0:	ea92 0f0c 	teq	r2, ip
 8000de4:	bf18      	it	ne
 8000de6:	ea93 0f0c 	teqne	r3, ip
 8000dea:	d00a      	beq.n	8000e02 <__aeabi_fmul+0x11e>
 8000dec:	f030 4c00 	bics.w	ip, r0, #2147483648	; 0x80000000
 8000df0:	bf18      	it	ne
 8000df2:	f031 4c00 	bicsne.w	ip, r1, #2147483648	; 0x80000000
 8000df6:	d1d8      	bne.n	8000daa <__aeabi_fmul+0xc6>
 8000df8:	ea80 0001 	eor.w	r0, r0, r1
 8000dfc:	f000 4000 	and.w	r0, r0, #2147483648	; 0x80000000
 8000e00:	4770      	bx	lr
 8000e02:	f090 0f00 	teq	r0, #0
 8000e06:	bf17      	itett	ne
 8000e08:	f090 4f00 	teqne	r0, #2147483648	; 0x80000000
 8000e0c:	4608      	moveq	r0, r1
 8000e0e:	f091 0f00 	teqne	r1, #0
 8000e12:	f091 4f00 	teqne	r1, #2147483648	; 0x80000000
 8000e16:	d014      	beq.n	8000e42 <__aeabi_fmul+0x15e>
 8000e18:	ea92 0f0c 	teq	r2, ip
 8000e1c:	d101      	bne.n	8000e22 <__aeabi_fmul+0x13e>
 8000e1e:	0242      	lsls	r2, r0, #9
 8000e20:	d10f      	bne.n	8000e42 <__aeabi_fmul+0x15e>
 8000e22:	ea93 0f0c 	teq	r3, ip
 8000e26:	d103      	bne.n	8000e30 <__aeabi_fmul+0x14c>
 8000e28:	024b      	lsls	r3, r1, #9
 8000e2a:	bf18      	it	ne
 8000e2c:	4608      	movne	r0, r1
 8000e2e:	d108      	bne.n	8000e42 <__aeabi_fmul+0x15e>
 8000e30:	ea80 0001 	eor.w	r0, r0, r1
 8000e34:	f000 4000 	and.w	r0, r0, #2147483648	; 0x80000000
 8000e38:	f040 40fe 	orr.w	r0, r0, #2130706432	; 0x7f000000
 8000e3c:	f440 0000 	orr.w	r0, r0, #8388608	; 0x800000
 8000e40:	4770      	bx	lr
 8000e42:	f040 40fe 	orr.w	r0, r0, #2130706432	; 0x7f000000
 8000e46:	f440 0040 	orr.w	r0, r0, #12582912	; 0xc00000
 8000e4a:	4770      	bx	lr

08000e4c <__aeabi_fdiv>:
 8000e4c:	f04f 0cff 	mov.w	ip, #255	; 0xff
 8000e50:	ea1c 52d0 	ands.w	r2, ip, r0, lsr #23
 8000e54:	bf1e      	ittt	ne
 8000e56:	ea1c 53d1 	andsne.w	r3, ip, r1, lsr #23
 8000e5a:	ea92 0f0c 	teqne	r2, ip
 8000e5e:	ea93 0f0c 	teqne	r3, ip
 8000e62:	d069      	beq.n	8000f38 <__aeabi_fdiv+0xec>
 8000e64:	eba2 0203 	sub.w	r2, r2, r3
 8000e68:	ea80 0c01 	eor.w	ip, r0, r1
 8000e6c:	0249      	lsls	r1, r1, #9
 8000e6e:	ea4f 2040 	mov.w	r0, r0, lsl #9
 8000e72:	d037      	beq.n	8000ee4 <__aeabi_fdiv+0x98>
 8000e74:	f04f 5380 	mov.w	r3, #268435456	; 0x10000000
 8000e78:	ea43 1111 	orr.w	r1, r3, r1, lsr #4
 8000e7c:	ea43 1310 	orr.w	r3, r3, r0, lsr #4
 8000e80:	f00c 4000 	and.w	r0, ip, #2147483648	; 0x80000000
 8000e84:	428b      	cmp	r3, r1
 8000e86:	bf38      	it	cc
 8000e88:	005b      	lslcc	r3, r3, #1
 8000e8a:	f142 027d 	adc.w	r2, r2, #125	; 0x7d
 8000e8e:	f44f 0c00 	mov.w	ip, #8388608	; 0x800000
 8000e92:	428b      	cmp	r3, r1
 8000e94:	bf24      	itt	cs
 8000e96:	1a5b      	subcs	r3, r3, r1
 8000e98:	ea40 000c 	orrcs.w	r0, r0, ip
 8000e9c:	ebb3 0f51 	cmp.w	r3, r1, lsr #1
 8000ea0:	bf24      	itt	cs
 8000ea2:	eba3 0351 	subcs.w	r3, r3, r1, lsr #1
 8000ea6:	ea40 005c 	orrcs.w	r0, r0, ip, lsr #1
 8000eaa:	ebb3 0f91 	cmp.w	r3, r1, lsr #2
 8000eae:	bf24      	itt	cs
 8000eb0:	eba3 0391 	subcs.w	r3, r3, r1, lsr #2
 8000eb4:	ea40 009c 	orrcs.w	r0, r0, ip, lsr #2
 8000eb8:	ebb3 0fd1 	cmp.w	r3, r1, lsr #3
 8000ebc:	bf24      	itt	cs
 8000ebe:	eba3 03d1 	subcs.w	r3, r3, r1, lsr #3
 8000ec2:	ea40 00dc 	orrcs.w	r0, r0, ip, lsr #3
 8000ec6:	011b      	lsls	r3, r3, #4
 8000ec8:	bf18      	it	ne
 8000eca:	ea5f 1c1c 	movsne.w	ip, ip, lsr #4
 8000ece:	d1e0      	bne.n	8000e92 <__aeabi_fdiv+0x46>
 8000ed0:	2afd      	cmp	r2, #253	; 0xfd
 8000ed2:	f63f af50 	bhi.w	8000d76 <__aeabi_fmul+0x92>
 8000ed6:	428b      	cmp	r3, r1
 8000ed8:	eb40 50c2 	adc.w	r0, r0, r2, lsl #23
 8000edc:	bf08      	it	eq
 8000ede:	f020 0001 	biceq.w	r0, r0, #1
 8000ee2:	4770      	bx	lr
 8000ee4:	f00c 4c00 	and.w	ip, ip, #2147483648	; 0x80000000
 8000ee8:	ea4c 2050 	orr.w	r0, ip, r0, lsr #9
 8000eec:	327f      	adds	r2, #127	; 0x7f
 8000eee:	bfc2      	ittt	gt
 8000ef0:	f1d2 03ff 	rsbsgt	r3, r2, #255	; 0xff
 8000ef4:	ea40 50c2 	orrgt.w	r0, r0, r2, lsl #23
 8000ef8:	4770      	bxgt	lr
 8000efa:	f440 0000 	orr.w	r0, r0, #8388608	; 0x800000
 8000efe:	f04f 0300 	mov.w	r3, #0
 8000f02:	3a01      	subs	r2, #1
 8000f04:	e737      	b.n	8000d76 <__aeabi_fmul+0x92>
 8000f06:	f092 0f00 	teq	r2, #0
 8000f0a:	f000 4c00 	and.w	ip, r0, #2147483648	; 0x80000000
 8000f0e:	bf02      	ittt	eq
 8000f10:	0040      	lsleq	r0, r0, #1
 8000f12:	f410 0f00 	tsteq.w	r0, #8388608	; 0x800000
 8000f16:	3a01      	subeq	r2, #1
 8000f18:	d0f9      	beq.n	8000f0e <__aeabi_fdiv+0xc2>
 8000f1a:	ea40 000c 	orr.w	r0, r0, ip
 8000f1e:	f093 0f00 	teq	r3, #0
 8000f22:	f001 4c00 	and.w	ip, r1, #2147483648	; 0x80000000
 8000f26:	bf02      	ittt	eq
 8000f28:	0049      	lsleq	r1, r1, #1
 8000f2a:	f411 0f00 	tsteq.w	r1, #8388608	; 0x800000
 8000f2e:	3b01      	subeq	r3, #1
 8000f30:	d0f9      	beq.n	8000f26 <__aeabi_fdiv+0xda>
 8000f32:	ea41 010c 	orr.w	r1, r1, ip
 8000f36:	e795      	b.n	8000e64 <__aeabi_fdiv+0x18>
 8000f38:	ea0c 53d1 	and.w	r3, ip, r1, lsr #23
 8000f3c:	ea92 0f0c 	teq	r2, ip
 8000f40:	d108      	bne.n	8000f54 <__aeabi_fdiv+0x108>
 8000f42:	0242      	lsls	r2, r0, #9
 8000f44:	f47f af7d 	bne.w	8000e42 <__aeabi_fmul+0x15e>
 8000f48:	ea93 0f0c 	teq	r3, ip
 8000f4c:	f47f af70 	bne.w	8000e30 <__aeabi_fmul+0x14c>
 8000f50:	4608      	mov	r0, r1
 8000f52:	e776      	b.n	8000e42 <__aeabi_fmul+0x15e>
 8000f54:	ea93 0f0c 	teq	r3, ip
 8000f58:	d104      	bne.n	8000f64 <__aeabi_fdiv+0x118>
 8000f5a:	024b      	lsls	r3, r1, #9
 8000f5c:	f43f af4c 	beq.w	8000df8 <__aeabi_fmul+0x114>
 8000f60:	4608      	mov	r0, r1
 8000f62:	e76e      	b.n	8000e42 <__aeabi_fmul+0x15e>
 8000f64:	f030 4c00 	bics.w	ip, r0, #2147483648	; 0x80000000
 8000f68:	bf18      	it	ne
 8000f6a:	f031 4c00 	bicsne.w	ip, r1, #2147483648	; 0x80000000
 8000f6e:	d1ca      	bne.n	8000f06 <__aeabi_fdiv+0xba>
 8000f70:	f030 4200 	bics.w	r2, r0, #2147483648	; 0x80000000
 8000f74:	f47f af5c 	bne.w	8000e30 <__aeabi_fmul+0x14c>
 8000f78:	f031 4300 	bics.w	r3, r1, #2147483648	; 0x80000000
 8000f7c:	f47f af3c 	bne.w	8000df8 <__aeabi_fmul+0x114>
 8000f80:	e75f      	b.n	8000e42 <__aeabi_fmul+0x15e>
 8000f82:	bf00      	nop

08000f84 <__gesf2>:
 8000f84:	f04f 3cff 	mov.w	ip, #4294967295
 8000f88:	e006      	b.n	8000f98 <__cmpsf2+0x4>
 8000f8a:	bf00      	nop

08000f8c <__lesf2>:
 8000f8c:	f04f 0c01 	mov.w	ip, #1
 8000f90:	e002      	b.n	8000f98 <__cmpsf2+0x4>
 8000f92:	bf00      	nop

08000f94 <__cmpsf2>:
 8000f94:	f04f 0c01 	mov.w	ip, #1
 8000f98:	f84d cd04 	str.w	ip, [sp, #-4]!
 8000f9c:	ea4f 0240 	mov.w	r2, r0, lsl #1
 8000fa0:	ea4f 0341 	mov.w	r3, r1, lsl #1
 8000fa4:	ea7f 6c22 	mvns.w	ip, r2, asr #24
 8000fa8:	bf18      	it	ne
 8000faa:	ea7f 6c23 	mvnsne.w	ip, r3, asr #24
 8000fae:	d011      	beq.n	8000fd4 <__cmpsf2+0x40>
 8000fb0:	b001      	add	sp, #4
 8000fb2:	ea52 0c53 	orrs.w	ip, r2, r3, lsr #1
 8000fb6:	bf18      	it	ne
 8000fb8:	ea90 0f01 	teqne	r0, r1
 8000fbc:	bf58      	it	pl
 8000fbe:	ebb2 0003 	subspl.w	r0, r2, r3
 8000fc2:	bf88      	it	hi
 8000fc4:	17c8      	asrhi	r0, r1, #31
 8000fc6:	bf38      	it	cc
 8000fc8:	ea6f 70e1 	mvncc.w	r0, r1, asr #31
 8000fcc:	bf18      	it	ne
 8000fce:	f040 0001 	orrne.w	r0, r0, #1
 8000fd2:	4770      	bx	lr
 8000fd4:	ea7f 6c22 	mvns.w	ip, r2, asr #24
 8000fd8:	d102      	bne.n	8000fe0 <__cmpsf2+0x4c>
 8000fda:	ea5f 2c40 	movs.w	ip, r0, lsl #9
 8000fde:	d105      	bne.n	8000fec <__cmpsf2+0x58>
 8000fe0:	ea7f 6c23 	mvns.w	ip, r3, asr #24
 8000fe4:	d1e4      	bne.n	8000fb0 <__cmpsf2+0x1c>
 8000fe6:	ea5f 2c41 	movs.w	ip, r1, lsl #9
 8000fea:	d0e1      	beq.n	8000fb0 <__cmpsf2+0x1c>
 8000fec:	f85d 0b04 	ldr.w	r0, [sp], #4
 8000ff0:	4770      	bx	lr
 8000ff2:	bf00      	nop

08000ff4 <__aeabi_cfrcmple>:
 8000ff4:	4684      	mov	ip, r0
 8000ff6:	4608      	mov	r0, r1
 8000ff8:	4661      	mov	r1, ip
 8000ffa:	e7ff      	b.n	8000ffc <__aeabi_cfcmpeq>

08000ffc <__aeabi_cfcmpeq>:
 8000ffc:	b50f      	push	{r0, r1, r2, r3, lr}
 8000ffe:	f7ff ffc9 	bl	8000f94 <__cmpsf2>
 8001002:	2800      	cmp	r0, #0
 8001004:	bf48      	it	mi
 8001006:	f110 0f00 	cmnmi.w	r0, #0
 800100a:	bd0f      	pop	{r0, r1, r2, r3, pc}

0800100c <__aeabi_fcmpeq>:
 800100c:	f84d ed08 	str.w	lr, [sp, #-8]!
 8001010:	f7ff fff4 	bl	8000ffc <__aeabi_cfcmpeq>
 8001014:	bf0c      	ite	eq
 8001016:	2001      	moveq	r0, #1
 8001018:	2000      	movne	r0, #0
 800101a:	f85d fb08 	ldr.w	pc, [sp], #8
 800101e:	bf00      	nop

08001020 <__aeabi_fcmplt>:
 8001020:	f84d ed08 	str.w	lr, [sp, #-8]!
 8001024:	f7ff ffea 	bl	8000ffc <__aeabi_cfcmpeq>
 8001028:	bf34      	ite	cc
 800102a:	2001      	movcc	r0, #1
 800102c:	2000      	movcs	r0, #0
 800102e:	f85d fb08 	ldr.w	pc, [sp], #8
 8001032:	bf00      	nop

08001034 <__aeabi_fcmple>:
 8001034:	f84d ed08 	str.w	lr, [sp, #-8]!
 8001038:	f7ff ffe0 	bl	8000ffc <__aeabi_cfcmpeq>
 800103c:	bf94      	ite	ls
 800103e:	2001      	movls	r0, #1
 8001040:	2000      	movhi	r0, #0
 8001042:	f85d fb08 	ldr.w	pc, [sp], #8
 8001046:	bf00      	nop

08001048 <__aeabi_fcmpge>:
 8001048:	f84d ed08 	str.w	lr, [sp, #-8]!
 800104c:	f7ff ffd2 	bl	8000ff4 <__aeabi_cfrcmple>
 8001050:	bf94      	ite	ls
 8001052:	2001      	movls	r0, #1
 8001054:	2000      	movhi	r0, #0
 8001056:	f85d fb08 	ldr.w	pc, [sp], #8
 800105a:	bf00      	nop

0800105c <__aeabi_fcmpgt>:
 800105c:	f84d ed08 	str.w	lr, [sp, #-8]!
 8001060:	f7ff ffc8 	bl	8000ff4 <__aeabi_cfrcmple>
 8001064:	bf34      	ite	cc
 8001066:	2001      	movcc	r0, #1
 8001068:	2000      	movcs	r0, #0
 800106a:	f85d fb08 	ldr.w	pc, [sp], #8
 800106e:	bf00      	nop

08001070 <__aeabi_f2uiz>:
 8001070:	0042      	lsls	r2, r0, #1
 8001072:	d20e      	bcs.n	8001092 <__aeabi_f2uiz+0x22>
 8001074:	f1b2 4ffe 	cmp.w	r2, #2130706432	; 0x7f000000
 8001078:	d30b      	bcc.n	8001092 <__aeabi_f2uiz+0x22>
 800107a:	f04f 039e 	mov.w	r3, #158	; 0x9e
 800107e:	ebb3 6212 	subs.w	r2, r3, r2, lsr #24
 8001082:	d409      	bmi.n	8001098 <__aeabi_f2uiz+0x28>
 8001084:	ea4f 2300 	mov.w	r3, r0, lsl #8
 8001088:	f043 4300 	orr.w	r3, r3, #2147483648	; 0x80000000
 800108c:	fa23 f002 	lsr.w	r0, r3, r2
 8001090:	4770      	bx	lr
 8001092:	f04f 0000 	mov.w	r0, #0
 8001096:	4770      	bx	lr
 8001098:	f112 0f61 	cmn.w	r2, #97	; 0x61
 800109c:	d101      	bne.n	80010a2 <__aeabi_f2uiz+0x32>
 800109e:	0242      	lsls	r2, r0, #9
 80010a0:	d102      	bne.n	80010a8 <__aeabi_f2uiz+0x38>
 80010a2:	f04f 30ff 	mov.w	r0, #4294967295
 80010a6:	4770      	bx	lr
 80010a8:	f04f 0000 	mov.w	r0, #0
 80010ac:	4770      	bx	lr
 80010ae:	bf00      	nop

080010b0 <SBR1_init>:
//static const float theta_NS_p[] = { -0.5000f, -0.3000f, 0.0000f };
//static const float theta_ZE_p[] = { -0.3000f, 0.0000f, 0.3000f };
//static const float theta_PS_p[] = { 0.0000f, 0.3000f, 0.5000f };
//static const float theta_PB_p[] = { 0.3000f, 0.5000f, 1.0000f, 3.0000f };

void SBR1_init( void ){
 80010b0:	b580      	push	{r7, lr}
 80010b2:	b08a      	sub	sp, #40	; 0x28
 80010b4:	af0a      	add	r7, sp, #40	; 0x28
    /* Set inputs */
    qFIS_InputSetup( SBR1_inputs, theta, -1.0000f, 1.0000f );
 80010b6:	f04f 537e 	mov.w	r3, #1065353216	; 0x3f800000
 80010ba:	4a8d      	ldr	r2, [pc, #564]	; (80012f0 <SBR1_init+0x240>)
 80010bc:	2100      	movs	r1, #0
 80010be:	488d      	ldr	r0, [pc, #564]	; (80012f4 <SBR1_init+0x244>)
 80010c0:	f001 fc70 	bl	80029a4 <qFIS_InputSetup>
    qFIS_InputSetup( SBR1_inputs, thetadot, -1.0000f, 1.0000f );
 80010c4:	f04f 537e 	mov.w	r3, #1065353216	; 0x3f800000
 80010c8:	4a89      	ldr	r2, [pc, #548]	; (80012f0 <SBR1_init+0x240>)
 80010ca:	2101      	movs	r1, #1
 80010cc:	4889      	ldr	r0, [pc, #548]	; (80012f4 <SBR1_init+0x244>)
 80010ce:	f001 fc69 	bl	80029a4 <qFIS_InputSetup>
    /* Set outputs */
    qFIS_OutputSetup( SBR1_outputs, u, -1.0000f, 1.0000f );
 80010d2:	f04f 537e 	mov.w	r3, #1065353216	; 0x3f800000
 80010d6:	4a86      	ldr	r2, [pc, #536]	; (80012f0 <SBR1_init+0x240>)
 80010d8:	2100      	movs	r1, #0
 80010da:	4887      	ldr	r0, [pc, #540]	; (80012f8 <SBR1_init+0x248>)
 80010dc:	f001 fc8d 	bl	80029fa <qFIS_OutputSetup>
    /* Set membership functions for the inputs */
    qFIS_SetMF( MFin, theta, theta_NB, trapmf, NULL, theta_NB_p, 1.0f );
 80010e0:	f04f 537e 	mov.w	r3, #1065353216	; 0x3f800000
 80010e4:	9302      	str	r3, [sp, #8]
 80010e6:	4b85      	ldr	r3, [pc, #532]	; (80012fc <SBR1_init+0x24c>)
 80010e8:	9301      	str	r3, [sp, #4]
 80010ea:	2300      	movs	r3, #0
 80010ec:	9300      	str	r3, [sp, #0]
 80010ee:	2302      	movs	r3, #2
 80010f0:	2200      	movs	r2, #0
 80010f2:	2100      	movs	r1, #0
 80010f4:	4882      	ldr	r0, [pc, #520]	; (8001300 <SBR1_init+0x250>)
 80010f6:	f001 fd29 	bl	8002b4c <qFIS_SetMF>
    qFIS_SetMF( MFin, theta, theta_NS, trapmf, NULL, theta_NS_p, 1.0f );
 80010fa:	f04f 537e 	mov.w	r3, #1065353216	; 0x3f800000
 80010fe:	9302      	str	r3, [sp, #8]
 8001100:	4b80      	ldr	r3, [pc, #512]	; (8001304 <SBR1_init+0x254>)
 8001102:	9301      	str	r3, [sp, #4]
 8001104:	2300      	movs	r3, #0
 8001106:	9300      	str	r3, [sp, #0]
 8001108:	2302      	movs	r3, #2
 800110a:	2201      	movs	r2, #1
 800110c:	2100      	movs	r1, #0
 800110e:	487c      	ldr	r0, [pc, #496]	; (8001300 <SBR1_init+0x250>)
 8001110:	f001 fd1c 	bl	8002b4c <qFIS_SetMF>
    qFIS_SetMF( MFin, theta, theta_ZE, trimf, NULL, theta_ZE_p, 1.0f );
 8001114:	f04f 537e 	mov.w	r3, #1065353216	; 0x3f800000
 8001118:	9302      	str	r3, [sp, #8]
 800111a:	4b7b      	ldr	r3, [pc, #492]	; (8001308 <SBR1_init+0x258>)
 800111c:	9301      	str	r3, [sp, #4]
 800111e:	2300      	movs	r3, #0
 8001120:	9300      	str	r3, [sp, #0]
 8001122:	2301      	movs	r3, #1
 8001124:	2202      	movs	r2, #2
 8001126:	2100      	movs	r1, #0
 8001128:	4875      	ldr	r0, [pc, #468]	; (8001300 <SBR1_init+0x250>)
 800112a:	f001 fd0f 	bl	8002b4c <qFIS_SetMF>
    qFIS_SetMF( MFin, theta, theta_PS, trapmf, NULL, theta_PS_p, 1.0f );
 800112e:	f04f 537e 	mov.w	r3, #1065353216	; 0x3f800000
 8001132:	9302      	str	r3, [sp, #8]
 8001134:	4b75      	ldr	r3, [pc, #468]	; (800130c <SBR1_init+0x25c>)
 8001136:	9301      	str	r3, [sp, #4]
 8001138:	2300      	movs	r3, #0
 800113a:	9300      	str	r3, [sp, #0]
 800113c:	2302      	movs	r3, #2
 800113e:	2203      	movs	r2, #3
 8001140:	2100      	movs	r1, #0
 8001142:	486f      	ldr	r0, [pc, #444]	; (8001300 <SBR1_init+0x250>)
 8001144:	f001 fd02 	bl	8002b4c <qFIS_SetMF>
    qFIS_SetMF( MFin, theta, theta_PB, trapmf, NULL, theta_PB_p, 1.0f );
 8001148:	f04f 537e 	mov.w	r3, #1065353216	; 0x3f800000
 800114c:	9302      	str	r3, [sp, #8]
 800114e:	4b70      	ldr	r3, [pc, #448]	; (8001310 <SBR1_init+0x260>)
 8001150:	9301      	str	r3, [sp, #4]
 8001152:	2300      	movs	r3, #0
 8001154:	9300      	str	r3, [sp, #0]
 8001156:	2302      	movs	r3, #2
 8001158:	2204      	movs	r2, #4
 800115a:	2100      	movs	r1, #0
 800115c:	4868      	ldr	r0, [pc, #416]	; (8001300 <SBR1_init+0x250>)
 800115e:	f001 fcf5 	bl	8002b4c <qFIS_SetMF>
    qFIS_SetMF( MFin, thetadot, thetadot_NB, trimf, NULL, thetadot_NB_p, 1.0f );
 8001162:	f04f 537e 	mov.w	r3, #1065353216	; 0x3f800000
 8001166:	9302      	str	r3, [sp, #8]
 8001168:	4b6a      	ldr	r3, [pc, #424]	; (8001314 <SBR1_init+0x264>)
 800116a:	9301      	str	r3, [sp, #4]
 800116c:	2300      	movs	r3, #0
 800116e:	9300      	str	r3, [sp, #0]
 8001170:	2301      	movs	r3, #1
 8001172:	2205      	movs	r2, #5
 8001174:	2101      	movs	r1, #1
 8001176:	4862      	ldr	r0, [pc, #392]	; (8001300 <SBR1_init+0x250>)
 8001178:	f001 fce8 	bl	8002b4c <qFIS_SetMF>
    qFIS_SetMF( MFin, thetadot, thetadot_NS, trimf, NULL, thetadot_NS_p, 1.0f );
 800117c:	f04f 537e 	mov.w	r3, #1065353216	; 0x3f800000
 8001180:	9302      	str	r3, [sp, #8]
 8001182:	4b65      	ldr	r3, [pc, #404]	; (8001318 <SBR1_init+0x268>)
 8001184:	9301      	str	r3, [sp, #4]
 8001186:	2300      	movs	r3, #0
 8001188:	9300      	str	r3, [sp, #0]
 800118a:	2301      	movs	r3, #1
 800118c:	2206      	movs	r2, #6
 800118e:	2101      	movs	r1, #1
 8001190:	485b      	ldr	r0, [pc, #364]	; (8001300 <SBR1_init+0x250>)
 8001192:	f001 fcdb 	bl	8002b4c <qFIS_SetMF>
    qFIS_SetMF( MFin, thetadot, thetadot_ZE, trimf, NULL, thetadot_ZE_p, 1.0f );
 8001196:	f04f 537e 	mov.w	r3, #1065353216	; 0x3f800000
 800119a:	9302      	str	r3, [sp, #8]
 800119c:	4b5f      	ldr	r3, [pc, #380]	; (800131c <SBR1_init+0x26c>)
 800119e:	9301      	str	r3, [sp, #4]
 80011a0:	2300      	movs	r3, #0
 80011a2:	9300      	str	r3, [sp, #0]
 80011a4:	2301      	movs	r3, #1
 80011a6:	2207      	movs	r2, #7
 80011a8:	2101      	movs	r1, #1
 80011aa:	4855      	ldr	r0, [pc, #340]	; (8001300 <SBR1_init+0x250>)
 80011ac:	f001 fcce 	bl	8002b4c <qFIS_SetMF>
    qFIS_SetMF( MFin, thetadot, thetadot_PS, trimf, NULL, thetadot_PS_p, 1.0f );
 80011b0:	f04f 537e 	mov.w	r3, #1065353216	; 0x3f800000
 80011b4:	9302      	str	r3, [sp, #8]
 80011b6:	4b5a      	ldr	r3, [pc, #360]	; (8001320 <SBR1_init+0x270>)
 80011b8:	9301      	str	r3, [sp, #4]
 80011ba:	2300      	movs	r3, #0
 80011bc:	9300      	str	r3, [sp, #0]
 80011be:	2301      	movs	r3, #1
 80011c0:	2208      	movs	r2, #8
 80011c2:	2101      	movs	r1, #1
 80011c4:	484e      	ldr	r0, [pc, #312]	; (8001300 <SBR1_init+0x250>)
 80011c6:	f001 fcc1 	bl	8002b4c <qFIS_SetMF>
    qFIS_SetMF( MFin, thetadot, thetadot_PB, trimf, NULL, thetadot_PB_p, 1.0f );
 80011ca:	f04f 537e 	mov.w	r3, #1065353216	; 0x3f800000
 80011ce:	9302      	str	r3, [sp, #8]
 80011d0:	4b54      	ldr	r3, [pc, #336]	; (8001324 <SBR1_init+0x274>)
 80011d2:	9301      	str	r3, [sp, #4]
 80011d4:	2300      	movs	r3, #0
 80011d6:	9300      	str	r3, [sp, #0]
 80011d8:	2301      	movs	r3, #1
 80011da:	2209      	movs	r2, #9
 80011dc:	2101      	movs	r1, #1
 80011de:	4848      	ldr	r0, [pc, #288]	; (8001300 <SBR1_init+0x250>)
 80011e0:	f001 fcb4 	bl	8002b4c <qFIS_SetMF>
    /* Set membership functions for the outputs */
    qFIS_SetMF( MFout, u, u_NB, constantmf, NULL, u_NB_p, 1.0f );
 80011e4:	f04f 537e 	mov.w	r3, #1065353216	; 0x3f800000
 80011e8:	9302      	str	r3, [sp, #8]
 80011ea:	4b4f      	ldr	r3, [pc, #316]	; (8001328 <SBR1_init+0x278>)
 80011ec:	9301      	str	r3, [sp, #4]
 80011ee:	2300      	movs	r3, #0
 80011f0:	9300      	str	r3, [sp, #0]
 80011f2:	2313      	movs	r3, #19
 80011f4:	2200      	movs	r2, #0
 80011f6:	2100      	movs	r1, #0
 80011f8:	484c      	ldr	r0, [pc, #304]	; (800132c <SBR1_init+0x27c>)
 80011fa:	f001 fca7 	bl	8002b4c <qFIS_SetMF>
    qFIS_SetMF( MFout, u, u_NM, constantmf, NULL, u_NM_p, 1.0f );
 80011fe:	f04f 537e 	mov.w	r3, #1065353216	; 0x3f800000
 8001202:	9302      	str	r3, [sp, #8]
 8001204:	4b4a      	ldr	r3, [pc, #296]	; (8001330 <SBR1_init+0x280>)
 8001206:	9301      	str	r3, [sp, #4]
 8001208:	2300      	movs	r3, #0
 800120a:	9300      	str	r3, [sp, #0]
 800120c:	2313      	movs	r3, #19
 800120e:	2201      	movs	r2, #1
 8001210:	2100      	movs	r1, #0
 8001212:	4846      	ldr	r0, [pc, #280]	; (800132c <SBR1_init+0x27c>)
 8001214:	f001 fc9a 	bl	8002b4c <qFIS_SetMF>
    qFIS_SetMF( MFout, u, u_NS, constantmf, NULL, u_NS_p, 1.0f );
 8001218:	f04f 537e 	mov.w	r3, #1065353216	; 0x3f800000
 800121c:	9302      	str	r3, [sp, #8]
 800121e:	4b45      	ldr	r3, [pc, #276]	; (8001334 <SBR1_init+0x284>)
 8001220:	9301      	str	r3, [sp, #4]
 8001222:	2300      	movs	r3, #0
 8001224:	9300      	str	r3, [sp, #0]
 8001226:	2313      	movs	r3, #19
 8001228:	2202      	movs	r2, #2
 800122a:	2100      	movs	r1, #0
 800122c:	483f      	ldr	r0, [pc, #252]	; (800132c <SBR1_init+0x27c>)
 800122e:	f001 fc8d 	bl	8002b4c <qFIS_SetMF>
    qFIS_SetMF( MFout, u, u_ZE, constantmf, NULL, u_ZE_p, 1.0f );
 8001232:	f04f 537e 	mov.w	r3, #1065353216	; 0x3f800000
 8001236:	9302      	str	r3, [sp, #8]
 8001238:	4b3f      	ldr	r3, [pc, #252]	; (8001338 <SBR1_init+0x288>)
 800123a:	9301      	str	r3, [sp, #4]
 800123c:	2300      	movs	r3, #0
 800123e:	9300      	str	r3, [sp, #0]
 8001240:	2313      	movs	r3, #19
 8001242:	2203      	movs	r2, #3
 8001244:	2100      	movs	r1, #0
 8001246:	4839      	ldr	r0, [pc, #228]	; (800132c <SBR1_init+0x27c>)
 8001248:	f001 fc80 	bl	8002b4c <qFIS_SetMF>
    qFIS_SetMF( MFout, u, u_PS, constantmf, NULL, u_PS_p, 1.0f );
 800124c:	f04f 537e 	mov.w	r3, #1065353216	; 0x3f800000
 8001250:	9302      	str	r3, [sp, #8]
 8001252:	4b3a      	ldr	r3, [pc, #232]	; (800133c <SBR1_init+0x28c>)
 8001254:	9301      	str	r3, [sp, #4]
 8001256:	2300      	movs	r3, #0
 8001258:	9300      	str	r3, [sp, #0]
 800125a:	2313      	movs	r3, #19
 800125c:	2204      	movs	r2, #4
 800125e:	2100      	movs	r1, #0
 8001260:	4832      	ldr	r0, [pc, #200]	; (800132c <SBR1_init+0x27c>)
 8001262:	f001 fc73 	bl	8002b4c <qFIS_SetMF>
    qFIS_SetMF( MFout, u, u_PM, constantmf, NULL, u_PM_p, 1.0f );
 8001266:	f04f 537e 	mov.w	r3, #1065353216	; 0x3f800000
 800126a:	9302      	str	r3, [sp, #8]
 800126c:	4b34      	ldr	r3, [pc, #208]	; (8001340 <SBR1_init+0x290>)
 800126e:	9301      	str	r3, [sp, #4]
 8001270:	2300      	movs	r3, #0
 8001272:	9300      	str	r3, [sp, #0]
 8001274:	2313      	movs	r3, #19
 8001276:	2205      	movs	r2, #5
 8001278:	2100      	movs	r1, #0
 800127a:	482c      	ldr	r0, [pc, #176]	; (800132c <SBR1_init+0x27c>)
 800127c:	f001 fc66 	bl	8002b4c <qFIS_SetMF>
    qFIS_SetMF( MFout, u, u_PB, constantmf, NULL, u_PB_p, 1.0f );
 8001280:	f04f 537e 	mov.w	r3, #1065353216	; 0x3f800000
 8001284:	9302      	str	r3, [sp, #8]
 8001286:	4b2f      	ldr	r3, [pc, #188]	; (8001344 <SBR1_init+0x294>)
 8001288:	9301      	str	r3, [sp, #4]
 800128a:	2300      	movs	r3, #0
 800128c:	9300      	str	r3, [sp, #0]
 800128e:	2313      	movs	r3, #19
 8001290:	2206      	movs	r2, #6
 8001292:	2100      	movs	r1, #0
 8001294:	4825      	ldr	r0, [pc, #148]	; (800132c <SBR1_init+0x27c>)
 8001296:	f001 fc59 	bl	8002b4c <qFIS_SetMF>

    /* Configure the Inference System */
    qFIS_Setup( &SBR1, Sugeno,
 800129a:	2319      	movs	r3, #25
 800129c:	9308      	str	r3, [sp, #32]
 800129e:	4b2a      	ldr	r3, [pc, #168]	; (8001348 <SBR1_init+0x298>)
 80012a0:	9307      	str	r3, [sp, #28]
 80012a2:	4b2a      	ldr	r3, [pc, #168]	; (800134c <SBR1_init+0x29c>)
 80012a4:	9306      	str	r3, [sp, #24]
 80012a6:	238c      	movs	r3, #140	; 0x8c
 80012a8:	9305      	str	r3, [sp, #20]
 80012aa:	4b20      	ldr	r3, [pc, #128]	; (800132c <SBR1_init+0x27c>)
 80012ac:	9304      	str	r3, [sp, #16]
 80012ae:	23c8      	movs	r3, #200	; 0xc8
 80012b0:	9303      	str	r3, [sp, #12]
 80012b2:	4b13      	ldr	r3, [pc, #76]	; (8001300 <SBR1_init+0x250>)
 80012b4:	9302      	str	r3, [sp, #8]
 80012b6:	2334      	movs	r3, #52	; 0x34
 80012b8:	9301      	str	r3, [sp, #4]
 80012ba:	4b0f      	ldr	r3, [pc, #60]	; (80012f8 <SBR1_init+0x248>)
 80012bc:	9300      	str	r3, [sp, #0]
 80012be:	2318      	movs	r3, #24
 80012c0:	4a0c      	ldr	r2, [pc, #48]	; (80012f4 <SBR1_init+0x244>)
 80012c2:	2101      	movs	r1, #1
 80012c4:	4822      	ldr	r0, [pc, #136]	; (8001350 <SBR1_init+0x2a0>)
 80012c6:	f001 fa95 	bl	80027f4 <qFIS_Setup>
                SBR1_inputs, sizeof(SBR1_inputs),
                SBR1_outputs, sizeof(SBR1_outputs),
                MFin, sizeof(MFin), MFout, sizeof(MFout),
                rules, rStrength, 25u );
    qFIS_SetParameter( &SBR1, qFIS_AND, qFIS_PROD );
 80012ca:	2201      	movs	r2, #1
 80012cc:	2102      	movs	r1, #2
 80012ce:	4820      	ldr	r0, [pc, #128]	; (8001350 <SBR1_init+0x2a0>)
 80012d0:	f001 fa1e 	bl	8002710 <qFIS_SetParameter>
    qFIS_SetParameter( &SBR1, qFIS_Implication, qFIS_PROD );
 80012d4:	2201      	movs	r2, #1
 80012d6:	2100      	movs	r1, #0
 80012d8:	481d      	ldr	r0, [pc, #116]	; (8001350 <SBR1_init+0x2a0>)
 80012da:	f001 fa19 	bl	8002710 <qFIS_SetParameter>
    qFIS_SetParameter( &SBR1, qFIS_Aggregation, qFIS_SUM );
 80012de:	2204      	movs	r2, #4
 80012e0:	2101      	movs	r1, #1
 80012e2:	481b      	ldr	r0, [pc, #108]	; (8001350 <SBR1_init+0x2a0>)
 80012e4:	f001 fa14 	bl	8002710 <qFIS_SetParameter>
}
 80012e8:	bf00      	nop
 80012ea:	46bd      	mov	sp, r7
 80012ec:	bd80      	pop	{r7, pc}
 80012ee:	bf00      	nop
 80012f0:	bf800000 	.word	0xbf800000
 80012f4:	2000019c 	.word	0x2000019c
 80012f8:	200001b4 	.word	0x200001b4
 80012fc:	08008a28 	.word	0x08008a28
 8001300:	200001e8 	.word	0x200001e8
 8001304:	08008a38 	.word	0x08008a38
 8001308:	08008a48 	.word	0x08008a48
 800130c:	08008a54 	.word	0x08008a54
 8001310:	08008a64 	.word	0x08008a64
 8001314:	08008a74 	.word	0x08008a74
 8001318:	08008a80 	.word	0x08008a80
 800131c:	08008a8c 	.word	0x08008a8c
 8001320:	08008a98 	.word	0x08008a98
 8001324:	08008aa4 	.word	0x08008aa4
 8001328:	08008ab0 	.word	0x08008ab0
 800132c:	200002b0 	.word	0x200002b0
 8001330:	08008ab4 	.word	0x08008ab4
 8001334:	08008ab8 	.word	0x08008ab8
 8001338:	08008abc 	.word	0x08008abc
 800133c:	08008ac0 	.word	0x08008ac0
 8001340:	08008ac4 	.word	0x08008ac4
 8001344:	08008ac8 	.word	0x08008ac8
 8001348:	2000033c 	.word	0x2000033c
 800134c:	08008894 	.word	0x08008894
 8001350:	2000013c 	.word	0x2000013c

08001354 <SBR1_run>:

void SBR1_run( float *inputs, float *outputs ) {
 8001354:	b580      	push	{r7, lr}
 8001356:	b082      	sub	sp, #8
 8001358:	af00      	add	r7, sp, #0
 800135a:	6078      	str	r0, [r7, #4]
 800135c:	6039      	str	r1, [r7, #0]
    /* Set the crips inputs */
    qFIS_SetInput( SBR1_inputs, theta, inputs[ theta ] );
 800135e:	687b      	ldr	r3, [r7, #4]
 8001360:	681b      	ldr	r3, [r3, #0]
 8001362:	461a      	mov	r2, r3
 8001364:	2100      	movs	r1, #0
 8001366:	4811      	ldr	r0, [pc, #68]	; (80013ac <SBR1_run+0x58>)
 8001368:	f001 fbb4 	bl	8002ad4 <qFIS_SetInput>
    qFIS_SetInput( SBR1_inputs, thetadot, inputs[ thetadot ] );
 800136c:	687b      	ldr	r3, [r7, #4]
 800136e:	3304      	adds	r3, #4
 8001370:	681b      	ldr	r3, [r3, #0]
 8001372:	461a      	mov	r2, r3
 8001374:	2101      	movs	r1, #1
 8001376:	480d      	ldr	r0, [pc, #52]	; (80013ac <SBR1_run+0x58>)
 8001378:	f001 fbac 	bl	8002ad4 <qFIS_SetInput>

    qFIS_Fuzzify( &SBR1 );
 800137c:	480c      	ldr	r0, [pc, #48]	; (80013b0 <SBR1_run+0x5c>)
 800137e:	f001 fcc2 	bl	8002d06 <qFIS_Fuzzify>
    if ( qFIS_Inference( &SBR1 ) > 0 ) {
 8001382:	480b      	ldr	r0, [pc, #44]	; (80013b0 <SBR1_run+0x5c>)
 8001384:	f002 f8ee 	bl	8003564 <qFIS_Inference>
 8001388:	4603      	mov	r3, r0
 800138a:	2b00      	cmp	r3, #0
 800138c:	dd02      	ble.n	8001394 <SBR1_run+0x40>
        qFIS_DeFuzzify( &SBR1 );
 800138e:	4808      	ldr	r0, [pc, #32]	; (80013b0 <SBR1_run+0x5c>)
 8001390:	f001 ffa3 	bl	80032da <qFIS_DeFuzzify>
    else {
        /* Error! */
    }

    /* Get the crips outputs */
    outputs[ u ] = qFIS_GetOutput( SBR1_outputs, u );
 8001394:	2100      	movs	r1, #0
 8001396:	4807      	ldr	r0, [pc, #28]	; (80013b4 <SBR1_run+0x60>)
 8001398:	f001 fbbc 	bl	8002b14 <qFIS_GetOutput>
 800139c:	4602      	mov	r2, r0
 800139e:	683b      	ldr	r3, [r7, #0]
 80013a0:	601a      	str	r2, [r3, #0]
}
 80013a2:	bf00      	nop
 80013a4:	3708      	adds	r7, #8
 80013a6:	46bd      	mov	sp, r7
 80013a8:	bd80      	pop	{r7, pc}
 80013aa:	bf00      	nop
 80013ac:	2000019c 	.word	0x2000019c
 80013b0:	2000013c 	.word	0x2000013c
 80013b4:	200001b4 	.word	0x200001b4

080013b8 <HAL_TIM_PeriodElapsedCallback>:
/* USER CODE END PFP */

/* Private user code ---------------------------------------------------------*/
/* USER CODE BEGIN 0 */
void HAL_TIM_PeriodElapsedCallback(TIM_HandleTypeDef *htim)
{
 80013b8:	b480      	push	{r7}
 80013ba:	b083      	sub	sp, #12
 80013bc:	af00      	add	r7, sp, #0
 80013be:	6078      	str	r0, [r7, #4]
	if(htim->Instance==TIM1)
 80013c0:	687b      	ldr	r3, [r7, #4]
 80013c2:	681b      	ldr	r3, [r3, #0]
 80013c4:	4a05      	ldr	r2, [pc, #20]	; (80013dc <HAL_TIM_PeriodElapsedCallback+0x24>)
 80013c6:	4293      	cmp	r3, r2
 80013c8:	d102      	bne.n	80013d0 <HAL_TIM_PeriodElapsedCallback+0x18>
	{
		u8_flag_10ms = 1;
 80013ca:	4b05      	ldr	r3, [pc, #20]	; (80013e0 <HAL_TIM_PeriodElapsedCallback+0x28>)
 80013cc:	2201      	movs	r2, #1
 80013ce:	701a      	strb	r2, [r3, #0]
	}
}
 80013d0:	bf00      	nop
 80013d2:	370c      	adds	r7, #12
 80013d4:	46bd      	mov	sp, r7
 80013d6:	bc80      	pop	{r7}
 80013d8:	4770      	bx	lr
 80013da:	bf00      	nop
 80013dc:	40012c00 	.word	0x40012c00
 80013e0:	200003a0 	.word	0x200003a0

080013e4 <HAL_UART_RxCpltCallback>:

void HAL_UART_RxCpltCallback(UART_HandleTypeDef *huart)
{
 80013e4:	b480      	push	{r7}
 80013e6:	b083      	sub	sp, #12
 80013e8:	af00      	add	r7, sp, #0
 80013ea:	6078      	str	r0, [r7, #4]
//
//		}
//		HAL_UART_Receive_IT(&huart1,&u8_rx_data,1);
	}

}
 80013ec:	bf00      	nop
 80013ee:	370c      	adds	r7, #12
 80013f0:	46bd      	mov	sp, r7
 80013f2:	bc80      	pop	{r7}
 80013f4:	4770      	bx	lr
	...

080013f8 <main>:
/**
  * @brief  The application entry point.
  * @retval int
  */
int main(void)
{
 80013f8:	b5b0      	push	{r4, r5, r7, lr}
 80013fa:	b082      	sub	sp, #8
 80013fc:	af02      	add	r7, sp, #8
  /* USER CODE END 1 */

  /* MCU Configuration--------------------------------------------------------*/

  /* Reset of all peripherals, Initializes the Flash interface and the Systick. */
  HAL_Init();
 80013fe:	f003 fb4d 	bl	8004a9c <HAL_Init>

  /* USER CODE BEGIN Init */
	 SBR1_init();
 8001402:	f7ff fe55 	bl	80010b0 <SBR1_init>
  /* USER CODE END Init */

  /* Configure the system clock */
  SystemClock_Config();
 8001406:	f000 f855 	bl	80014b4 <SystemClock_Config>
  /* USER CODE BEGIN SysInit */

  /* USER CODE END SysInit */

  /* Initialize all configured peripherals */
  MX_GPIO_Init();
 800140a:	f000 f9ff 	bl	800180c <MX_GPIO_Init>
  MX_I2C1_Init();
 800140e:	f000 f88d 	bl	800152c <MX_I2C1_Init>
  MX_TIM1_Init();
 8001412:	f000 f8b9 	bl	8001588 <MX_TIM1_Init>
  MX_TIM3_Init();
 8001416:	f000 f907 	bl	8001628 <MX_TIM3_Init>
  MX_TIM4_Init();
 800141a:	f000 f969 	bl	80016f0 <MX_TIM4_Init>
  MX_USART1_UART_Init();
 800141e:	f000 f9cb 	bl	80017b8 <MX_USART1_UART_Init>
  /* USER CODE BEGIN 2 */
  HAL_UART_Receive_IT(&huart1,&u8_rx_data,1);
 8001422:	2201      	movs	r2, #1
 8001424:	491c      	ldr	r1, [pc, #112]	; (8001498 <main+0xa0>)
 8001426:	481d      	ldr	r0, [pc, #116]	; (800149c <main+0xa4>)
 8001428:	f006 fa6b 	bl	8007902 <HAL_UART_Receive_IT>
  HAL_TIM_Base_Start_IT(&htim1);
 800142c:	481c      	ldr	r0, [pc, #112]	; (80014a0 <main+0xa8>)
 800142e:	f005 fb21 	bl	8006a74 <HAL_TIM_Base_Start_IT>
  Init_tim_pwm();
 8001432:	f000 fab9 	bl	80019a8 <Init_tim_pwm>

  while (MPU6050_Init(&hi2c1) == 1);
 8001436:	bf00      	nop
 8001438:	481a      	ldr	r0, [pc, #104]	; (80014a4 <main+0xac>)
 800143a:	f000 fba9 	bl	8001b90 <MPU6050_Init>
 800143e:	4603      	mov	r3, r0
 8001440:	2b01      	cmp	r3, #1
 8001442:	d0f9      	beq.n	8001438 <main+0x40>
    /* USER CODE END WHILE */

    /* USER CODE BEGIN 3 */


	  if (u8_flag_10ms)
 8001444:	4b18      	ldr	r3, [pc, #96]	; (80014a8 <main+0xb0>)
 8001446:	781b      	ldrb	r3, [r3, #0]
 8001448:	2b00      	cmp	r3, #0
 800144a:	d0fb      	beq.n	8001444 <main+0x4c>
	  {
		  u8_flag_10ms = 0;
 800144c:	4b16      	ldr	r3, [pc, #88]	; (80014a8 <main+0xb0>)
 800144e:	2200      	movs	r2, #0
 8001450:	701a      	strb	r2, [r3, #0]
		  MPU6050_Read_All(&hi2c1,&t_MPU6050);
 8001452:	4916      	ldr	r1, [pc, #88]	; (80014ac <main+0xb4>)
 8001454:	4813      	ldr	r0, [pc, #76]	; (80014a4 <main+0xac>)
 8001456:	f000 fbf3 	bl	8001c40 <MPU6050_Read_All>
		  Controller (t_MPU6050.KalmanAngleY, t_MPU6050.Gy* RAD_TO_DEG, &t_fuzzy);
 800145a:	4b14      	ldr	r3, [pc, #80]	; (80014ac <main+0xb4>)
 800145c:	e9d3 4514 	ldrd	r4, r5, [r3, #80]	; 0x50
 8001460:	4b12      	ldr	r3, [pc, #72]	; (80014ac <main+0xb4>)
 8001462:	e9d3 010c 	ldrd	r0, r1, [r3, #48]	; 0x30
 8001466:	a30a      	add	r3, pc, #40	; (adr r3, 8001490 <main+0x98>)
 8001468:	e9d3 2300 	ldrd	r2, r3, [r3]
 800146c:	f7ff f82c 	bl	80004c8 <__aeabi_dmul>
 8001470:	4602      	mov	r2, r0
 8001472:	460b      	mov	r3, r1
 8001474:	4611      	mov	r1, r2
 8001476:	461a      	mov	r2, r3
 8001478:	4b0d      	ldr	r3, [pc, #52]	; (80014b0 <main+0xb8>)
 800147a:	9300      	str	r3, [sp, #0]
 800147c:	4613      	mov	r3, r2
 800147e:	460a      	mov	r2, r1
 8001480:	4620      	mov	r0, r4
 8001482:	4629      	mov	r1, r5
 8001484:	f000 fb0c 	bl	8001aa0 <Controller>
	  if (u8_flag_10ms)
 8001488:	e7dc      	b.n	8001444 <main+0x4c>
 800148a:	bf00      	nop
 800148c:	f3af 8000 	nop.w
 8001490:	1a63c1f8 	.word	0x1a63c1f8
 8001494:	404ca5dc 	.word	0x404ca5dc
 8001498:	200003b0 	.word	0x200003b0
 800149c:	200004f0 	.word	0x200004f0
 80014a0:	20000540 	.word	0x20000540
 80014a4:	200003fc 	.word	0x200003fc
 80014a8:	200003a0 	.word	0x200003a0
 80014ac:	20000498 	.word	0x20000498
 80014b0:	20000000 	.word	0x20000000

080014b4 <SystemClock_Config>:
/**
  * @brief System Clock Configuration
  * @retval None
  */
void SystemClock_Config(void)
{
 80014b4:	b580      	push	{r7, lr}
 80014b6:	b090      	sub	sp, #64	; 0x40
 80014b8:	af00      	add	r7, sp, #0
  RCC_OscInitTypeDef RCC_OscInitStruct = {0};
 80014ba:	f107 0318 	add.w	r3, r7, #24
 80014be:	2228      	movs	r2, #40	; 0x28
 80014c0:	2100      	movs	r1, #0
 80014c2:	4618      	mov	r0, r3
 80014c4:	f006 fe58 	bl	8008178 <memset>
  RCC_ClkInitTypeDef RCC_ClkInitStruct = {0};
 80014c8:	1d3b      	adds	r3, r7, #4
 80014ca:	2200      	movs	r2, #0
 80014cc:	601a      	str	r2, [r3, #0]
 80014ce:	605a      	str	r2, [r3, #4]
 80014d0:	609a      	str	r2, [r3, #8]
 80014d2:	60da      	str	r2, [r3, #12]
 80014d4:	611a      	str	r2, [r3, #16]

  /** Initializes the RCC Oscillators according to the specified parameters
  * in the RCC_OscInitTypeDef structure.
  */
  RCC_OscInitStruct.OscillatorType = RCC_OSCILLATORTYPE_HSI;
 80014d6:	2302      	movs	r3, #2
 80014d8:	61bb      	str	r3, [r7, #24]
  RCC_OscInitStruct.HSIState = RCC_HSI_ON;
 80014da:	2301      	movs	r3, #1
 80014dc:	62bb      	str	r3, [r7, #40]	; 0x28
  RCC_OscInitStruct.HSICalibrationValue = RCC_HSICALIBRATION_DEFAULT;
 80014de:	2310      	movs	r3, #16
 80014e0:	62fb      	str	r3, [r7, #44]	; 0x2c
  RCC_OscInitStruct.PLL.PLLState = RCC_PLL_NONE;
 80014e2:	2300      	movs	r3, #0
 80014e4:	637b      	str	r3, [r7, #52]	; 0x34
  if (HAL_RCC_OscConfig(&RCC_OscInitStruct) != HAL_OK)
 80014e6:	f107 0318 	add.w	r3, r7, #24
 80014ea:	4618      	mov	r0, r3
 80014ec:	f004 fe56 	bl	800619c <HAL_RCC_OscConfig>
 80014f0:	4603      	mov	r3, r0
 80014f2:	2b00      	cmp	r3, #0
 80014f4:	d001      	beq.n	80014fa <SystemClock_Config+0x46>
  {
    Error_Handler();
 80014f6:	f000 f9f5 	bl	80018e4 <Error_Handler>
  }
  /** Initializes the CPU, AHB and APB buses clocks
  */
  RCC_ClkInitStruct.ClockType = RCC_CLOCKTYPE_HCLK|RCC_CLOCKTYPE_SYSCLK
 80014fa:	230f      	movs	r3, #15
 80014fc:	607b      	str	r3, [r7, #4]
                              |RCC_CLOCKTYPE_PCLK1|RCC_CLOCKTYPE_PCLK2;
  RCC_ClkInitStruct.SYSCLKSource = RCC_SYSCLKSOURCE_HSI;
 80014fe:	2300      	movs	r3, #0
 8001500:	60bb      	str	r3, [r7, #8]
  RCC_ClkInitStruct.AHBCLKDivider = RCC_SYSCLK_DIV1;
 8001502:	2300      	movs	r3, #0
 8001504:	60fb      	str	r3, [r7, #12]
  RCC_ClkInitStruct.APB1CLKDivider = RCC_HCLK_DIV1;
 8001506:	2300      	movs	r3, #0
 8001508:	613b      	str	r3, [r7, #16]
  RCC_ClkInitStruct.APB2CLKDivider = RCC_HCLK_DIV1;
 800150a:	2300      	movs	r3, #0
 800150c:	617b      	str	r3, [r7, #20]

  if (HAL_RCC_ClockConfig(&RCC_ClkInitStruct, FLASH_LATENCY_0) != HAL_OK)
 800150e:	1d3b      	adds	r3, r7, #4
 8001510:	2100      	movs	r1, #0
 8001512:	4618      	mov	r0, r3
 8001514:	f005 f8c2 	bl	800669c <HAL_RCC_ClockConfig>
 8001518:	4603      	mov	r3, r0
 800151a:	2b00      	cmp	r3, #0
 800151c:	d001      	beq.n	8001522 <SystemClock_Config+0x6e>
  {
    Error_Handler();
 800151e:	f000 f9e1 	bl	80018e4 <Error_Handler>
  }
}
 8001522:	bf00      	nop
 8001524:	3740      	adds	r7, #64	; 0x40
 8001526:	46bd      	mov	sp, r7
 8001528:	bd80      	pop	{r7, pc}
	...

0800152c <MX_I2C1_Init>:
  * @brief I2C1 Initialization Function
  * @param None
  * @retval None
  */
static void MX_I2C1_Init(void)
{
 800152c:	b580      	push	{r7, lr}
 800152e:	af00      	add	r7, sp, #0
  /* USER CODE END I2C1_Init 0 */

  /* USER CODE BEGIN I2C1_Init 1 */

  /* USER CODE END I2C1_Init 1 */
  hi2c1.Instance = I2C1;
 8001530:	4b12      	ldr	r3, [pc, #72]	; (800157c <MX_I2C1_Init+0x50>)
 8001532:	4a13      	ldr	r2, [pc, #76]	; (8001580 <MX_I2C1_Init+0x54>)
 8001534:	601a      	str	r2, [r3, #0]
  hi2c1.Init.ClockSpeed = 100000;
 8001536:	4b11      	ldr	r3, [pc, #68]	; (800157c <MX_I2C1_Init+0x50>)
 8001538:	4a12      	ldr	r2, [pc, #72]	; (8001584 <MX_I2C1_Init+0x58>)
 800153a:	605a      	str	r2, [r3, #4]
  hi2c1.Init.DutyCycle = I2C_DUTYCYCLE_2;
 800153c:	4b0f      	ldr	r3, [pc, #60]	; (800157c <MX_I2C1_Init+0x50>)
 800153e:	2200      	movs	r2, #0
 8001540:	609a      	str	r2, [r3, #8]
  hi2c1.Init.OwnAddress1 = 0;
 8001542:	4b0e      	ldr	r3, [pc, #56]	; (800157c <MX_I2C1_Init+0x50>)
 8001544:	2200      	movs	r2, #0
 8001546:	60da      	str	r2, [r3, #12]
  hi2c1.Init.AddressingMode = I2C_ADDRESSINGMODE_7BIT;
 8001548:	4b0c      	ldr	r3, [pc, #48]	; (800157c <MX_I2C1_Init+0x50>)
 800154a:	f44f 4280 	mov.w	r2, #16384	; 0x4000
 800154e:	611a      	str	r2, [r3, #16]
  hi2c1.Init.DualAddressMode = I2C_DUALADDRESS_DISABLE;
 8001550:	4b0a      	ldr	r3, [pc, #40]	; (800157c <MX_I2C1_Init+0x50>)
 8001552:	2200      	movs	r2, #0
 8001554:	615a      	str	r2, [r3, #20]
  hi2c1.Init.OwnAddress2 = 0;
 8001556:	4b09      	ldr	r3, [pc, #36]	; (800157c <MX_I2C1_Init+0x50>)
 8001558:	2200      	movs	r2, #0
 800155a:	619a      	str	r2, [r3, #24]
  hi2c1.Init.GeneralCallMode = I2C_GENERALCALL_DISABLE;
 800155c:	4b07      	ldr	r3, [pc, #28]	; (800157c <MX_I2C1_Init+0x50>)
 800155e:	2200      	movs	r2, #0
 8001560:	61da      	str	r2, [r3, #28]
  hi2c1.Init.NoStretchMode = I2C_NOSTRETCH_DISABLE;
 8001562:	4b06      	ldr	r3, [pc, #24]	; (800157c <MX_I2C1_Init+0x50>)
 8001564:	2200      	movs	r2, #0
 8001566:	621a      	str	r2, [r3, #32]
  if (HAL_I2C_Init(&hi2c1) != HAL_OK)
 8001568:	4804      	ldr	r0, [pc, #16]	; (800157c <MX_I2C1_Init+0x50>)
 800156a:	f003 fe29 	bl	80051c0 <HAL_I2C_Init>
 800156e:	4603      	mov	r3, r0
 8001570:	2b00      	cmp	r3, #0
 8001572:	d001      	beq.n	8001578 <MX_I2C1_Init+0x4c>
  {
    Error_Handler();
 8001574:	f000 f9b6 	bl	80018e4 <Error_Handler>
  }
  /* USER CODE BEGIN I2C1_Init 2 */

  /* USER CODE END I2C1_Init 2 */

}
 8001578:	bf00      	nop
 800157a:	bd80      	pop	{r7, pc}
 800157c:	200003fc 	.word	0x200003fc
 8001580:	40005400 	.word	0x40005400
 8001584:	000186a0 	.word	0x000186a0

08001588 <MX_TIM1_Init>:
  * @brief TIM1 Initialization Function
  * @param None
  * @retval None
  */
static void MX_TIM1_Init(void)
{
 8001588:	b580      	push	{r7, lr}
 800158a:	b086      	sub	sp, #24
 800158c:	af00      	add	r7, sp, #0

  /* USER CODE BEGIN TIM1_Init 0 */

  /* USER CODE END TIM1_Init 0 */

  TIM_ClockConfigTypeDef sClockSourceConfig = {0};
 800158e:	f107 0308 	add.w	r3, r7, #8
 8001592:	2200      	movs	r2, #0
 8001594:	601a      	str	r2, [r3, #0]
 8001596:	605a      	str	r2, [r3, #4]
 8001598:	609a      	str	r2, [r3, #8]
 800159a:	60da      	str	r2, [r3, #12]
  TIM_MasterConfigTypeDef sMasterConfig = {0};
 800159c:	463b      	mov	r3, r7
 800159e:	2200      	movs	r2, #0
 80015a0:	601a      	str	r2, [r3, #0]
 80015a2:	605a      	str	r2, [r3, #4]

  /* USER CODE BEGIN TIM1_Init 1 */

  /* USER CODE END TIM1_Init 1 */
  htim1.Instance = TIM1;
 80015a4:	4b1e      	ldr	r3, [pc, #120]	; (8001620 <MX_TIM1_Init+0x98>)
 80015a6:	4a1f      	ldr	r2, [pc, #124]	; (8001624 <MX_TIM1_Init+0x9c>)
 80015a8:	601a      	str	r2, [r3, #0]
  htim1.Init.Prescaler = 799;
 80015aa:	4b1d      	ldr	r3, [pc, #116]	; (8001620 <MX_TIM1_Init+0x98>)
 80015ac:	f240 321f 	movw	r2, #799	; 0x31f
 80015b0:	605a      	str	r2, [r3, #4]
  htim1.Init.CounterMode = TIM_COUNTERMODE_UP;
 80015b2:	4b1b      	ldr	r3, [pc, #108]	; (8001620 <MX_TIM1_Init+0x98>)
 80015b4:	2200      	movs	r2, #0
 80015b6:	609a      	str	r2, [r3, #8]
  htim1.Init.Period = 99;
 80015b8:	4b19      	ldr	r3, [pc, #100]	; (8001620 <MX_TIM1_Init+0x98>)
 80015ba:	2263      	movs	r2, #99	; 0x63
 80015bc:	60da      	str	r2, [r3, #12]
  htim1.Init.ClockDivision = TIM_CLOCKDIVISION_DIV1;
 80015be:	4b18      	ldr	r3, [pc, #96]	; (8001620 <MX_TIM1_Init+0x98>)
 80015c0:	2200      	movs	r2, #0
 80015c2:	611a      	str	r2, [r3, #16]
  htim1.Init.RepetitionCounter = 0;
 80015c4:	4b16      	ldr	r3, [pc, #88]	; (8001620 <MX_TIM1_Init+0x98>)
 80015c6:	2200      	movs	r2, #0
 80015c8:	615a      	str	r2, [r3, #20]
  htim1.Init.AutoReloadPreload = TIM_AUTORELOAD_PRELOAD_DISABLE;
 80015ca:	4b15      	ldr	r3, [pc, #84]	; (8001620 <MX_TIM1_Init+0x98>)
 80015cc:	2200      	movs	r2, #0
 80015ce:	619a      	str	r2, [r3, #24]
  if (HAL_TIM_Base_Init(&htim1) != HAL_OK)
 80015d0:	4813      	ldr	r0, [pc, #76]	; (8001620 <MX_TIM1_Init+0x98>)
 80015d2:	f005 f9ff 	bl	80069d4 <HAL_TIM_Base_Init>
 80015d6:	4603      	mov	r3, r0
 80015d8:	2b00      	cmp	r3, #0
 80015da:	d001      	beq.n	80015e0 <MX_TIM1_Init+0x58>
  {
    Error_Handler();
 80015dc:	f000 f982 	bl	80018e4 <Error_Handler>
  }
  sClockSourceConfig.ClockSource = TIM_CLOCKSOURCE_INTERNAL;
 80015e0:	f44f 5380 	mov.w	r3, #4096	; 0x1000
 80015e4:	60bb      	str	r3, [r7, #8]
  if (HAL_TIM_ConfigClockSource(&htim1, &sClockSourceConfig) != HAL_OK)
 80015e6:	f107 0308 	add.w	r3, r7, #8
 80015ea:	4619      	mov	r1, r3
 80015ec:	480c      	ldr	r0, [pc, #48]	; (8001620 <MX_TIM1_Init+0x98>)
 80015ee:	f005 fd4b 	bl	8007088 <HAL_TIM_ConfigClockSource>
 80015f2:	4603      	mov	r3, r0
 80015f4:	2b00      	cmp	r3, #0
 80015f6:	d001      	beq.n	80015fc <MX_TIM1_Init+0x74>
  {
    Error_Handler();
 80015f8:	f000 f974 	bl	80018e4 <Error_Handler>
  }
  sMasterConfig.MasterOutputTrigger = TIM_TRGO_RESET;
 80015fc:	2300      	movs	r3, #0
 80015fe:	603b      	str	r3, [r7, #0]
  sMasterConfig.MasterSlaveMode = TIM_MASTERSLAVEMODE_DISABLE;
 8001600:	2300      	movs	r3, #0
 8001602:	607b      	str	r3, [r7, #4]
  if (HAL_TIMEx_MasterConfigSynchronization(&htim1, &sMasterConfig) != HAL_OK)
 8001604:	463b      	mov	r3, r7
 8001606:	4619      	mov	r1, r3
 8001608:	4805      	ldr	r0, [pc, #20]	; (8001620 <MX_TIM1_Init+0x98>)
 800160a:	f006 f8bd 	bl	8007788 <HAL_TIMEx_MasterConfigSynchronization>
 800160e:	4603      	mov	r3, r0
 8001610:	2b00      	cmp	r3, #0
 8001612:	d001      	beq.n	8001618 <MX_TIM1_Init+0x90>
  {
    Error_Handler();
 8001614:	f000 f966 	bl	80018e4 <Error_Handler>
  }
  /* USER CODE BEGIN TIM1_Init 2 */

  /* USER CODE END TIM1_Init 2 */

}
 8001618:	bf00      	nop
 800161a:	3718      	adds	r7, #24
 800161c:	46bd      	mov	sp, r7
 800161e:	bd80      	pop	{r7, pc}
 8001620:	20000540 	.word	0x20000540
 8001624:	40012c00 	.word	0x40012c00

08001628 <MX_TIM3_Init>:
  * @brief TIM3 Initialization Function
  * @param None
  * @retval None
  */
static void MX_TIM3_Init(void)
{
 8001628:	b580      	push	{r7, lr}
 800162a:	b08a      	sub	sp, #40	; 0x28
 800162c:	af00      	add	r7, sp, #0

  /* USER CODE BEGIN TIM3_Init 0 */

  /* USER CODE END TIM3_Init 0 */

  TIM_MasterConfigTypeDef sMasterConfig = {0};
 800162e:	f107 0320 	add.w	r3, r7, #32
 8001632:	2200      	movs	r2, #0
 8001634:	601a      	str	r2, [r3, #0]
 8001636:	605a      	str	r2, [r3, #4]
  TIM_OC_InitTypeDef sConfigOC = {0};
 8001638:	1d3b      	adds	r3, r7, #4
 800163a:	2200      	movs	r2, #0
 800163c:	601a      	str	r2, [r3, #0]
 800163e:	605a      	str	r2, [r3, #4]
 8001640:	609a      	str	r2, [r3, #8]
 8001642:	60da      	str	r2, [r3, #12]
 8001644:	611a      	str	r2, [r3, #16]
 8001646:	615a      	str	r2, [r3, #20]
 8001648:	619a      	str	r2, [r3, #24]

  /* USER CODE BEGIN TIM3_Init 1 */

  /* USER CODE END TIM3_Init 1 */
  htim3.Instance = TIM3;
 800164a:	4b27      	ldr	r3, [pc, #156]	; (80016e8 <MX_TIM3_Init+0xc0>)
 800164c:	4a27      	ldr	r2, [pc, #156]	; (80016ec <MX_TIM3_Init+0xc4>)
 800164e:	601a      	str	r2, [r3, #0]
  htim3.Init.Prescaler = 79;
 8001650:	4b25      	ldr	r3, [pc, #148]	; (80016e8 <MX_TIM3_Init+0xc0>)
 8001652:	224f      	movs	r2, #79	; 0x4f
 8001654:	605a      	str	r2, [r3, #4]
  htim3.Init.CounterMode = TIM_COUNTERMODE_UP;
 8001656:	4b24      	ldr	r3, [pc, #144]	; (80016e8 <MX_TIM3_Init+0xc0>)
 8001658:	2200      	movs	r2, #0
 800165a:	609a      	str	r2, [r3, #8]
  htim3.Init.Period = 1999;
 800165c:	4b22      	ldr	r3, [pc, #136]	; (80016e8 <MX_TIM3_Init+0xc0>)
 800165e:	f240 72cf 	movw	r2, #1999	; 0x7cf
 8001662:	60da      	str	r2, [r3, #12]
  htim3.Init.ClockDivision = TIM_CLOCKDIVISION_DIV1;
 8001664:	4b20      	ldr	r3, [pc, #128]	; (80016e8 <MX_TIM3_Init+0xc0>)
 8001666:	2200      	movs	r2, #0
 8001668:	611a      	str	r2, [r3, #16]
  htim3.Init.AutoReloadPreload = TIM_AUTORELOAD_PRELOAD_DISABLE;
 800166a:	4b1f      	ldr	r3, [pc, #124]	; (80016e8 <MX_TIM3_Init+0xc0>)
 800166c:	2200      	movs	r2, #0
 800166e:	619a      	str	r2, [r3, #24]
  if (HAL_TIM_PWM_Init(&htim3) != HAL_OK)
 8001670:	481d      	ldr	r0, [pc, #116]	; (80016e8 <MX_TIM3_Init+0xc0>)
 8001672:	f005 fa51 	bl	8006b18 <HAL_TIM_PWM_Init>
 8001676:	4603      	mov	r3, r0
 8001678:	2b00      	cmp	r3, #0
 800167a:	d001      	beq.n	8001680 <MX_TIM3_Init+0x58>
  {
    Error_Handler();
 800167c:	f000 f932 	bl	80018e4 <Error_Handler>
  }
  sMasterConfig.MasterOutputTrigger = TIM_TRGO_RESET;
 8001680:	2300      	movs	r3, #0
 8001682:	623b      	str	r3, [r7, #32]
  sMasterConfig.MasterSlaveMode = TIM_MASTERSLAVEMODE_DISABLE;
 8001684:	2300      	movs	r3, #0
 8001686:	627b      	str	r3, [r7, #36]	; 0x24
  if (HAL_TIMEx_MasterConfigSynchronization(&htim3, &sMasterConfig) != HAL_OK)
 8001688:	f107 0320 	add.w	r3, r7, #32
 800168c:	4619      	mov	r1, r3
 800168e:	4816      	ldr	r0, [pc, #88]	; (80016e8 <MX_TIM3_Init+0xc0>)
 8001690:	f006 f87a 	bl	8007788 <HAL_TIMEx_MasterConfigSynchronization>
 8001694:	4603      	mov	r3, r0
 8001696:	2b00      	cmp	r3, #0
 8001698:	d001      	beq.n	800169e <MX_TIM3_Init+0x76>
  {
    Error_Handler();
 800169a:	f000 f923 	bl	80018e4 <Error_Handler>
  }
  sConfigOC.OCMode = TIM_OCMODE_PWM1;
 800169e:	2360      	movs	r3, #96	; 0x60
 80016a0:	607b      	str	r3, [r7, #4]
  sConfigOC.Pulse = 0;
 80016a2:	2300      	movs	r3, #0
 80016a4:	60bb      	str	r3, [r7, #8]
  sConfigOC.OCPolarity = TIM_OCPOLARITY_HIGH;
 80016a6:	2300      	movs	r3, #0
 80016a8:	60fb      	str	r3, [r7, #12]
  sConfigOC.OCFastMode = TIM_OCFAST_DISABLE;
 80016aa:	2300      	movs	r3, #0
 80016ac:	617b      	str	r3, [r7, #20]
  if (HAL_TIM_PWM_ConfigChannel(&htim3, &sConfigOC, TIM_CHANNEL_1) != HAL_OK)
 80016ae:	1d3b      	adds	r3, r7, #4
 80016b0:	2200      	movs	r2, #0
 80016b2:	4619      	mov	r1, r3
 80016b4:	480c      	ldr	r0, [pc, #48]	; (80016e8 <MX_TIM3_Init+0xc0>)
 80016b6:	f005 fc29 	bl	8006f0c <HAL_TIM_PWM_ConfigChannel>
 80016ba:	4603      	mov	r3, r0
 80016bc:	2b00      	cmp	r3, #0
 80016be:	d001      	beq.n	80016c4 <MX_TIM3_Init+0x9c>
  {
    Error_Handler();
 80016c0:	f000 f910 	bl	80018e4 <Error_Handler>
  }
  if (HAL_TIM_PWM_ConfigChannel(&htim3, &sConfigOC, TIM_CHANNEL_2) != HAL_OK)
 80016c4:	1d3b      	adds	r3, r7, #4
 80016c6:	2204      	movs	r2, #4
 80016c8:	4619      	mov	r1, r3
 80016ca:	4807      	ldr	r0, [pc, #28]	; (80016e8 <MX_TIM3_Init+0xc0>)
 80016cc:	f005 fc1e 	bl	8006f0c <HAL_TIM_PWM_ConfigChannel>
 80016d0:	4603      	mov	r3, r0
 80016d2:	2b00      	cmp	r3, #0
 80016d4:	d001      	beq.n	80016da <MX_TIM3_Init+0xb2>
  {
    Error_Handler();
 80016d6:	f000 f905 	bl	80018e4 <Error_Handler>
  }
  /* USER CODE BEGIN TIM3_Init 2 */

  /* USER CODE END TIM3_Init 2 */
  HAL_TIM_MspPostInit(&htim3);
 80016da:	4803      	ldr	r0, [pc, #12]	; (80016e8 <MX_TIM3_Init+0xc0>)
 80016dc:	f003 f8bc 	bl	8004858 <HAL_TIM_MspPostInit>

}
 80016e0:	bf00      	nop
 80016e2:	3728      	adds	r7, #40	; 0x28
 80016e4:	46bd      	mov	sp, r7
 80016e6:	bd80      	pop	{r7, pc}
 80016e8:	20000450 	.word	0x20000450
 80016ec:	40000400 	.word	0x40000400

080016f0 <MX_TIM4_Init>:
  * @brief TIM4 Initialization Function
  * @param None
  * @retval None
  */
static void MX_TIM4_Init(void)
{
 80016f0:	b580      	push	{r7, lr}
 80016f2:	b08a      	sub	sp, #40	; 0x28
 80016f4:	af00      	add	r7, sp, #0

  /* USER CODE BEGIN TIM4_Init 0 */

  /* USER CODE END TIM4_Init 0 */

  TIM_MasterConfigTypeDef sMasterConfig = {0};
 80016f6:	f107 0320 	add.w	r3, r7, #32
 80016fa:	2200      	movs	r2, #0
 80016fc:	601a      	str	r2, [r3, #0]
 80016fe:	605a      	str	r2, [r3, #4]
  TIM_OC_InitTypeDef sConfigOC = {0};
 8001700:	1d3b      	adds	r3, r7, #4
 8001702:	2200      	movs	r2, #0
 8001704:	601a      	str	r2, [r3, #0]
 8001706:	605a      	str	r2, [r3, #4]
 8001708:	609a      	str	r2, [r3, #8]
 800170a:	60da      	str	r2, [r3, #12]
 800170c:	611a      	str	r2, [r3, #16]
 800170e:	615a      	str	r2, [r3, #20]
 8001710:	619a      	str	r2, [r3, #24]

  /* USER CODE BEGIN TIM4_Init 1 */

  /* USER CODE END TIM4_Init 1 */
  htim4.Instance = TIM4;
 8001712:	4b27      	ldr	r3, [pc, #156]	; (80017b0 <MX_TIM4_Init+0xc0>)
 8001714:	4a27      	ldr	r2, [pc, #156]	; (80017b4 <MX_TIM4_Init+0xc4>)
 8001716:	601a      	str	r2, [r3, #0]
  htim4.Init.Prescaler = 79;
 8001718:	4b25      	ldr	r3, [pc, #148]	; (80017b0 <MX_TIM4_Init+0xc0>)
 800171a:	224f      	movs	r2, #79	; 0x4f
 800171c:	605a      	str	r2, [r3, #4]
  htim4.Init.CounterMode = TIM_COUNTERMODE_UP;
 800171e:	4b24      	ldr	r3, [pc, #144]	; (80017b0 <MX_TIM4_Init+0xc0>)
 8001720:	2200      	movs	r2, #0
 8001722:	609a      	str	r2, [r3, #8]
  htim4.Init.Period = 1999;
 8001724:	4b22      	ldr	r3, [pc, #136]	; (80017b0 <MX_TIM4_Init+0xc0>)
 8001726:	f240 72cf 	movw	r2, #1999	; 0x7cf
 800172a:	60da      	str	r2, [r3, #12]
  htim4.Init.ClockDivision = TIM_CLOCKDIVISION_DIV1;
 800172c:	4b20      	ldr	r3, [pc, #128]	; (80017b0 <MX_TIM4_Init+0xc0>)
 800172e:	2200      	movs	r2, #0
 8001730:	611a      	str	r2, [r3, #16]
  htim4.Init.AutoReloadPreload = TIM_AUTORELOAD_PRELOAD_DISABLE;
 8001732:	4b1f      	ldr	r3, [pc, #124]	; (80017b0 <MX_TIM4_Init+0xc0>)
 8001734:	2200      	movs	r2, #0
 8001736:	619a      	str	r2, [r3, #24]
  if (HAL_TIM_PWM_Init(&htim4) != HAL_OK)
 8001738:	481d      	ldr	r0, [pc, #116]	; (80017b0 <MX_TIM4_Init+0xc0>)
 800173a:	f005 f9ed 	bl	8006b18 <HAL_TIM_PWM_Init>
 800173e:	4603      	mov	r3, r0
 8001740:	2b00      	cmp	r3, #0
 8001742:	d001      	beq.n	8001748 <MX_TIM4_Init+0x58>
  {
    Error_Handler();
 8001744:	f000 f8ce 	bl	80018e4 <Error_Handler>
  }
  sMasterConfig.MasterOutputTrigger = TIM_TRGO_RESET;
 8001748:	2300      	movs	r3, #0
 800174a:	623b      	str	r3, [r7, #32]
  sMasterConfig.MasterSlaveMode = TIM_MASTERSLAVEMODE_DISABLE;
 800174c:	2300      	movs	r3, #0
 800174e:	627b      	str	r3, [r7, #36]	; 0x24
  if (HAL_TIMEx_MasterConfigSynchronization(&htim4, &sMasterConfig) != HAL_OK)
 8001750:	f107 0320 	add.w	r3, r7, #32
 8001754:	4619      	mov	r1, r3
 8001756:	4816      	ldr	r0, [pc, #88]	; (80017b0 <MX_TIM4_Init+0xc0>)
 8001758:	f006 f816 	bl	8007788 <HAL_TIMEx_MasterConfigSynchronization>
 800175c:	4603      	mov	r3, r0
 800175e:	2b00      	cmp	r3, #0
 8001760:	d001      	beq.n	8001766 <MX_TIM4_Init+0x76>
  {
    Error_Handler();
 8001762:	f000 f8bf 	bl	80018e4 <Error_Handler>
  }
  sConfigOC.OCMode = TIM_OCMODE_PWM1;
 8001766:	2360      	movs	r3, #96	; 0x60
 8001768:	607b      	str	r3, [r7, #4]
  sConfigOC.Pulse = 0;
 800176a:	2300      	movs	r3, #0
 800176c:	60bb      	str	r3, [r7, #8]
  sConfigOC.OCPolarity = TIM_OCPOLARITY_HIGH;
 800176e:	2300      	movs	r3, #0
 8001770:	60fb      	str	r3, [r7, #12]
  sConfigOC.OCFastMode = TIM_OCFAST_DISABLE;
 8001772:	2300      	movs	r3, #0
 8001774:	617b      	str	r3, [r7, #20]
  if (HAL_TIM_PWM_ConfigChannel(&htim4, &sConfigOC, TIM_CHANNEL_1) != HAL_OK)
 8001776:	1d3b      	adds	r3, r7, #4
 8001778:	2200      	movs	r2, #0
 800177a:	4619      	mov	r1, r3
 800177c:	480c      	ldr	r0, [pc, #48]	; (80017b0 <MX_TIM4_Init+0xc0>)
 800177e:	f005 fbc5 	bl	8006f0c <HAL_TIM_PWM_ConfigChannel>
 8001782:	4603      	mov	r3, r0
 8001784:	2b00      	cmp	r3, #0
 8001786:	d001      	beq.n	800178c <MX_TIM4_Init+0x9c>
  {
    Error_Handler();
 8001788:	f000 f8ac 	bl	80018e4 <Error_Handler>
  }
  if (HAL_TIM_PWM_ConfigChannel(&htim4, &sConfigOC, TIM_CHANNEL_2) != HAL_OK)
 800178c:	1d3b      	adds	r3, r7, #4
 800178e:	2204      	movs	r2, #4
 8001790:	4619      	mov	r1, r3
 8001792:	4807      	ldr	r0, [pc, #28]	; (80017b0 <MX_TIM4_Init+0xc0>)
 8001794:	f005 fbba 	bl	8006f0c <HAL_TIM_PWM_ConfigChannel>
 8001798:	4603      	mov	r3, r0
 800179a:	2b00      	cmp	r3, #0
 800179c:	d001      	beq.n	80017a2 <MX_TIM4_Init+0xb2>
  {
    Error_Handler();
 800179e:	f000 f8a1 	bl	80018e4 <Error_Handler>
  }
  /* USER CODE BEGIN TIM4_Init 2 */

  /* USER CODE END TIM4_Init 2 */
  HAL_TIM_MspPostInit(&htim4);
 80017a2:	4803      	ldr	r0, [pc, #12]	; (80017b0 <MX_TIM4_Init+0xc0>)
 80017a4:	f003 f858 	bl	8004858 <HAL_TIM_MspPostInit>

}
 80017a8:	bf00      	nop
 80017aa:	3728      	adds	r7, #40	; 0x28
 80017ac:	46bd      	mov	sp, r7
 80017ae:	bd80      	pop	{r7, pc}
 80017b0:	200003b4 	.word	0x200003b4
 80017b4:	40000800 	.word	0x40000800

080017b8 <MX_USART1_UART_Init>:
  * @brief USART1 Initialization Function
  * @param None
  * @retval None
  */
static void MX_USART1_UART_Init(void)
{
 80017b8:	b580      	push	{r7, lr}
 80017ba:	af00      	add	r7, sp, #0
  /* USER CODE END USART1_Init 0 */

  /* USER CODE BEGIN USART1_Init 1 */

  /* USER CODE END USART1_Init 1 */
  huart1.Instance = USART1;
 80017bc:	4b11      	ldr	r3, [pc, #68]	; (8001804 <MX_USART1_UART_Init+0x4c>)
 80017be:	4a12      	ldr	r2, [pc, #72]	; (8001808 <MX_USART1_UART_Init+0x50>)
 80017c0:	601a      	str	r2, [r3, #0]
  huart1.Init.BaudRate = 9600;
 80017c2:	4b10      	ldr	r3, [pc, #64]	; (8001804 <MX_USART1_UART_Init+0x4c>)
 80017c4:	f44f 5216 	mov.w	r2, #9600	; 0x2580
 80017c8:	605a      	str	r2, [r3, #4]
  huart1.Init.WordLength = UART_WORDLENGTH_8B;
 80017ca:	4b0e      	ldr	r3, [pc, #56]	; (8001804 <MX_USART1_UART_Init+0x4c>)
 80017cc:	2200      	movs	r2, #0
 80017ce:	609a      	str	r2, [r3, #8]
  huart1.Init.StopBits = UART_STOPBITS_1;
 80017d0:	4b0c      	ldr	r3, [pc, #48]	; (8001804 <MX_USART1_UART_Init+0x4c>)
 80017d2:	2200      	movs	r2, #0
 80017d4:	60da      	str	r2, [r3, #12]
  huart1.Init.Parity = UART_PARITY_NONE;
 80017d6:	4b0b      	ldr	r3, [pc, #44]	; (8001804 <MX_USART1_UART_Init+0x4c>)
 80017d8:	2200      	movs	r2, #0
 80017da:	611a      	str	r2, [r3, #16]
  huart1.Init.Mode = UART_MODE_TX_RX;
 80017dc:	4b09      	ldr	r3, [pc, #36]	; (8001804 <MX_USART1_UART_Init+0x4c>)
 80017de:	220c      	movs	r2, #12
 80017e0:	615a      	str	r2, [r3, #20]
  huart1.Init.HwFlowCtl = UART_HWCONTROL_NONE;
 80017e2:	4b08      	ldr	r3, [pc, #32]	; (8001804 <MX_USART1_UART_Init+0x4c>)
 80017e4:	2200      	movs	r2, #0
 80017e6:	619a      	str	r2, [r3, #24]
  huart1.Init.OverSampling = UART_OVERSAMPLING_16;
 80017e8:	4b06      	ldr	r3, [pc, #24]	; (8001804 <MX_USART1_UART_Init+0x4c>)
 80017ea:	2200      	movs	r2, #0
 80017ec:	61da      	str	r2, [r3, #28]
  if (HAL_UART_Init(&huart1) != HAL_OK)
 80017ee:	4805      	ldr	r0, [pc, #20]	; (8001804 <MX_USART1_UART_Init+0x4c>)
 80017f0:	f006 f83a 	bl	8007868 <HAL_UART_Init>
 80017f4:	4603      	mov	r3, r0
 80017f6:	2b00      	cmp	r3, #0
 80017f8:	d001      	beq.n	80017fe <MX_USART1_UART_Init+0x46>
  {
    Error_Handler();
 80017fa:	f000 f873 	bl	80018e4 <Error_Handler>
  }
  /* USER CODE BEGIN USART1_Init 2 */

  /* USER CODE END USART1_Init 2 */

}
 80017fe:	bf00      	nop
 8001800:	bd80      	pop	{r7, pc}
 8001802:	bf00      	nop
 8001804:	200004f0 	.word	0x200004f0
 8001808:	40013800 	.word	0x40013800

0800180c <MX_GPIO_Init>:
  * @brief GPIO Initialization Function
  * @param None
  * @retval None
  */
static void MX_GPIO_Init(void)
{
 800180c:	b580      	push	{r7, lr}
 800180e:	b088      	sub	sp, #32
 8001810:	af00      	add	r7, sp, #0
  GPIO_InitTypeDef GPIO_InitStruct = {0};
 8001812:	f107 0310 	add.w	r3, r7, #16
 8001816:	2200      	movs	r2, #0
 8001818:	601a      	str	r2, [r3, #0]
 800181a:	605a      	str	r2, [r3, #4]
 800181c:	609a      	str	r2, [r3, #8]
 800181e:	60da      	str	r2, [r3, #12]

  /* GPIO Ports Clock Enable */
  __HAL_RCC_GPIOC_CLK_ENABLE();
 8001820:	4b2d      	ldr	r3, [pc, #180]	; (80018d8 <MX_GPIO_Init+0xcc>)
 8001822:	699b      	ldr	r3, [r3, #24]
 8001824:	4a2c      	ldr	r2, [pc, #176]	; (80018d8 <MX_GPIO_Init+0xcc>)
 8001826:	f043 0310 	orr.w	r3, r3, #16
 800182a:	6193      	str	r3, [r2, #24]
 800182c:	4b2a      	ldr	r3, [pc, #168]	; (80018d8 <MX_GPIO_Init+0xcc>)
 800182e:	699b      	ldr	r3, [r3, #24]
 8001830:	f003 0310 	and.w	r3, r3, #16
 8001834:	60fb      	str	r3, [r7, #12]
 8001836:	68fb      	ldr	r3, [r7, #12]
  __HAL_RCC_GPIOD_CLK_ENABLE();
 8001838:	4b27      	ldr	r3, [pc, #156]	; (80018d8 <MX_GPIO_Init+0xcc>)
 800183a:	699b      	ldr	r3, [r3, #24]
 800183c:	4a26      	ldr	r2, [pc, #152]	; (80018d8 <MX_GPIO_Init+0xcc>)
 800183e:	f043 0320 	orr.w	r3, r3, #32
 8001842:	6193      	str	r3, [r2, #24]
 8001844:	4b24      	ldr	r3, [pc, #144]	; (80018d8 <MX_GPIO_Init+0xcc>)
 8001846:	699b      	ldr	r3, [r3, #24]
 8001848:	f003 0320 	and.w	r3, r3, #32
 800184c:	60bb      	str	r3, [r7, #8]
 800184e:	68bb      	ldr	r3, [r7, #8]
  __HAL_RCC_GPIOA_CLK_ENABLE();
 8001850:	4b21      	ldr	r3, [pc, #132]	; (80018d8 <MX_GPIO_Init+0xcc>)
 8001852:	699b      	ldr	r3, [r3, #24]
 8001854:	4a20      	ldr	r2, [pc, #128]	; (80018d8 <MX_GPIO_Init+0xcc>)
 8001856:	f043 0304 	orr.w	r3, r3, #4
 800185a:	6193      	str	r3, [r2, #24]
 800185c:	4b1e      	ldr	r3, [pc, #120]	; (80018d8 <MX_GPIO_Init+0xcc>)
 800185e:	699b      	ldr	r3, [r3, #24]
 8001860:	f003 0304 	and.w	r3, r3, #4
 8001864:	607b      	str	r3, [r7, #4]
 8001866:	687b      	ldr	r3, [r7, #4]
  __HAL_RCC_GPIOB_CLK_ENABLE();
 8001868:	4b1b      	ldr	r3, [pc, #108]	; (80018d8 <MX_GPIO_Init+0xcc>)
 800186a:	699b      	ldr	r3, [r3, #24]
 800186c:	4a1a      	ldr	r2, [pc, #104]	; (80018d8 <MX_GPIO_Init+0xcc>)
 800186e:	f043 0308 	orr.w	r3, r3, #8
 8001872:	6193      	str	r3, [r2, #24]
 8001874:	4b18      	ldr	r3, [pc, #96]	; (80018d8 <MX_GPIO_Init+0xcc>)
 8001876:	699b      	ldr	r3, [r3, #24]
 8001878:	f003 0308 	and.w	r3, r3, #8
 800187c:	603b      	str	r3, [r7, #0]
 800187e:	683b      	ldr	r3, [r7, #0]

  /*Configure GPIO pin Output Level */
  HAL_GPIO_WritePin(GPIOC, GPIO_PIN_13, GPIO_PIN_RESET);
 8001880:	2200      	movs	r2, #0
 8001882:	f44f 5100 	mov.w	r1, #8192	; 0x2000
 8001886:	4815      	ldr	r0, [pc, #84]	; (80018dc <MX_GPIO_Init+0xd0>)
 8001888:	f003 fc82 	bl	8005190 <HAL_GPIO_WritePin>

  /*Configure GPIO pin Output Level */
  HAL_GPIO_WritePin(GPIOA, GPIO_PIN_3|GPIO_PIN_5, GPIO_PIN_RESET);
 800188c:	2200      	movs	r2, #0
 800188e:	2128      	movs	r1, #40	; 0x28
 8001890:	4813      	ldr	r0, [pc, #76]	; (80018e0 <MX_GPIO_Init+0xd4>)
 8001892:	f003 fc7d 	bl	8005190 <HAL_GPIO_WritePin>

  /*Configure GPIO pin : PC13 */
  GPIO_InitStruct.Pin = GPIO_PIN_13;
 8001896:	f44f 5300 	mov.w	r3, #8192	; 0x2000
 800189a:	613b      	str	r3, [r7, #16]
  GPIO_InitStruct.Mode = GPIO_MODE_OUTPUT_PP;
 800189c:	2301      	movs	r3, #1
 800189e:	617b      	str	r3, [r7, #20]
  GPIO_InitStruct.Pull = GPIO_NOPULL;
 80018a0:	2300      	movs	r3, #0
 80018a2:	61bb      	str	r3, [r7, #24]
  GPIO_InitStruct.Speed = GPIO_SPEED_FREQ_LOW;
 80018a4:	2302      	movs	r3, #2
 80018a6:	61fb      	str	r3, [r7, #28]
  HAL_GPIO_Init(GPIOC, &GPIO_InitStruct);
 80018a8:	f107 0310 	add.w	r3, r7, #16
 80018ac:	4619      	mov	r1, r3
 80018ae:	480b      	ldr	r0, [pc, #44]	; (80018dc <MX_GPIO_Init+0xd0>)
 80018b0:	f003 fb14 	bl	8004edc <HAL_GPIO_Init>

  /*Configure GPIO pins : PA3 PA5 */
  GPIO_InitStruct.Pin = GPIO_PIN_3|GPIO_PIN_5;
 80018b4:	2328      	movs	r3, #40	; 0x28
 80018b6:	613b      	str	r3, [r7, #16]
  GPIO_InitStruct.Mode = GPIO_MODE_OUTPUT_PP;
 80018b8:	2301      	movs	r3, #1
 80018ba:	617b      	str	r3, [r7, #20]
  GPIO_InitStruct.Pull = GPIO_NOPULL;
 80018bc:	2300      	movs	r3, #0
 80018be:	61bb      	str	r3, [r7, #24]
  GPIO_InitStruct.Speed = GPIO_SPEED_FREQ_LOW;
 80018c0:	2302      	movs	r3, #2
 80018c2:	61fb      	str	r3, [r7, #28]
  HAL_GPIO_Init(GPIOA, &GPIO_InitStruct);
 80018c4:	f107 0310 	add.w	r3, r7, #16
 80018c8:	4619      	mov	r1, r3
 80018ca:	4805      	ldr	r0, [pc, #20]	; (80018e0 <MX_GPIO_Init+0xd4>)
 80018cc:	f003 fb06 	bl	8004edc <HAL_GPIO_Init>

}
 80018d0:	bf00      	nop
 80018d2:	3720      	adds	r7, #32
 80018d4:	46bd      	mov	sp, r7
 80018d6:	bd80      	pop	{r7, pc}
 80018d8:	40021000 	.word	0x40021000
 80018dc:	40011000 	.word	0x40011000
 80018e0:	40010800 	.word	0x40010800

080018e4 <Error_Handler>:
/**
  * @brief  This function is executed in case of error occurrence.
  * @retval None
  */
void Error_Handler(void)
{
 80018e4:	b480      	push	{r7}
 80018e6:	af00      	add	r7, sp, #0
  \details Disables IRQ interrupts by setting the I-bit in the CPSR.
           Can only be executed in Privileged modes.
 */
__STATIC_FORCEINLINE void __disable_irq(void)
{
  __ASM volatile ("cpsid i" : : : "memory");
 80018e8:	b672      	cpsid	i
  /* USER CODE BEGIN Error_Handler_Debug */
  /* User can add his own implementation to report the HAL error return state */
  __disable_irq();
  while (1)
 80018ea:	e7fe      	b.n	80018ea <Error_Handler+0x6>

080018ec <Limit_val>:
 *      Author: Hien Nguyen
 */

#include "motor.h"

static void Limit_val(float *value){
 80018ec:	b580      	push	{r7, lr}
 80018ee:	b082      	sub	sp, #8
 80018f0:	af00      	add	r7, sp, #0
 80018f2:	6078      	str	r0, [r7, #4]
	if(*value> VAL_MAX)  *value = VAL_MAX;
 80018f4:	687b      	ldr	r3, [r7, #4]
 80018f6:	681b      	ldr	r3, [r3, #0]
 80018f8:	f04f 517e 	mov.w	r1, #1065353216	; 0x3f800000
 80018fc:	4618      	mov	r0, r3
 80018fe:	f7ff fbad 	bl	800105c <__aeabi_fcmpgt>
 8001902:	4603      	mov	r3, r0
 8001904:	2b00      	cmp	r3, #0
 8001906:	d003      	beq.n	8001910 <Limit_val+0x24>
 8001908:	687b      	ldr	r3, [r7, #4]
 800190a:	f04f 527e 	mov.w	r2, #1065353216	; 0x3f800000
 800190e:	601a      	str	r2, [r3, #0]
	if(*value<-VAL_MAX) *value = -VAL_MAX;
 8001910:	687b      	ldr	r3, [r7, #4]
 8001912:	681b      	ldr	r3, [r3, #0]
 8001914:	4907      	ldr	r1, [pc, #28]	; (8001934 <Limit_val+0x48>)
 8001916:	4618      	mov	r0, r3
 8001918:	f7ff fb82 	bl	8001020 <__aeabi_fcmplt>
 800191c:	4603      	mov	r3, r0
 800191e:	2b00      	cmp	r3, #0
 8001920:	d100      	bne.n	8001924 <Limit_val+0x38>
}
 8001922:	e002      	b.n	800192a <Limit_val+0x3e>
	if(*value<-VAL_MAX) *value = -VAL_MAX;
 8001924:	687b      	ldr	r3, [r7, #4]
 8001926:	4a03      	ldr	r2, [pc, #12]	; (8001934 <Limit_val+0x48>)
 8001928:	601a      	str	r2, [r3, #0]
}
 800192a:	bf00      	nop
 800192c:	3708      	adds	r7, #8
 800192e:	46bd      	mov	sp, r7
 8001930:	bd80      	pop	{r7, pc}
 8001932:	bf00      	nop
 8001934:	bf800000 	.word	0xbf800000

08001938 <Set_duty>:

static void Set_duty(float duty, TIM_HandleTypeDef *htim, int channel){
 8001938:	b590      	push	{r4, r7, lr}
 800193a:	b085      	sub	sp, #20
 800193c:	af00      	add	r7, sp, #0
 800193e:	60f8      	str	r0, [r7, #12]
 8001940:	60b9      	str	r1, [r7, #8]
 8001942:	607a      	str	r2, [r7, #4]
	if (channel == 1){
 8001944:	687b      	ldr	r3, [r7, #4]
 8001946:	2b01      	cmp	r3, #1
 8001948:	d111      	bne.n	800196e <Set_duty+0x36>
		htim->Instance->CCR1 =  (duty*MAX_CNT) + MIN_CNT;
 800194a:	4915      	ldr	r1, [pc, #84]	; (80019a0 <Set_duty+0x68>)
 800194c:	68f8      	ldr	r0, [r7, #12]
 800194e:	f7ff f9c9 	bl	8000ce4 <__aeabi_fmul>
 8001952:	4603      	mov	r3, r0
 8001954:	4913      	ldr	r1, [pc, #76]	; (80019a4 <Set_duty+0x6c>)
 8001956:	4618      	mov	r0, r3
 8001958:	f7ff f8bc 	bl	8000ad4 <__addsf3>
 800195c:	4603      	mov	r3, r0
 800195e:	461a      	mov	r2, r3
 8001960:	68bb      	ldr	r3, [r7, #8]
 8001962:	681c      	ldr	r4, [r3, #0]
 8001964:	4610      	mov	r0, r2
 8001966:	f7ff fb83 	bl	8001070 <__aeabi_f2uiz>
 800196a:	4603      	mov	r3, r0
 800196c:	6363      	str	r3, [r4, #52]	; 0x34
	}
	if (channel == 2){
 800196e:	687b      	ldr	r3, [r7, #4]
 8001970:	2b02      	cmp	r3, #2
 8001972:	d111      	bne.n	8001998 <Set_duty+0x60>
		htim->Instance->CCR2 =  (duty*MAX_CNT) + MIN_CNT;
 8001974:	490a      	ldr	r1, [pc, #40]	; (80019a0 <Set_duty+0x68>)
 8001976:	68f8      	ldr	r0, [r7, #12]
 8001978:	f7ff f9b4 	bl	8000ce4 <__aeabi_fmul>
 800197c:	4603      	mov	r3, r0
 800197e:	4909      	ldr	r1, [pc, #36]	; (80019a4 <Set_duty+0x6c>)
 8001980:	4618      	mov	r0, r3
 8001982:	f7ff f8a7 	bl	8000ad4 <__addsf3>
 8001986:	4603      	mov	r3, r0
 8001988:	461a      	mov	r2, r3
 800198a:	68bb      	ldr	r3, [r7, #8]
 800198c:	681c      	ldr	r4, [r3, #0]
 800198e:	4610      	mov	r0, r2
 8001990:	f7ff fb6e 	bl	8001070 <__aeabi_f2uiz>
 8001994:	4603      	mov	r3, r0
 8001996:	63a3      	str	r3, [r4, #56]	; 0x38
	}
}
 8001998:	bf00      	nop
 800199a:	3714      	adds	r7, #20
 800199c:	46bd      	mov	sp, r7
 800199e:	bd90      	pop	{r4, r7, pc}
 80019a0:	44ed6000 	.word	0x44ed6000
 80019a4:	42c80000 	.word	0x42c80000

080019a8 <Init_tim_pwm>:

void Init_tim_pwm(){
 80019a8:	b580      	push	{r7, lr}
 80019aa:	af00      	add	r7, sp, #0
	HAL_TIM_PWM_Start(&htim3, TIM_CHANNEL_1);
 80019ac:	2100      	movs	r1, #0
 80019ae:	4808      	ldr	r0, [pc, #32]	; (80019d0 <Init_tim_pwm+0x28>)
 80019b0:	f005 f902 	bl	8006bb8 <HAL_TIM_PWM_Start>
	HAL_TIM_PWM_Start(&htim3, TIM_CHANNEL_2);
 80019b4:	2104      	movs	r1, #4
 80019b6:	4806      	ldr	r0, [pc, #24]	; (80019d0 <Init_tim_pwm+0x28>)
 80019b8:	f005 f8fe 	bl	8006bb8 <HAL_TIM_PWM_Start>
	HAL_TIM_PWM_Start(&htim4, TIM_CHANNEL_1);
 80019bc:	2100      	movs	r1, #0
 80019be:	4805      	ldr	r0, [pc, #20]	; (80019d4 <Init_tim_pwm+0x2c>)
 80019c0:	f005 f8fa 	bl	8006bb8 <HAL_TIM_PWM_Start>
	HAL_TIM_PWM_Start(&htim4, TIM_CHANNEL_2);
 80019c4:	2104      	movs	r1, #4
 80019c6:	4803      	ldr	r0, [pc, #12]	; (80019d4 <Init_tim_pwm+0x2c>)
 80019c8:	f005 f8f6 	bl	8006bb8 <HAL_TIM_PWM_Start>
}
 80019cc:	bf00      	nop
 80019ce:	bd80      	pop	{r7, pc}
 80019d0:	20000450 	.word	0x20000450
 80019d4:	200003b4 	.word	0x200003b4

080019d8 <Stop_motor>:

static void Stop_motor(){
 80019d8:	b580      	push	{r7, lr}
 80019da:	af00      	add	r7, sp, #0
	Set_duty(0, &htim3, 1);
 80019dc:	2201      	movs	r2, #1
 80019de:	490c      	ldr	r1, [pc, #48]	; (8001a10 <Stop_motor+0x38>)
 80019e0:	f04f 0000 	mov.w	r0, #0
 80019e4:	f7ff ffa8 	bl	8001938 <Set_duty>
	Set_duty(0, &htim3, 2);
 80019e8:	2202      	movs	r2, #2
 80019ea:	4909      	ldr	r1, [pc, #36]	; (8001a10 <Stop_motor+0x38>)
 80019ec:	f04f 0000 	mov.w	r0, #0
 80019f0:	f7ff ffa2 	bl	8001938 <Set_duty>
	Set_duty(0, &htim4, 1);
 80019f4:	2201      	movs	r2, #1
 80019f6:	4907      	ldr	r1, [pc, #28]	; (8001a14 <Stop_motor+0x3c>)
 80019f8:	f04f 0000 	mov.w	r0, #0
 80019fc:	f7ff ff9c 	bl	8001938 <Set_duty>
	Set_duty(0, &htim4, 2);
 8001a00:	2202      	movs	r2, #2
 8001a02:	4904      	ldr	r1, [pc, #16]	; (8001a14 <Stop_motor+0x3c>)
 8001a04:	f04f 0000 	mov.w	r0, #0
 8001a08:	f7ff ff96 	bl	8001938 <Set_duty>
}
 8001a0c:	bf00      	nop
 8001a0e:	bd80      	pop	{r7, pc}
 8001a10:	20000450 	.word	0x20000450
 8001a14:	200003b4 	.word	0x200003b4

08001a18 <Forward>:

void Forward (float duty){
 8001a18:	b580      	push	{r7, lr}
 8001a1a:	b082      	sub	sp, #8
 8001a1c:	af00      	add	r7, sp, #0
 8001a1e:	6078      	str	r0, [r7, #4]
	Set_duty(0, &htim3, 1);
 8001a20:	2201      	movs	r2, #1
 8001a22:	490c      	ldr	r1, [pc, #48]	; (8001a54 <Forward+0x3c>)
 8001a24:	f04f 0000 	mov.w	r0, #0
 8001a28:	f7ff ff86 	bl	8001938 <Set_duty>
	Set_duty(duty, &htim3, 2);
 8001a2c:	2202      	movs	r2, #2
 8001a2e:	4909      	ldr	r1, [pc, #36]	; (8001a54 <Forward+0x3c>)
 8001a30:	6878      	ldr	r0, [r7, #4]
 8001a32:	f7ff ff81 	bl	8001938 <Set_duty>
	Set_duty(0, &htim4, 1);
 8001a36:	2201      	movs	r2, #1
 8001a38:	4907      	ldr	r1, [pc, #28]	; (8001a58 <Forward+0x40>)
 8001a3a:	f04f 0000 	mov.w	r0, #0
 8001a3e:	f7ff ff7b 	bl	8001938 <Set_duty>
	Set_duty(duty, &htim4, 2);
 8001a42:	2202      	movs	r2, #2
 8001a44:	4904      	ldr	r1, [pc, #16]	; (8001a58 <Forward+0x40>)
 8001a46:	6878      	ldr	r0, [r7, #4]
 8001a48:	f7ff ff76 	bl	8001938 <Set_duty>
}
 8001a4c:	bf00      	nop
 8001a4e:	3708      	adds	r7, #8
 8001a50:	46bd      	mov	sp, r7
 8001a52:	bd80      	pop	{r7, pc}
 8001a54:	20000450 	.word	0x20000450
 8001a58:	200003b4 	.word	0x200003b4

08001a5c <Reverse>:

void Reverse (float duty){
 8001a5c:	b580      	push	{r7, lr}
 8001a5e:	b082      	sub	sp, #8
 8001a60:	af00      	add	r7, sp, #0
 8001a62:	6078      	str	r0, [r7, #4]
	Set_duty(duty, &htim3, 1);
 8001a64:	2201      	movs	r2, #1
 8001a66:	490c      	ldr	r1, [pc, #48]	; (8001a98 <Reverse+0x3c>)
 8001a68:	6878      	ldr	r0, [r7, #4]
 8001a6a:	f7ff ff65 	bl	8001938 <Set_duty>
	Set_duty(0, &htim3, 2);
 8001a6e:	2202      	movs	r2, #2
 8001a70:	4909      	ldr	r1, [pc, #36]	; (8001a98 <Reverse+0x3c>)
 8001a72:	f04f 0000 	mov.w	r0, #0
 8001a76:	f7ff ff5f 	bl	8001938 <Set_duty>
	Set_duty(duty, &htim4, 1);
 8001a7a:	2201      	movs	r2, #1
 8001a7c:	4907      	ldr	r1, [pc, #28]	; (8001a9c <Reverse+0x40>)
 8001a7e:	6878      	ldr	r0, [r7, #4]
 8001a80:	f7ff ff5a 	bl	8001938 <Set_duty>
	Set_duty(0, &htim4, 2);
 8001a84:	2202      	movs	r2, #2
 8001a86:	4905      	ldr	r1, [pc, #20]	; (8001a9c <Reverse+0x40>)
 8001a88:	f04f 0000 	mov.w	r0, #0
 8001a8c:	f7ff ff54 	bl	8001938 <Set_duty>
}
 8001a90:	bf00      	nop
 8001a92:	3708      	adds	r7, #8
 8001a94:	46bd      	mov	sp, r7
 8001a96:	bd80      	pop	{r7, pc}
 8001a98:	20000450 	.word	0x20000450
 8001a9c:	200003b4 	.word	0x200003b4

08001aa0 <Controller>:

void Controller (double new_angle, double vec_angle, Fuzzy_t *fuzzy){
 8001aa0:	b590      	push	{r4, r7, lr}
 8001aa2:	b085      	sub	sp, #20
 8001aa4:	af00      	add	r7, sp, #0
 8001aa6:	e9c7 0102 	strd	r0, r1, [r7, #8]
 8001aaa:	e9c7 2300 	strd	r2, r3, [r7]
//	if((new_angle>ANGLE_THRESHOLD)|(new_angle<(-1)*ANGLE_THRESHOLD)){
//			Stop_motor();
//			return;
//		}

	fuzzy->f_inp_fuzzy[0] = (new_angle- OFFSET)/fuzzy->f_K_theta;
 8001aae:	6a3b      	ldr	r3, [r7, #32]
 8001ab0:	68db      	ldr	r3, [r3, #12]
 8001ab2:	4618      	mov	r0, r3
 8001ab4:	f7fe fcb0 	bl	8000418 <__aeabi_f2d>
 8001ab8:	4603      	mov	r3, r0
 8001aba:	460c      	mov	r4, r1
 8001abc:	461a      	mov	r2, r3
 8001abe:	4623      	mov	r3, r4
 8001ac0:	e9d7 0102 	ldrd	r0, r1, [r7, #8]
 8001ac4:	f7fe fe2a 	bl	800071c <__aeabi_ddiv>
 8001ac8:	4603      	mov	r3, r0
 8001aca:	460c      	mov	r4, r1
 8001acc:	4618      	mov	r0, r3
 8001ace:	4621      	mov	r1, r4
 8001ad0:	f7fe ffaa 	bl	8000a28 <__aeabi_d2f>
 8001ad4:	4602      	mov	r2, r0
 8001ad6:	6a3b      	ldr	r3, [r7, #32]
 8001ad8:	601a      	str	r2, [r3, #0]
	Limit_val(&fuzzy->f_inp_fuzzy[0]);
 8001ada:	6a3b      	ldr	r3, [r7, #32]
 8001adc:	4618      	mov	r0, r3
 8001ade:	f7ff ff05 	bl	80018ec <Limit_val>
	fuzzy->f_inp_fuzzy[1] = vec_angle/fuzzy->f_K_theta_dot;
 8001ae2:	6a3b      	ldr	r3, [r7, #32]
 8001ae4:	691b      	ldr	r3, [r3, #16]
 8001ae6:	4618      	mov	r0, r3
 8001ae8:	f7fe fc96 	bl	8000418 <__aeabi_f2d>
 8001aec:	4603      	mov	r3, r0
 8001aee:	460c      	mov	r4, r1
 8001af0:	461a      	mov	r2, r3
 8001af2:	4623      	mov	r3, r4
 8001af4:	e9d7 0100 	ldrd	r0, r1, [r7]
 8001af8:	f7fe fe10 	bl	800071c <__aeabi_ddiv>
 8001afc:	4603      	mov	r3, r0
 8001afe:	460c      	mov	r4, r1
 8001b00:	4618      	mov	r0, r3
 8001b02:	4621      	mov	r1, r4
 8001b04:	f7fe ff90 	bl	8000a28 <__aeabi_d2f>
 8001b08:	4602      	mov	r2, r0
 8001b0a:	6a3b      	ldr	r3, [r7, #32]
 8001b0c:	605a      	str	r2, [r3, #4]
	Limit_val(&fuzzy->f_inp_fuzzy[1]);
 8001b0e:	6a3b      	ldr	r3, [r7, #32]
 8001b10:	3304      	adds	r3, #4
 8001b12:	4618      	mov	r0, r3
 8001b14:	f7ff feea 	bl	80018ec <Limit_val>
	SBR1_run(fuzzy->f_inp_fuzzy, &fuzzy->f_out_fuzzy);
 8001b18:	6a3a      	ldr	r2, [r7, #32]
 8001b1a:	6a3b      	ldr	r3, [r7, #32]
 8001b1c:	3308      	adds	r3, #8
 8001b1e:	4619      	mov	r1, r3
 8001b20:	4610      	mov	r0, r2
 8001b22:	f7ff fc17 	bl	8001354 <SBR1_run>
	Limit_val(&fuzzy->f_out_fuzzy);
 8001b26:	6a3b      	ldr	r3, [r7, #32]
 8001b28:	3308      	adds	r3, #8
 8001b2a:	4618      	mov	r0, r3
 8001b2c:	f7ff fede 	bl	80018ec <Limit_val>

	if ((new_angle- OFFSET) >= EPSILON){
 8001b30:	a313      	add	r3, pc, #76	; (adr r3, 8001b80 <Controller+0xe0>)
 8001b32:	e9d3 2300 	ldrd	r2, r3, [r3]
 8001b36:	e9d7 0102 	ldrd	r0, r1, [r7, #8]
 8001b3a:	f7fe ff4b 	bl	80009d4 <__aeabi_dcmpge>
 8001b3e:	4603      	mov	r3, r0
 8001b40:	2b00      	cmp	r3, #0
 8001b42:	d005      	beq.n	8001b50 <Controller+0xb0>
		Forward (fuzzy->f_out_fuzzy);
 8001b44:	6a3b      	ldr	r3, [r7, #32]
 8001b46:	689b      	ldr	r3, [r3, #8]
 8001b48:	4618      	mov	r0, r3
 8001b4a:	f7ff ff65 	bl	8001a18 <Forward>
		return;
 8001b4e:	e014      	b.n	8001b7a <Controller+0xda>
	}
	else if ((new_angle- OFFSET) <= -EPSILON){
 8001b50:	a30d      	add	r3, pc, #52	; (adr r3, 8001b88 <Controller+0xe8>)
 8001b52:	e9d3 2300 	ldrd	r2, r3, [r3]
 8001b56:	e9d7 0102 	ldrd	r0, r1, [r7, #8]
 8001b5a:	f7fe ff31 	bl	80009c0 <__aeabi_dcmple>
 8001b5e:	4603      	mov	r3, r0
 8001b60:	2b00      	cmp	r3, #0
 8001b62:	d007      	beq.n	8001b74 <Controller+0xd4>
		Reverse ((-1)*fuzzy->f_out_fuzzy);
 8001b64:	6a3b      	ldr	r3, [r7, #32]
 8001b66:	689b      	ldr	r3, [r3, #8]
 8001b68:	f083 4300 	eor.w	r3, r3, #2147483648	; 0x80000000
 8001b6c:	4618      	mov	r0, r3
 8001b6e:	f7ff ff75 	bl	8001a5c <Reverse>
		return;
 8001b72:	e002      	b.n	8001b7a <Controller+0xda>
	}
	else {
		Stop_motor();
 8001b74:	f7ff ff30 	bl	80019d8 <Stop_motor>
		return;
 8001b78:	bf00      	nop
	}


}
 8001b7a:	3714      	adds	r7, #20
 8001b7c:	46bd      	mov	sp, r7
 8001b7e:	bd90      	pop	{r4, r7, pc}
 8001b80:	33333333 	.word	0x33333333
 8001b84:	3fd33333 	.word	0x3fd33333
 8001b88:	33333333 	.word	0x33333333
 8001b8c:	bfd33333 	.word	0xbfd33333

08001b90 <MPU6050_Init>:
    .Q_bias = 0.003f,
    .R_measure = 0.03f,
};

uint8_t MPU6050_Init(I2C_HandleTypeDef *I2Cx)
{
 8001b90:	b580      	push	{r7, lr}
 8001b92:	b088      	sub	sp, #32
 8001b94:	af04      	add	r7, sp, #16
 8001b96:	6078      	str	r0, [r7, #4]
    uint8_t check;
    uint8_t Data;

    // check device ID WHO_AM_I

    HAL_I2C_Mem_Read(I2Cx, MPU6050_ADDR, WHO_AM_I_REG, 1, &check, 1, i2c_timeout);
 8001b98:	2364      	movs	r3, #100	; 0x64
 8001b9a:	9302      	str	r3, [sp, #8]
 8001b9c:	2301      	movs	r3, #1
 8001b9e:	9301      	str	r3, [sp, #4]
 8001ba0:	f107 030f 	add.w	r3, r7, #15
 8001ba4:	9300      	str	r3, [sp, #0]
 8001ba6:	2301      	movs	r3, #1
 8001ba8:	2275      	movs	r2, #117	; 0x75
 8001baa:	21d0      	movs	r1, #208	; 0xd0
 8001bac:	6878      	ldr	r0, [r7, #4]
 8001bae:	f003 fd39 	bl	8005624 <HAL_I2C_Mem_Read>

    if (check == 104) // 0x68 will be returned by the sensor if everything goes well
 8001bb2:	7bfb      	ldrb	r3, [r7, #15]
 8001bb4:	2b68      	cmp	r3, #104	; 0x68
 8001bb6:	d13d      	bne.n	8001c34 <MPU6050_Init+0xa4>
    {
        // power management register 0X6B we should write all 0's to wake the sensor up
        Data = 0;
 8001bb8:	2300      	movs	r3, #0
 8001bba:	73bb      	strb	r3, [r7, #14]
        HAL_I2C_Mem_Write(I2Cx, MPU6050_ADDR, PWR_MGMT_1_REG, 1, &Data, 1, i2c_timeout);
 8001bbc:	2364      	movs	r3, #100	; 0x64
 8001bbe:	9302      	str	r3, [sp, #8]
 8001bc0:	2301      	movs	r3, #1
 8001bc2:	9301      	str	r3, [sp, #4]
 8001bc4:	f107 030e 	add.w	r3, r7, #14
 8001bc8:	9300      	str	r3, [sp, #0]
 8001bca:	2301      	movs	r3, #1
 8001bcc:	226b      	movs	r2, #107	; 0x6b
 8001bce:	21d0      	movs	r1, #208	; 0xd0
 8001bd0:	6878      	ldr	r0, [r7, #4]
 8001bd2:	f003 fc2d 	bl	8005430 <HAL_I2C_Mem_Write>

        // Set DATA RATE of 1KHz by writing SMPLRT_DIV register
        Data = 0x07;
 8001bd6:	2307      	movs	r3, #7
 8001bd8:	73bb      	strb	r3, [r7, #14]
        HAL_I2C_Mem_Write(I2Cx, MPU6050_ADDR, SMPLRT_DIV_REG, 1, &Data, 1, i2c_timeout);
 8001bda:	2364      	movs	r3, #100	; 0x64
 8001bdc:	9302      	str	r3, [sp, #8]
 8001bde:	2301      	movs	r3, #1
 8001be0:	9301      	str	r3, [sp, #4]
 8001be2:	f107 030e 	add.w	r3, r7, #14
 8001be6:	9300      	str	r3, [sp, #0]
 8001be8:	2301      	movs	r3, #1
 8001bea:	2219      	movs	r2, #25
 8001bec:	21d0      	movs	r1, #208	; 0xd0
 8001bee:	6878      	ldr	r0, [r7, #4]
 8001bf0:	f003 fc1e 	bl	8005430 <HAL_I2C_Mem_Write>

        // Set accelerometer configuration in ACCEL_CONFIG Register
        // XA_ST=0,YA_ST=0,ZA_ST=0, FS_SEL=0 ->  2g
        Data = 0x00;
 8001bf4:	2300      	movs	r3, #0
 8001bf6:	73bb      	strb	r3, [r7, #14]
        HAL_I2C_Mem_Write(I2Cx, MPU6050_ADDR, ACCEL_CONFIG_REG, 1, &Data, 1, i2c_timeout);
 8001bf8:	2364      	movs	r3, #100	; 0x64
 8001bfa:	9302      	str	r3, [sp, #8]
 8001bfc:	2301      	movs	r3, #1
 8001bfe:	9301      	str	r3, [sp, #4]
 8001c00:	f107 030e 	add.w	r3, r7, #14
 8001c04:	9300      	str	r3, [sp, #0]
 8001c06:	2301      	movs	r3, #1
 8001c08:	221c      	movs	r2, #28
 8001c0a:	21d0      	movs	r1, #208	; 0xd0
 8001c0c:	6878      	ldr	r0, [r7, #4]
 8001c0e:	f003 fc0f 	bl	8005430 <HAL_I2C_Mem_Write>

        // Set Gyroscopic configuration in GYRO_CONFIG Register
        // XG_ST=0,YG_ST=0,ZG_ST=0, FS_SEL=0 ->  250 /s
        Data = 0x00;
 8001c12:	2300      	movs	r3, #0
 8001c14:	73bb      	strb	r3, [r7, #14]
        HAL_I2C_Mem_Write(I2Cx, MPU6050_ADDR, GYRO_CONFIG_REG, 1, &Data, 1, i2c_timeout);
 8001c16:	2364      	movs	r3, #100	; 0x64
 8001c18:	9302      	str	r3, [sp, #8]
 8001c1a:	2301      	movs	r3, #1
 8001c1c:	9301      	str	r3, [sp, #4]
 8001c1e:	f107 030e 	add.w	r3, r7, #14
 8001c22:	9300      	str	r3, [sp, #0]
 8001c24:	2301      	movs	r3, #1
 8001c26:	221b      	movs	r2, #27
 8001c28:	21d0      	movs	r1, #208	; 0xd0
 8001c2a:	6878      	ldr	r0, [r7, #4]
 8001c2c:	f003 fc00 	bl	8005430 <HAL_I2C_Mem_Write>
        return 0;
 8001c30:	2300      	movs	r3, #0
 8001c32:	e000      	b.n	8001c36 <MPU6050_Init+0xa6>
    }
    return 1;
 8001c34:	2301      	movs	r3, #1
}
 8001c36:	4618      	mov	r0, r3
 8001c38:	3710      	adds	r7, #16
 8001c3a:	46bd      	mov	sp, r7
 8001c3c:	bd80      	pop	{r7, pc}
	...

08001c40 <MPU6050_Read_All>:
    temp = (int16_t)(Rec_Data[0] << 8 | Rec_Data[1]);
    DataStruct->Temperature = (float)((int16_t)temp / (float)340.0 + (float)36.53);
}

void MPU6050_Read_All(I2C_HandleTypeDef *I2Cx, MPU6050_t *DataStruct)
{
 8001c40:	e92d 4fb0 	stmdb	sp!, {r4, r5, r7, r8, r9, sl, fp, lr}
 8001c44:	b094      	sub	sp, #80	; 0x50
 8001c46:	af04      	add	r7, sp, #16
 8001c48:	6078      	str	r0, [r7, #4]
 8001c4a:	6039      	str	r1, [r7, #0]
    uint8_t Rec_Data[14];
    int16_t temp;

    // Read 14 BYTES of data starting from ACCEL_XOUT_H register

    HAL_I2C_Mem_Read(I2Cx, MPU6050_ADDR, ACCEL_XOUT_H_REG, 1, Rec_Data, 14, i2c_timeout);
 8001c4c:	2364      	movs	r3, #100	; 0x64
 8001c4e:	9302      	str	r3, [sp, #8]
 8001c50:	230e      	movs	r3, #14
 8001c52:	9301      	str	r3, [sp, #4]
 8001c54:	f107 0308 	add.w	r3, r7, #8
 8001c58:	9300      	str	r3, [sp, #0]
 8001c5a:	2301      	movs	r3, #1
 8001c5c:	223b      	movs	r2, #59	; 0x3b
 8001c5e:	21d0      	movs	r1, #208	; 0xd0
 8001c60:	6878      	ldr	r0, [r7, #4]
 8001c62:	f003 fcdf 	bl	8005624 <HAL_I2C_Mem_Read>

    DataStruct->Accel_X_RAW = (int16_t)(Rec_Data[0] << 8 | Rec_Data[1]);
 8001c66:	7a3b      	ldrb	r3, [r7, #8]
 8001c68:	021b      	lsls	r3, r3, #8
 8001c6a:	b21a      	sxth	r2, r3
 8001c6c:	7a7b      	ldrb	r3, [r7, #9]
 8001c6e:	b21b      	sxth	r3, r3
 8001c70:	4313      	orrs	r3, r2
 8001c72:	b21a      	sxth	r2, r3
 8001c74:	683b      	ldr	r3, [r7, #0]
 8001c76:	801a      	strh	r2, [r3, #0]
    DataStruct->Accel_Y_RAW = (int16_t)(Rec_Data[2] << 8 | Rec_Data[3]);
 8001c78:	7abb      	ldrb	r3, [r7, #10]
 8001c7a:	021b      	lsls	r3, r3, #8
 8001c7c:	b21a      	sxth	r2, r3
 8001c7e:	7afb      	ldrb	r3, [r7, #11]
 8001c80:	b21b      	sxth	r3, r3
 8001c82:	4313      	orrs	r3, r2
 8001c84:	b21a      	sxth	r2, r3
 8001c86:	683b      	ldr	r3, [r7, #0]
 8001c88:	805a      	strh	r2, [r3, #2]
    DataStruct->Accel_Z_RAW = (int16_t)(Rec_Data[4] << 8 | Rec_Data[5]);
 8001c8a:	7b3b      	ldrb	r3, [r7, #12]
 8001c8c:	021b      	lsls	r3, r3, #8
 8001c8e:	b21a      	sxth	r2, r3
 8001c90:	7b7b      	ldrb	r3, [r7, #13]
 8001c92:	b21b      	sxth	r3, r3
 8001c94:	4313      	orrs	r3, r2
 8001c96:	b21a      	sxth	r2, r3
 8001c98:	683b      	ldr	r3, [r7, #0]
 8001c9a:	809a      	strh	r2, [r3, #4]
    temp = (int16_t)(Rec_Data[6] << 8 | Rec_Data[7]);
 8001c9c:	7bbb      	ldrb	r3, [r7, #14]
 8001c9e:	021b      	lsls	r3, r3, #8
 8001ca0:	b21a      	sxth	r2, r3
 8001ca2:	7bfb      	ldrb	r3, [r7, #15]
 8001ca4:	b21b      	sxth	r3, r3
 8001ca6:	4313      	orrs	r3, r2
 8001ca8:	86fb      	strh	r3, [r7, #54]	; 0x36
    DataStruct->Gyro_X_RAW = (int16_t)(Rec_Data[8] << 8 | Rec_Data[9]);
 8001caa:	7c3b      	ldrb	r3, [r7, #16]
 8001cac:	021b      	lsls	r3, r3, #8
 8001cae:	b21a      	sxth	r2, r3
 8001cb0:	7c7b      	ldrb	r3, [r7, #17]
 8001cb2:	b21b      	sxth	r3, r3
 8001cb4:	4313      	orrs	r3, r2
 8001cb6:	b21a      	sxth	r2, r3
 8001cb8:	683b      	ldr	r3, [r7, #0]
 8001cba:	841a      	strh	r2, [r3, #32]
    DataStruct->Gyro_Y_RAW = (int16_t)(Rec_Data[10] << 8 | Rec_Data[11]);
 8001cbc:	7cbb      	ldrb	r3, [r7, #18]
 8001cbe:	021b      	lsls	r3, r3, #8
 8001cc0:	b21a      	sxth	r2, r3
 8001cc2:	7cfb      	ldrb	r3, [r7, #19]
 8001cc4:	b21b      	sxth	r3, r3
 8001cc6:	4313      	orrs	r3, r2
 8001cc8:	b21a      	sxth	r2, r3
 8001cca:	683b      	ldr	r3, [r7, #0]
 8001ccc:	845a      	strh	r2, [r3, #34]	; 0x22
    DataStruct->Gyro_Z_RAW = (int16_t)(Rec_Data[12] << 8 | Rec_Data[13]);
 8001cce:	7d3b      	ldrb	r3, [r7, #20]
 8001cd0:	021b      	lsls	r3, r3, #8
 8001cd2:	b21a      	sxth	r2, r3
 8001cd4:	7d7b      	ldrb	r3, [r7, #21]
 8001cd6:	b21b      	sxth	r3, r3
 8001cd8:	4313      	orrs	r3, r2
 8001cda:	b21a      	sxth	r2, r3
 8001cdc:	683b      	ldr	r3, [r7, #0]
 8001cde:	849a      	strh	r2, [r3, #36]	; 0x24

    DataStruct->Ax = DataStruct->Accel_X_RAW / 16384.0;
 8001ce0:	683b      	ldr	r3, [r7, #0]
 8001ce2:	f9b3 3000 	ldrsh.w	r3, [r3]
 8001ce6:	4618      	mov	r0, r3
 8001ce8:	f7fe fb84 	bl	80003f4 <__aeabi_i2d>
 8001cec:	f04f 0200 	mov.w	r2, #0
 8001cf0:	4bb7      	ldr	r3, [pc, #732]	; (8001fd0 <MPU6050_Read_All+0x390>)
 8001cf2:	f7fe fd13 	bl	800071c <__aeabi_ddiv>
 8001cf6:	4602      	mov	r2, r0
 8001cf8:	460b      	mov	r3, r1
 8001cfa:	6839      	ldr	r1, [r7, #0]
 8001cfc:	e9c1 2302 	strd	r2, r3, [r1, #8]
    DataStruct->Ay = DataStruct->Accel_Y_RAW / 16384.0;
 8001d00:	683b      	ldr	r3, [r7, #0]
 8001d02:	f9b3 3002 	ldrsh.w	r3, [r3, #2]
 8001d06:	4618      	mov	r0, r3
 8001d08:	f7fe fb74 	bl	80003f4 <__aeabi_i2d>
 8001d0c:	f04f 0200 	mov.w	r2, #0
 8001d10:	4baf      	ldr	r3, [pc, #700]	; (8001fd0 <MPU6050_Read_All+0x390>)
 8001d12:	f7fe fd03 	bl	800071c <__aeabi_ddiv>
 8001d16:	4602      	mov	r2, r0
 8001d18:	460b      	mov	r3, r1
 8001d1a:	6839      	ldr	r1, [r7, #0]
 8001d1c:	e9c1 2304 	strd	r2, r3, [r1, #16]
    DataStruct->Az = DataStruct->Accel_Z_RAW / Accel_Z_corrector;
 8001d20:	683b      	ldr	r3, [r7, #0]
 8001d22:	f9b3 3004 	ldrsh.w	r3, [r3, #4]
 8001d26:	4618      	mov	r0, r3
 8001d28:	f7fe fb64 	bl	80003f4 <__aeabi_i2d>
 8001d2c:	a3a2      	add	r3, pc, #648	; (adr r3, 8001fb8 <MPU6050_Read_All+0x378>)
 8001d2e:	e9d3 2300 	ldrd	r2, r3, [r3]
 8001d32:	f7fe fcf3 	bl	800071c <__aeabi_ddiv>
 8001d36:	4602      	mov	r2, r0
 8001d38:	460b      	mov	r3, r1
 8001d3a:	6839      	ldr	r1, [r7, #0]
 8001d3c:	e9c1 2306 	strd	r2, r3, [r1, #24]
    DataStruct->Temperature = (float)((int16_t)temp / (float)340.0 + (float)36.53);
 8001d40:	f9b7 3036 	ldrsh.w	r3, [r7, #54]	; 0x36
 8001d44:	4618      	mov	r0, r3
 8001d46:	f7fe ff79 	bl	8000c3c <__aeabi_i2f>
 8001d4a:	4603      	mov	r3, r0
 8001d4c:	49a1      	ldr	r1, [pc, #644]	; (8001fd4 <MPU6050_Read_All+0x394>)
 8001d4e:	4618      	mov	r0, r3
 8001d50:	f7ff f87c 	bl	8000e4c <__aeabi_fdiv>
 8001d54:	4603      	mov	r3, r0
 8001d56:	49a0      	ldr	r1, [pc, #640]	; (8001fd8 <MPU6050_Read_All+0x398>)
 8001d58:	4618      	mov	r0, r3
 8001d5a:	f7fe febb 	bl	8000ad4 <__addsf3>
 8001d5e:	4603      	mov	r3, r0
 8001d60:	461a      	mov	r2, r3
 8001d62:	683b      	ldr	r3, [r7, #0]
 8001d64:	641a      	str	r2, [r3, #64]	; 0x40
    DataStruct->Gx = DataStruct->Gyro_X_RAW / 131.0;
 8001d66:	683b      	ldr	r3, [r7, #0]
 8001d68:	f9b3 3020 	ldrsh.w	r3, [r3, #32]
 8001d6c:	4618      	mov	r0, r3
 8001d6e:	f7fe fb41 	bl	80003f4 <__aeabi_i2d>
 8001d72:	a393      	add	r3, pc, #588	; (adr r3, 8001fc0 <MPU6050_Read_All+0x380>)
 8001d74:	e9d3 2300 	ldrd	r2, r3, [r3]
 8001d78:	f7fe fcd0 	bl	800071c <__aeabi_ddiv>
 8001d7c:	4602      	mov	r2, r0
 8001d7e:	460b      	mov	r3, r1
 8001d80:	6839      	ldr	r1, [r7, #0]
 8001d82:	e9c1 230a 	strd	r2, r3, [r1, #40]	; 0x28
    DataStruct->Gy = DataStruct->Gyro_Y_RAW / 131.0;
 8001d86:	683b      	ldr	r3, [r7, #0]
 8001d88:	f9b3 3022 	ldrsh.w	r3, [r3, #34]	; 0x22
 8001d8c:	4618      	mov	r0, r3
 8001d8e:	f7fe fb31 	bl	80003f4 <__aeabi_i2d>
 8001d92:	a38b      	add	r3, pc, #556	; (adr r3, 8001fc0 <MPU6050_Read_All+0x380>)
 8001d94:	e9d3 2300 	ldrd	r2, r3, [r3]
 8001d98:	f7fe fcc0 	bl	800071c <__aeabi_ddiv>
 8001d9c:	4602      	mov	r2, r0
 8001d9e:	460b      	mov	r3, r1
 8001da0:	6839      	ldr	r1, [r7, #0]
 8001da2:	e9c1 230c 	strd	r2, r3, [r1, #48]	; 0x30
    DataStruct->Gz = DataStruct->Gyro_Z_RAW / 131.0;
 8001da6:	683b      	ldr	r3, [r7, #0]
 8001da8:	f9b3 3024 	ldrsh.w	r3, [r3, #36]	; 0x24
 8001dac:	4618      	mov	r0, r3
 8001dae:	f7fe fb21 	bl	80003f4 <__aeabi_i2d>
 8001db2:	a383      	add	r3, pc, #524	; (adr r3, 8001fc0 <MPU6050_Read_All+0x380>)
 8001db4:	e9d3 2300 	ldrd	r2, r3, [r3]
 8001db8:	f7fe fcb0 	bl	800071c <__aeabi_ddiv>
 8001dbc:	4602      	mov	r2, r0
 8001dbe:	460b      	mov	r3, r1
 8001dc0:	6839      	ldr	r1, [r7, #0]
 8001dc2:	e9c1 230e 	strd	r2, r3, [r1, #56]	; 0x38

    // Kalman angle solve
    double dt = (double)(HAL_GetTick() - timer) / 1000;
 8001dc6:	f002 fec1 	bl	8004b4c <HAL_GetTick>
 8001dca:	4602      	mov	r2, r0
 8001dcc:	4b83      	ldr	r3, [pc, #524]	; (8001fdc <MPU6050_Read_All+0x39c>)
 8001dce:	681b      	ldr	r3, [r3, #0]
 8001dd0:	1ad3      	subs	r3, r2, r3
 8001dd2:	4618      	mov	r0, r3
 8001dd4:	f7fe fafe 	bl	80003d4 <__aeabi_ui2d>
 8001dd8:	f04f 0200 	mov.w	r2, #0
 8001ddc:	4b80      	ldr	r3, [pc, #512]	; (8001fe0 <MPU6050_Read_All+0x3a0>)
 8001dde:	f7fe fc9d 	bl	800071c <__aeabi_ddiv>
 8001de2:	4602      	mov	r2, r0
 8001de4:	460b      	mov	r3, r1
 8001de6:	e9c7 230a 	strd	r2, r3, [r7, #40]	; 0x28
    timer = HAL_GetTick();
 8001dea:	f002 feaf 	bl	8004b4c <HAL_GetTick>
 8001dee:	4602      	mov	r2, r0
 8001df0:	4b7a      	ldr	r3, [pc, #488]	; (8001fdc <MPU6050_Read_All+0x39c>)
 8001df2:	601a      	str	r2, [r3, #0]
    double roll;
    double roll_sqrt = sqrt(
        DataStruct->Accel_X_RAW * DataStruct->Accel_X_RAW + DataStruct->Accel_Z_RAW * DataStruct->Accel_Z_RAW);
 8001df4:	683b      	ldr	r3, [r7, #0]
 8001df6:	f9b3 3000 	ldrsh.w	r3, [r3]
 8001dfa:	461a      	mov	r2, r3
 8001dfc:	683b      	ldr	r3, [r7, #0]
 8001dfe:	f9b3 3000 	ldrsh.w	r3, [r3]
 8001e02:	fb03 f202 	mul.w	r2, r3, r2
 8001e06:	683b      	ldr	r3, [r7, #0]
 8001e08:	f9b3 3004 	ldrsh.w	r3, [r3, #4]
 8001e0c:	4619      	mov	r1, r3
 8001e0e:	683b      	ldr	r3, [r7, #0]
 8001e10:	f9b3 3004 	ldrsh.w	r3, [r3, #4]
 8001e14:	fb03 f301 	mul.w	r3, r3, r1
 8001e18:	4413      	add	r3, r2
    double roll_sqrt = sqrt(
 8001e1a:	4618      	mov	r0, r3
 8001e1c:	f7fe faea 	bl	80003f4 <__aeabi_i2d>
 8001e20:	4602      	mov	r2, r0
 8001e22:	460b      	mov	r3, r1
 8001e24:	4610      	mov	r0, r2
 8001e26:	4619      	mov	r1, r3
 8001e28:	f006 fb3e 	bl	80084a8 <sqrt>
 8001e2c:	e9c7 0108 	strd	r0, r1, [r7, #32]
    if (roll_sqrt != 0.0)
 8001e30:	f04f 0200 	mov.w	r2, #0
 8001e34:	f04f 0300 	mov.w	r3, #0
 8001e38:	e9d7 0108 	ldrd	r0, r1, [r7, #32]
 8001e3c:	f7fe fdac 	bl	8000998 <__aeabi_dcmpeq>
 8001e40:	4603      	mov	r3, r0
 8001e42:	2b00      	cmp	r3, #0
 8001e44:	d119      	bne.n	8001e7a <MPU6050_Read_All+0x23a>
    {
        roll = atan(DataStruct->Accel_Y_RAW / roll_sqrt) * RAD_TO_DEG;
 8001e46:	683b      	ldr	r3, [r7, #0]
 8001e48:	f9b3 3002 	ldrsh.w	r3, [r3, #2]
 8001e4c:	4618      	mov	r0, r3
 8001e4e:	f7fe fad1 	bl	80003f4 <__aeabi_i2d>
 8001e52:	e9d7 2308 	ldrd	r2, r3, [r7, #32]
 8001e56:	f7fe fc61 	bl	800071c <__aeabi_ddiv>
 8001e5a:	4602      	mov	r2, r0
 8001e5c:	460b      	mov	r3, r1
 8001e5e:	4610      	mov	r0, r2
 8001e60:	4619      	mov	r1, r3
 8001e62:	f006 f991 	bl	8008188 <atan>
 8001e66:	a358      	add	r3, pc, #352	; (adr r3, 8001fc8 <MPU6050_Read_All+0x388>)
 8001e68:	e9d3 2300 	ldrd	r2, r3, [r3]
 8001e6c:	f7fe fb2c 	bl	80004c8 <__aeabi_dmul>
 8001e70:	4602      	mov	r2, r0
 8001e72:	460b      	mov	r3, r1
 8001e74:	e9c7 230e 	strd	r2, r3, [r7, #56]	; 0x38
 8001e78:	e005      	b.n	8001e86 <MPU6050_Read_All+0x246>
    }
    else
    {
        roll = 0.0;
 8001e7a:	f04f 0200 	mov.w	r2, #0
 8001e7e:	f04f 0300 	mov.w	r3, #0
 8001e82:	e9c7 230e 	strd	r2, r3, [r7, #56]	; 0x38
    }
    double pitch = atan2(-DataStruct->Accel_X_RAW, DataStruct->Accel_Z_RAW) * RAD_TO_DEG;
 8001e86:	683b      	ldr	r3, [r7, #0]
 8001e88:	f9b3 3000 	ldrsh.w	r3, [r3]
 8001e8c:	425b      	negs	r3, r3
 8001e8e:	4618      	mov	r0, r3
 8001e90:	f7fe fab0 	bl	80003f4 <__aeabi_i2d>
 8001e94:	4682      	mov	sl, r0
 8001e96:	468b      	mov	fp, r1
 8001e98:	683b      	ldr	r3, [r7, #0]
 8001e9a:	f9b3 3004 	ldrsh.w	r3, [r3, #4]
 8001e9e:	4618      	mov	r0, r3
 8001ea0:	f7fe faa8 	bl	80003f4 <__aeabi_i2d>
 8001ea4:	4602      	mov	r2, r0
 8001ea6:	460b      	mov	r3, r1
 8001ea8:	4650      	mov	r0, sl
 8001eaa:	4659      	mov	r1, fp
 8001eac:	f006 fafa 	bl	80084a4 <atan2>
 8001eb0:	a345      	add	r3, pc, #276	; (adr r3, 8001fc8 <MPU6050_Read_All+0x388>)
 8001eb2:	e9d3 2300 	ldrd	r2, r3, [r3]
 8001eb6:	f7fe fb07 	bl	80004c8 <__aeabi_dmul>
 8001eba:	4602      	mov	r2, r0
 8001ebc:	460b      	mov	r3, r1
 8001ebe:	e9c7 2306 	strd	r2, r3, [r7, #24]
    if ((pitch < -90 && DataStruct->KalmanAngleY > 90) || (pitch > 90 && DataStruct->KalmanAngleY < -90))
 8001ec2:	f04f 0200 	mov.w	r2, #0
 8001ec6:	4b47      	ldr	r3, [pc, #284]	; (8001fe4 <MPU6050_Read_All+0x3a4>)
 8001ec8:	e9d7 0106 	ldrd	r0, r1, [r7, #24]
 8001ecc:	f7fe fd6e 	bl	80009ac <__aeabi_dcmplt>
 8001ed0:	4603      	mov	r3, r0
 8001ed2:	2b00      	cmp	r3, #0
 8001ed4:	d00a      	beq.n	8001eec <MPU6050_Read_All+0x2ac>
 8001ed6:	683b      	ldr	r3, [r7, #0]
 8001ed8:	e9d3 0114 	ldrd	r0, r1, [r3, #80]	; 0x50
 8001edc:	f04f 0200 	mov.w	r2, #0
 8001ee0:	4b41      	ldr	r3, [pc, #260]	; (8001fe8 <MPU6050_Read_All+0x3a8>)
 8001ee2:	f7fe fd81 	bl	80009e8 <__aeabi_dcmpgt>
 8001ee6:	4603      	mov	r3, r0
 8001ee8:	2b00      	cmp	r3, #0
 8001eea:	d114      	bne.n	8001f16 <MPU6050_Read_All+0x2d6>
 8001eec:	f04f 0200 	mov.w	r2, #0
 8001ef0:	4b3d      	ldr	r3, [pc, #244]	; (8001fe8 <MPU6050_Read_All+0x3a8>)
 8001ef2:	e9d7 0106 	ldrd	r0, r1, [r7, #24]
 8001ef6:	f7fe fd77 	bl	80009e8 <__aeabi_dcmpgt>
 8001efa:	4603      	mov	r3, r0
 8001efc:	2b00      	cmp	r3, #0
 8001efe:	d015      	beq.n	8001f2c <MPU6050_Read_All+0x2ec>
 8001f00:	683b      	ldr	r3, [r7, #0]
 8001f02:	e9d3 0114 	ldrd	r0, r1, [r3, #80]	; 0x50
 8001f06:	f04f 0200 	mov.w	r2, #0
 8001f0a:	4b36      	ldr	r3, [pc, #216]	; (8001fe4 <MPU6050_Read_All+0x3a4>)
 8001f0c:	f7fe fd4e 	bl	80009ac <__aeabi_dcmplt>
 8001f10:	4603      	mov	r3, r0
 8001f12:	2b00      	cmp	r3, #0
 8001f14:	d00a      	beq.n	8001f2c <MPU6050_Read_All+0x2ec>
    {
        KalmanY.angle = pitch;
 8001f16:	4935      	ldr	r1, [pc, #212]	; (8001fec <MPU6050_Read_All+0x3ac>)
 8001f18:	e9d7 2306 	ldrd	r2, r3, [r7, #24]
 8001f1c:	e9c1 2306 	strd	r2, r3, [r1, #24]
        DataStruct->KalmanAngleY = pitch;
 8001f20:	6839      	ldr	r1, [r7, #0]
 8001f22:	e9d7 2306 	ldrd	r2, r3, [r7, #24]
 8001f26:	e9c1 2314 	strd	r2, r3, [r1, #80]	; 0x50
 8001f2a:	e012      	b.n	8001f52 <MPU6050_Read_All+0x312>
    }
    else
    {
        DataStruct->KalmanAngleY = Kalman_getAngle(&KalmanY, pitch, DataStruct->Gy, dt);
 8001f2c:	683b      	ldr	r3, [r7, #0]
 8001f2e:	e9d3 230c 	ldrd	r2, r3, [r3, #48]	; 0x30
 8001f32:	e9d7 010a 	ldrd	r0, r1, [r7, #40]	; 0x28
 8001f36:	e9cd 0102 	strd	r0, r1, [sp, #8]
 8001f3a:	e9cd 2300 	strd	r2, r3, [sp]
 8001f3e:	e9d7 2306 	ldrd	r2, r3, [r7, #24]
 8001f42:	482a      	ldr	r0, [pc, #168]	; (8001fec <MPU6050_Read_All+0x3ac>)
 8001f44:	f000 f856 	bl	8001ff4 <Kalman_getAngle>
 8001f48:	4602      	mov	r2, r0
 8001f4a:	460b      	mov	r3, r1
 8001f4c:	6839      	ldr	r1, [r7, #0]
 8001f4e:	e9c1 2314 	strd	r2, r3, [r1, #80]	; 0x50
    }
    if (fabs(DataStruct->KalmanAngleY) > 90)
 8001f52:	683b      	ldr	r3, [r7, #0]
 8001f54:	e9d3 2314 	ldrd	r2, r3, [r3, #80]	; 0x50
 8001f58:	4690      	mov	r8, r2
 8001f5a:	f023 4900 	bic.w	r9, r3, #2147483648	; 0x80000000
 8001f5e:	f04f 0200 	mov.w	r2, #0
 8001f62:	4b21      	ldr	r3, [pc, #132]	; (8001fe8 <MPU6050_Read_All+0x3a8>)
 8001f64:	4640      	mov	r0, r8
 8001f66:	4649      	mov	r1, r9
 8001f68:	f7fe fd3e 	bl	80009e8 <__aeabi_dcmpgt>
 8001f6c:	4603      	mov	r3, r0
 8001f6e:	2b00      	cmp	r3, #0
 8001f70:	d008      	beq.n	8001f84 <MPU6050_Read_All+0x344>
        DataStruct->Gx = -DataStruct->Gx;
 8001f72:	683b      	ldr	r3, [r7, #0]
 8001f74:	e9d3 230a 	ldrd	r2, r3, [r3, #40]	; 0x28
 8001f78:	4614      	mov	r4, r2
 8001f7a:	f083 4500 	eor.w	r5, r3, #2147483648	; 0x80000000
 8001f7e:	683b      	ldr	r3, [r7, #0]
 8001f80:	e9c3 450a 	strd	r4, r5, [r3, #40]	; 0x28
    DataStruct->KalmanAngleX = Kalman_getAngle(&KalmanX, roll, DataStruct->Gx, dt);
 8001f84:	683b      	ldr	r3, [r7, #0]
 8001f86:	f103 0428 	add.w	r4, r3, #40	; 0x28
 8001f8a:	e9d4 3400 	ldrd	r3, r4, [r4]
 8001f8e:	e9d7 120a 	ldrd	r1, r2, [r7, #40]	; 0x28
 8001f92:	e9cd 1202 	strd	r1, r2, [sp, #8]
 8001f96:	e9cd 3400 	strd	r3, r4, [sp]
 8001f9a:	e9d7 230e 	ldrd	r2, r3, [r7, #56]	; 0x38
 8001f9e:	4814      	ldr	r0, [pc, #80]	; (8001ff0 <MPU6050_Read_All+0x3b0>)
 8001fa0:	f000 f828 	bl	8001ff4 <Kalman_getAngle>
 8001fa4:	4603      	mov	r3, r0
 8001fa6:	460c      	mov	r4, r1
 8001fa8:	683a      	ldr	r2, [r7, #0]
 8001faa:	e9c2 3412 	strd	r3, r4, [r2, #72]	; 0x48
}
 8001fae:	bf00      	nop
 8001fb0:	3740      	adds	r7, #64	; 0x40
 8001fb2:	46bd      	mov	sp, r7
 8001fb4:	e8bd 8fb0 	ldmia.w	sp!, {r4, r5, r7, r8, r9, sl, fp, pc}
 8001fb8:	00000000 	.word	0x00000000
 8001fbc:	40cc2900 	.word	0x40cc2900
 8001fc0:	00000000 	.word	0x00000000
 8001fc4:	40606000 	.word	0x40606000
 8001fc8:	1a63c1f8 	.word	0x1a63c1f8
 8001fcc:	404ca5dc 	.word	0x404ca5dc
 8001fd0:	40d00000 	.word	0x40d00000
 8001fd4:	43aa0000 	.word	0x43aa0000
 8001fd8:	42121eb8 	.word	0x42121eb8
 8001fdc:	20000588 	.word	0x20000588
 8001fe0:	408f4000 	.word	0x408f4000
 8001fe4:	c0568000 	.word	0xc0568000
 8001fe8:	40568000 	.word	0x40568000
 8001fec:	20000060 	.word	0x20000060
 8001ff0:	20000018 	.word	0x20000018

08001ff4 <Kalman_getAngle>:

double Kalman_getAngle(Kalman_t *Kalman, double newAngle, double newRate, double dt)
{
 8001ff4:	b5b0      	push	{r4, r5, r7, lr}
 8001ff6:	b092      	sub	sp, #72	; 0x48
 8001ff8:	af00      	add	r7, sp, #0
 8001ffa:	60f8      	str	r0, [r7, #12]
 8001ffc:	e9c7 2300 	strd	r2, r3, [r7]
    double rate = newRate - Kalman->bias;
 8002000:	68fb      	ldr	r3, [r7, #12]
 8002002:	f103 0420 	add.w	r4, r3, #32
 8002006:	e9d4 3400 	ldrd	r3, r4, [r4]
 800200a:	461a      	mov	r2, r3
 800200c:	4623      	mov	r3, r4
 800200e:	e9d7 0116 	ldrd	r0, r1, [r7, #88]	; 0x58
 8002012:	f7fe f8a1 	bl	8000158 <__aeabi_dsub>
 8002016:	4603      	mov	r3, r0
 8002018:	460c      	mov	r4, r1
 800201a:	e9c7 3410 	strd	r3, r4, [r7, #64]	; 0x40
    Kalman->angle += dt * rate;
 800201e:	68fb      	ldr	r3, [r7, #12]
 8002020:	e9d3 4506 	ldrd	r4, r5, [r3, #24]
 8002024:	e9d7 2310 	ldrd	r2, r3, [r7, #64]	; 0x40
 8002028:	e9d7 0118 	ldrd	r0, r1, [r7, #96]	; 0x60
 800202c:	f7fe fa4c 	bl	80004c8 <__aeabi_dmul>
 8002030:	4602      	mov	r2, r0
 8002032:	460b      	mov	r3, r1
 8002034:	4620      	mov	r0, r4
 8002036:	4629      	mov	r1, r5
 8002038:	f7fe f890 	bl	800015c <__adddf3>
 800203c:	4603      	mov	r3, r0
 800203e:	460c      	mov	r4, r1
 8002040:	68fa      	ldr	r2, [r7, #12]
 8002042:	e9c2 3406 	strd	r3, r4, [r2, #24]

    Kalman->P[0][0] += dt * (dt * Kalman->P[1][1] - Kalman->P[0][1] - Kalman->P[1][0] + Kalman->Q_angle);
 8002046:	68fb      	ldr	r3, [r7, #12]
 8002048:	e9d3 450a 	ldrd	r4, r5, [r3, #40]	; 0x28
 800204c:	68fb      	ldr	r3, [r7, #12]
 800204e:	e9d3 0110 	ldrd	r0, r1, [r3, #64]	; 0x40
 8002052:	e9d7 2318 	ldrd	r2, r3, [r7, #96]	; 0x60
 8002056:	f7fe fa37 	bl	80004c8 <__aeabi_dmul>
 800205a:	4602      	mov	r2, r0
 800205c:	460b      	mov	r3, r1
 800205e:	4610      	mov	r0, r2
 8002060:	4619      	mov	r1, r3
 8002062:	68fb      	ldr	r3, [r7, #12]
 8002064:	e9d3 230c 	ldrd	r2, r3, [r3, #48]	; 0x30
 8002068:	f7fe f876 	bl	8000158 <__aeabi_dsub>
 800206c:	4602      	mov	r2, r0
 800206e:	460b      	mov	r3, r1
 8002070:	4610      	mov	r0, r2
 8002072:	4619      	mov	r1, r3
 8002074:	68fb      	ldr	r3, [r7, #12]
 8002076:	e9d3 230e 	ldrd	r2, r3, [r3, #56]	; 0x38
 800207a:	f7fe f86d 	bl	8000158 <__aeabi_dsub>
 800207e:	4602      	mov	r2, r0
 8002080:	460b      	mov	r3, r1
 8002082:	4610      	mov	r0, r2
 8002084:	4619      	mov	r1, r3
 8002086:	68fb      	ldr	r3, [r7, #12]
 8002088:	e9d3 2300 	ldrd	r2, r3, [r3]
 800208c:	f7fe f866 	bl	800015c <__adddf3>
 8002090:	4602      	mov	r2, r0
 8002092:	460b      	mov	r3, r1
 8002094:	4610      	mov	r0, r2
 8002096:	4619      	mov	r1, r3
 8002098:	e9d7 2318 	ldrd	r2, r3, [r7, #96]	; 0x60
 800209c:	f7fe fa14 	bl	80004c8 <__aeabi_dmul>
 80020a0:	4602      	mov	r2, r0
 80020a2:	460b      	mov	r3, r1
 80020a4:	4620      	mov	r0, r4
 80020a6:	4629      	mov	r1, r5
 80020a8:	f7fe f858 	bl	800015c <__adddf3>
 80020ac:	4603      	mov	r3, r0
 80020ae:	460c      	mov	r4, r1
 80020b0:	68fa      	ldr	r2, [r7, #12]
 80020b2:	e9c2 340a 	strd	r3, r4, [r2, #40]	; 0x28
    Kalman->P[0][1] -= dt * Kalman->P[1][1];
 80020b6:	68fb      	ldr	r3, [r7, #12]
 80020b8:	e9d3 450c 	ldrd	r4, r5, [r3, #48]	; 0x30
 80020bc:	68fb      	ldr	r3, [r7, #12]
 80020be:	e9d3 0110 	ldrd	r0, r1, [r3, #64]	; 0x40
 80020c2:	e9d7 2318 	ldrd	r2, r3, [r7, #96]	; 0x60
 80020c6:	f7fe f9ff 	bl	80004c8 <__aeabi_dmul>
 80020ca:	4602      	mov	r2, r0
 80020cc:	460b      	mov	r3, r1
 80020ce:	4620      	mov	r0, r4
 80020d0:	4629      	mov	r1, r5
 80020d2:	f7fe f841 	bl	8000158 <__aeabi_dsub>
 80020d6:	4603      	mov	r3, r0
 80020d8:	460c      	mov	r4, r1
 80020da:	68fa      	ldr	r2, [r7, #12]
 80020dc:	e9c2 340c 	strd	r3, r4, [r2, #48]	; 0x30
    Kalman->P[1][0] -= dt * Kalman->P[1][1];
 80020e0:	68fb      	ldr	r3, [r7, #12]
 80020e2:	e9d3 450e 	ldrd	r4, r5, [r3, #56]	; 0x38
 80020e6:	68fb      	ldr	r3, [r7, #12]
 80020e8:	e9d3 0110 	ldrd	r0, r1, [r3, #64]	; 0x40
 80020ec:	e9d7 2318 	ldrd	r2, r3, [r7, #96]	; 0x60
 80020f0:	f7fe f9ea 	bl	80004c8 <__aeabi_dmul>
 80020f4:	4602      	mov	r2, r0
 80020f6:	460b      	mov	r3, r1
 80020f8:	4620      	mov	r0, r4
 80020fa:	4629      	mov	r1, r5
 80020fc:	f7fe f82c 	bl	8000158 <__aeabi_dsub>
 8002100:	4603      	mov	r3, r0
 8002102:	460c      	mov	r4, r1
 8002104:	68fa      	ldr	r2, [r7, #12]
 8002106:	e9c2 340e 	strd	r3, r4, [r2, #56]	; 0x38
    Kalman->P[1][1] += Kalman->Q_bias * dt;
 800210a:	68fb      	ldr	r3, [r7, #12]
 800210c:	e9d3 4510 	ldrd	r4, r5, [r3, #64]	; 0x40
 8002110:	68fb      	ldr	r3, [r7, #12]
 8002112:	e9d3 0102 	ldrd	r0, r1, [r3, #8]
 8002116:	e9d7 2318 	ldrd	r2, r3, [r7, #96]	; 0x60
 800211a:	f7fe f9d5 	bl	80004c8 <__aeabi_dmul>
 800211e:	4602      	mov	r2, r0
 8002120:	460b      	mov	r3, r1
 8002122:	4620      	mov	r0, r4
 8002124:	4629      	mov	r1, r5
 8002126:	f7fe f819 	bl	800015c <__adddf3>
 800212a:	4603      	mov	r3, r0
 800212c:	460c      	mov	r4, r1
 800212e:	68fa      	ldr	r2, [r7, #12]
 8002130:	e9c2 3410 	strd	r3, r4, [r2, #64]	; 0x40

    double S = Kalman->P[0][0] + Kalman->R_measure;
 8002134:	68fb      	ldr	r3, [r7, #12]
 8002136:	e9d3 010a 	ldrd	r0, r1, [r3, #40]	; 0x28
 800213a:	68fb      	ldr	r3, [r7, #12]
 800213c:	f103 0410 	add.w	r4, r3, #16
 8002140:	e9d4 3400 	ldrd	r3, r4, [r4]
 8002144:	461a      	mov	r2, r3
 8002146:	4623      	mov	r3, r4
 8002148:	f7fe f808 	bl	800015c <__adddf3>
 800214c:	4603      	mov	r3, r0
 800214e:	460c      	mov	r4, r1
 8002150:	e9c7 340e 	strd	r3, r4, [r7, #56]	; 0x38
    double K[2];
    K[0] = Kalman->P[0][0] / S;
 8002154:	68fb      	ldr	r3, [r7, #12]
 8002156:	e9d3 010a 	ldrd	r0, r1, [r3, #40]	; 0x28
 800215a:	e9d7 230e 	ldrd	r2, r3, [r7, #56]	; 0x38
 800215e:	f7fe fadd 	bl	800071c <__aeabi_ddiv>
 8002162:	4603      	mov	r3, r0
 8002164:	460c      	mov	r4, r1
 8002166:	e9c7 3404 	strd	r3, r4, [r7, #16]
    K[1] = Kalman->P[1][0] / S;
 800216a:	68fb      	ldr	r3, [r7, #12]
 800216c:	e9d3 010e 	ldrd	r0, r1, [r3, #56]	; 0x38
 8002170:	e9d7 230e 	ldrd	r2, r3, [r7, #56]	; 0x38
 8002174:	f7fe fad2 	bl	800071c <__aeabi_ddiv>
 8002178:	4603      	mov	r3, r0
 800217a:	460c      	mov	r4, r1
 800217c:	e9c7 3406 	strd	r3, r4, [r7, #24]

    double y = newAngle - Kalman->angle;
 8002180:	68fb      	ldr	r3, [r7, #12]
 8002182:	f103 0418 	add.w	r4, r3, #24
 8002186:	e9d4 3400 	ldrd	r3, r4, [r4]
 800218a:	461a      	mov	r2, r3
 800218c:	4623      	mov	r3, r4
 800218e:	e9d7 0100 	ldrd	r0, r1, [r7]
 8002192:	f7fd ffe1 	bl	8000158 <__aeabi_dsub>
 8002196:	4603      	mov	r3, r0
 8002198:	460c      	mov	r4, r1
 800219a:	e9c7 340c 	strd	r3, r4, [r7, #48]	; 0x30
    Kalman->angle += K[0] * y;
 800219e:	68fb      	ldr	r3, [r7, #12]
 80021a0:	e9d3 4506 	ldrd	r4, r5, [r3, #24]
 80021a4:	e9d7 0104 	ldrd	r0, r1, [r7, #16]
 80021a8:	e9d7 230c 	ldrd	r2, r3, [r7, #48]	; 0x30
 80021ac:	f7fe f98c 	bl	80004c8 <__aeabi_dmul>
 80021b0:	4602      	mov	r2, r0
 80021b2:	460b      	mov	r3, r1
 80021b4:	4620      	mov	r0, r4
 80021b6:	4629      	mov	r1, r5
 80021b8:	f7fd ffd0 	bl	800015c <__adddf3>
 80021bc:	4603      	mov	r3, r0
 80021be:	460c      	mov	r4, r1
 80021c0:	68fa      	ldr	r2, [r7, #12]
 80021c2:	e9c2 3406 	strd	r3, r4, [r2, #24]
    Kalman->bias += K[1] * y;
 80021c6:	68fb      	ldr	r3, [r7, #12]
 80021c8:	e9d3 4508 	ldrd	r4, r5, [r3, #32]
 80021cc:	e9d7 0106 	ldrd	r0, r1, [r7, #24]
 80021d0:	e9d7 230c 	ldrd	r2, r3, [r7, #48]	; 0x30
 80021d4:	f7fe f978 	bl	80004c8 <__aeabi_dmul>
 80021d8:	4602      	mov	r2, r0
 80021da:	460b      	mov	r3, r1
 80021dc:	4620      	mov	r0, r4
 80021de:	4629      	mov	r1, r5
 80021e0:	f7fd ffbc 	bl	800015c <__adddf3>
 80021e4:	4603      	mov	r3, r0
 80021e6:	460c      	mov	r4, r1
 80021e8:	68fa      	ldr	r2, [r7, #12]
 80021ea:	e9c2 3408 	strd	r3, r4, [r2, #32]

    double P00_temp = Kalman->P[0][0];
 80021ee:	68fb      	ldr	r3, [r7, #12]
 80021f0:	f103 0428 	add.w	r4, r3, #40	; 0x28
 80021f4:	e9d4 3400 	ldrd	r3, r4, [r4]
 80021f8:	e9c7 340a 	strd	r3, r4, [r7, #40]	; 0x28
    double P01_temp = Kalman->P[0][1];
 80021fc:	68fb      	ldr	r3, [r7, #12]
 80021fe:	f103 0430 	add.w	r4, r3, #48	; 0x30
 8002202:	e9d4 3400 	ldrd	r3, r4, [r4]
 8002206:	e9c7 3408 	strd	r3, r4, [r7, #32]

    Kalman->P[0][0] -= K[0] * P00_temp;
 800220a:	68fb      	ldr	r3, [r7, #12]
 800220c:	e9d3 450a 	ldrd	r4, r5, [r3, #40]	; 0x28
 8002210:	e9d7 0104 	ldrd	r0, r1, [r7, #16]
 8002214:	e9d7 230a 	ldrd	r2, r3, [r7, #40]	; 0x28
 8002218:	f7fe f956 	bl	80004c8 <__aeabi_dmul>
 800221c:	4602      	mov	r2, r0
 800221e:	460b      	mov	r3, r1
 8002220:	4620      	mov	r0, r4
 8002222:	4629      	mov	r1, r5
 8002224:	f7fd ff98 	bl	8000158 <__aeabi_dsub>
 8002228:	4603      	mov	r3, r0
 800222a:	460c      	mov	r4, r1
 800222c:	68fa      	ldr	r2, [r7, #12]
 800222e:	e9c2 340a 	strd	r3, r4, [r2, #40]	; 0x28
    Kalman->P[0][1] -= K[0] * P01_temp;
 8002232:	68fb      	ldr	r3, [r7, #12]
 8002234:	e9d3 450c 	ldrd	r4, r5, [r3, #48]	; 0x30
 8002238:	e9d7 0104 	ldrd	r0, r1, [r7, #16]
 800223c:	e9d7 2308 	ldrd	r2, r3, [r7, #32]
 8002240:	f7fe f942 	bl	80004c8 <__aeabi_dmul>
 8002244:	4602      	mov	r2, r0
 8002246:	460b      	mov	r3, r1
 8002248:	4620      	mov	r0, r4
 800224a:	4629      	mov	r1, r5
 800224c:	f7fd ff84 	bl	8000158 <__aeabi_dsub>
 8002250:	4603      	mov	r3, r0
 8002252:	460c      	mov	r4, r1
 8002254:	68fa      	ldr	r2, [r7, #12]
 8002256:	e9c2 340c 	strd	r3, r4, [r2, #48]	; 0x30
    Kalman->P[1][0] -= K[1] * P00_temp;
 800225a:	68fb      	ldr	r3, [r7, #12]
 800225c:	e9d3 450e 	ldrd	r4, r5, [r3, #56]	; 0x38
 8002260:	e9d7 0106 	ldrd	r0, r1, [r7, #24]
 8002264:	e9d7 230a 	ldrd	r2, r3, [r7, #40]	; 0x28
 8002268:	f7fe f92e 	bl	80004c8 <__aeabi_dmul>
 800226c:	4602      	mov	r2, r0
 800226e:	460b      	mov	r3, r1
 8002270:	4620      	mov	r0, r4
 8002272:	4629      	mov	r1, r5
 8002274:	f7fd ff70 	bl	8000158 <__aeabi_dsub>
 8002278:	4603      	mov	r3, r0
 800227a:	460c      	mov	r4, r1
 800227c:	68fa      	ldr	r2, [r7, #12]
 800227e:	e9c2 340e 	strd	r3, r4, [r2, #56]	; 0x38
    Kalman->P[1][1] -= K[1] * P01_temp;
 8002282:	68fb      	ldr	r3, [r7, #12]
 8002284:	e9d3 4510 	ldrd	r4, r5, [r3, #64]	; 0x40
 8002288:	e9d7 0106 	ldrd	r0, r1, [r7, #24]
 800228c:	e9d7 2308 	ldrd	r2, r3, [r7, #32]
 8002290:	f7fe f91a 	bl	80004c8 <__aeabi_dmul>
 8002294:	4602      	mov	r2, r0
 8002296:	460b      	mov	r3, r1
 8002298:	4620      	mov	r0, r4
 800229a:	4629      	mov	r1, r5
 800229c:	f7fd ff5c 	bl	8000158 <__aeabi_dsub>
 80022a0:	4603      	mov	r3, r0
 80022a2:	460c      	mov	r4, r1
 80022a4:	68fa      	ldr	r2, [r7, #12]
 80022a6:	e9c2 3410 	strd	r3, r4, [r2, #64]	; 0x40

    return Kalman->angle;
 80022aa:	68fb      	ldr	r3, [r7, #12]
 80022ac:	f103 0418 	add.w	r4, r3, #24
 80022b0:	e9d4 3400 	ldrd	r3, r4, [r4]
};
 80022b4:	4618      	mov	r0, r3
 80022b6:	4621      	mov	r1, r4
 80022b8:	3748      	adds	r7, #72	; 0x48
 80022ba:	46bd      	mov	sp, r7
 80022bc:	bdb0      	pop	{r4, r5, r7, pc}
	...

080022c0 <_qFFMath_GetAbnormal>:
#define cast_reinterpret( dst, src, dst_type )                              \
(void)memcpy( &dst, &src, sizeof(dst_type) )                                \

/*============================================================================*/
float _qFFMath_GetAbnormal( const int i )
{
 80022c0:	b480      	push	{r7}
 80022c2:	b083      	sub	sp, #12
 80022c4:	af00      	add	r7, sp, #0
 80022c6:	6078      	str	r0, [r7, #4]
    static const uint32_t u_ab[ 2 ] = { 0x7F800000u, 0x7FBFFFFFu };
    static float f_ab[ 2 ] = { 0.0f, 0.0f };
    static bool init = true;
    
    if ( init ) {
 80022c8:	4b0a      	ldr	r3, [pc, #40]	; (80022f4 <_qFFMath_GetAbnormal+0x34>)
 80022ca:	781b      	ldrb	r3, [r3, #0]
 80022cc:	2b00      	cmp	r3, #0
 80022ce:	d008      	beq.n	80022e2 <_qFFMath_GetAbnormal+0x22>
        (void)memcpy( f_ab, u_ab, sizeof(f_ab) );
 80022d0:	4b09      	ldr	r3, [pc, #36]	; (80022f8 <_qFFMath_GetAbnormal+0x38>)
 80022d2:	4a0a      	ldr	r2, [pc, #40]	; (80022fc <_qFFMath_GetAbnormal+0x3c>)
 80022d4:	e892 0003 	ldmia.w	r2, {r0, r1}
 80022d8:	e883 0003 	stmia.w	r3, {r0, r1}
        init = false;
 80022dc:	4b05      	ldr	r3, [pc, #20]	; (80022f4 <_qFFMath_GetAbnormal+0x34>)
 80022de:	2200      	movs	r2, #0
 80022e0:	701a      	strb	r2, [r3, #0]
    }
    
    return f_ab[ i ]; 
 80022e2:	4a05      	ldr	r2, [pc, #20]	; (80022f8 <_qFFMath_GetAbnormal+0x38>)
 80022e4:	687b      	ldr	r3, [r7, #4]
 80022e6:	f852 3023 	ldr.w	r3, [r2, r3, lsl #2]
}
 80022ea:	4618      	mov	r0, r3
 80022ec:	370c      	adds	r7, #12
 80022ee:	46bd      	mov	sp, r7
 80022f0:	bc80      	pop	{r7}
 80022f2:	4770      	bx	lr
 80022f4:	200000a8 	.word	0x200000a8
 80022f8:	200003a4 	.word	0x200003a4
 80022fc:	08008acc 	.word	0x08008acc

08002300 <qFFMath_FPClassify>:
/*============================================================================*/
int qFFMath_FPClassify( const float f ) 
{
 8002300:	b480      	push	{r7}
 8002302:	b085      	sub	sp, #20
 8002304:	af00      	add	r7, sp, #0
 8002306:	6078      	str	r0, [r7, #4]
    uint32_t u = 0u;
 8002308:	2300      	movs	r3, #0
 800230a:	60bb      	str	r3, [r7, #8]
    int retVal;

    cast_reinterpret( u, f, uint32_t );
 800230c:	687b      	ldr	r3, [r7, #4]
 800230e:	60bb      	str	r3, [r7, #8]
    u &= 0x7FFFFFFFu;
 8002310:	68bb      	ldr	r3, [r7, #8]
 8002312:	f023 4300 	bic.w	r3, r3, #2147483648	; 0x80000000
 8002316:	60bb      	str	r3, [r7, #8]

    if ( 0u == u ) {
 8002318:	68bb      	ldr	r3, [r7, #8]
 800231a:	2b00      	cmp	r3, #0
 800231c:	d102      	bne.n	8002324 <qFFMath_FPClassify+0x24>
        retVal = QFFM_FP_ZERO;
 800231e:	2300      	movs	r3, #0
 8002320:	60fb      	str	r3, [r7, #12]
 8002322:	e016      	b.n	8002352 <qFFMath_FPClassify+0x52>
    }
    else if ( u < 0x00800000u ) {
 8002324:	68bb      	ldr	r3, [r7, #8]
 8002326:	f5b3 0f00 	cmp.w	r3, #8388608	; 0x800000
 800232a:	d202      	bcs.n	8002332 <qFFMath_FPClassify+0x32>
        retVal = QFFM_FP_SUBNORMAL;
 800232c:	2301      	movs	r3, #1
 800232e:	60fb      	str	r3, [r7, #12]
 8002330:	e00f      	b.n	8002352 <qFFMath_FPClassify+0x52>
    }
    else if ( u < 0x7F800000u ) {
 8002332:	68bb      	ldr	r3, [r7, #8]
 8002334:	f1b3 4fff 	cmp.w	r3, #2139095040	; 0x7f800000
 8002338:	d202      	bcs.n	8002340 <qFFMath_FPClassify+0x40>
        retVal = QFFM_FP_NORMAL;
 800233a:	2302      	movs	r3, #2
 800233c:	60fb      	str	r3, [r7, #12]
 800233e:	e008      	b.n	8002352 <qFFMath_FPClassify+0x52>
    }
    else if ( 0x7F800000U == u ) {
 8002340:	68bb      	ldr	r3, [r7, #8]
 8002342:	f1b3 4fff 	cmp.w	r3, #2139095040	; 0x7f800000
 8002346:	d102      	bne.n	800234e <qFFMath_FPClassify+0x4e>
        retVal = QFFM_FP_INFINITE;
 8002348:	2303      	movs	r3, #3
 800234a:	60fb      	str	r3, [r7, #12]
 800234c:	e001      	b.n	8002352 <qFFMath_FPClassify+0x52>
    }
    else {
        retVal = QFFM_FP_NAN;
 800234e:	2304      	movs	r3, #4
 8002350:	60fb      	str	r3, [r7, #12]
    }

    return retVal;
 8002352:	68fb      	ldr	r3, [r7, #12]
}
 8002354:	4618      	mov	r0, r3
 8002356:	3714      	adds	r7, #20
 8002358:	46bd      	mov	sp, r7
 800235a:	bc80      	pop	{r7}
 800235c:	4770      	bx	lr

0800235e <qFFMath_IsNaN>:
/*============================================================================*/
bool qFFMath_IsNaN( const float x )
{
 800235e:	b580      	push	{r7, lr}
 8002360:	b082      	sub	sp, #8
 8002362:	af00      	add	r7, sp, #0
 8002364:	6078      	str	r0, [r7, #4]
    return ( QFFM_FP_NAN == qFFMath_FPClassify( x ) );
 8002366:	6878      	ldr	r0, [r7, #4]
 8002368:	f7ff ffca 	bl	8002300 <qFFMath_FPClassify>
 800236c:	4603      	mov	r3, r0
 800236e:	2b04      	cmp	r3, #4
 8002370:	bf0c      	ite	eq
 8002372:	2301      	moveq	r3, #1
 8002374:	2300      	movne	r3, #0
 8002376:	b2db      	uxtb	r3, r3
}
 8002378:	4618      	mov	r0, r3
 800237a:	3708      	adds	r7, #8
 800237c:	46bd      	mov	sp, r7
 800237e:	bd80      	pop	{r7, pc}

08002380 <qFFMath_Abs>:
{
    return ( qFFMath_FPClassify( x ) == QFFM_FP_NORMAL );
}
/*============================================================================*/
float qFFMath_Abs( float x )
{
 8002380:	b580      	push	{r7, lr}
 8002382:	b082      	sub	sp, #8
 8002384:	af00      	add	r7, sp, #0
 8002386:	6078      	str	r0, [r7, #4]
    return ( x < 0.0f ) ? -x : x;
 8002388:	f04f 0100 	mov.w	r1, #0
 800238c:	6878      	ldr	r0, [r7, #4]
 800238e:	f7fe fe47 	bl	8001020 <__aeabi_fcmplt>
 8002392:	4603      	mov	r3, r0
 8002394:	2b00      	cmp	r3, #0
 8002396:	d003      	beq.n	80023a0 <qFFMath_Abs+0x20>
 8002398:	687b      	ldr	r3, [r7, #4]
 800239a:	f083 4300 	eor.w	r3, r3, #2147483648	; 0x80000000
 800239e:	e000      	b.n	80023a2 <qFFMath_Abs+0x22>
 80023a0:	687b      	ldr	r3, [r7, #4]
}
 80023a2:	4618      	mov	r0, r3
 80023a4:	3708      	adds	r7, #8
 80023a6:	46bd      	mov	sp, r7
 80023a8:	bd80      	pop	{r7, pc}

080023aa <qFFMath_Sqrt>:
    
    return z*( 2.0f - ( x*z ) );
}
/*============================================================================*/
float qFFMath_Sqrt( float x )
{
 80023aa:	b580      	push	{r7, lr}
 80023ac:	b086      	sub	sp, #24
 80023ae:	af00      	add	r7, sp, #0
 80023b0:	6078      	str	r0, [r7, #4]
    float retVal;

    if ( x < 0.0f ) {
 80023b2:	687b      	ldr	r3, [r7, #4]
 80023b4:	f04f 0100 	mov.w	r1, #0
 80023b8:	4618      	mov	r0, r3
 80023ba:	f7fe fe31 	bl	8001020 <__aeabi_fcmplt>
 80023be:	4603      	mov	r3, r0
 80023c0:	2b00      	cmp	r3, #0
 80023c2:	d004      	beq.n	80023ce <qFFMath_Sqrt+0x24>
        retVal = QFFM_NAN;
 80023c4:	2001      	movs	r0, #1
 80023c6:	f7ff ff7b 	bl	80022c0 <_qFFMath_GetAbnormal>
 80023ca:	6178      	str	r0, [r7, #20]
 80023cc:	e02f      	b.n	800242e <qFFMath_Sqrt+0x84>
    }
    else if ( QFFM_FP_ZERO == qFFMath_FPClassify( x ) ) {
 80023ce:	687b      	ldr	r3, [r7, #4]
 80023d0:	4618      	mov	r0, r3
 80023d2:	f7ff ff95 	bl	8002300 <qFFMath_FPClassify>
 80023d6:	4603      	mov	r3, r0
 80023d8:	2b00      	cmp	r3, #0
 80023da:	d103      	bne.n	80023e4 <qFFMath_Sqrt+0x3a>
        retVal = 0.0f;
 80023dc:	f04f 0300 	mov.w	r3, #0
 80023e0:	617b      	str	r3, [r7, #20]
 80023e2:	e024      	b.n	800242e <qFFMath_Sqrt+0x84>
    }
    else {
        uint32_t y = 0u;
 80023e4:	2300      	movs	r3, #0
 80023e6:	613b      	str	r3, [r7, #16]
        float z = 0.0f;
 80023e8:	f04f 0300 	mov.w	r3, #0
 80023ec:	60fb      	str	r3, [r7, #12]

        cast_reinterpret( y, x, uint32_t );
 80023ee:	687b      	ldr	r3, [r7, #4]
 80023f0:	613b      	str	r3, [r7, #16]
        y = ( ( y - 0x00800000u ) >> 1u ) + 0x20000000u;
 80023f2:	693b      	ldr	r3, [r7, #16]
 80023f4:	f5a3 0300 	sub.w	r3, r3, #8388608	; 0x800000
 80023f8:	085b      	lsrs	r3, r3, #1
 80023fa:	f103 5300 	add.w	r3, r3, #536870912	; 0x20000000
 80023fe:	613b      	str	r3, [r7, #16]
        cast_reinterpret( z, y, float );
 8002400:	693b      	ldr	r3, [r7, #16]
 8002402:	60fb      	str	r3, [r7, #12]
        retVal = ( ( x/z ) + z ) * 0.5f;
 8002404:	687b      	ldr	r3, [r7, #4]
 8002406:	68fa      	ldr	r2, [r7, #12]
 8002408:	4611      	mov	r1, r2
 800240a:	4618      	mov	r0, r3
 800240c:	f7fe fd1e 	bl	8000e4c <__aeabi_fdiv>
 8002410:	4603      	mov	r3, r0
 8002412:	461a      	mov	r2, r3
 8002414:	68fb      	ldr	r3, [r7, #12]
 8002416:	4619      	mov	r1, r3
 8002418:	4610      	mov	r0, r2
 800241a:	f7fe fb5b 	bl	8000ad4 <__addsf3>
 800241e:	4603      	mov	r3, r0
 8002420:	f04f 517c 	mov.w	r1, #1056964608	; 0x3f000000
 8002424:	4618      	mov	r0, r3
 8002426:	f7fe fc5d 	bl	8000ce4 <__aeabi_fmul>
 800242a:	4603      	mov	r3, r0
 800242c:	617b      	str	r3, [r7, #20]
    }

    return retVal;
 800242e:	697b      	ldr	r3, [r7, #20]
}
 8002430:	4618      	mov	r0, r3
 8002432:	3718      	adds	r7, #24
 8002434:	46bd      	mov	sp, r7
 8002436:	bd80      	pop	{r7, pc}

08002438 <qFFMath_Sin>:
    return ( QFFM_FP_ZERO == qFFMath_FPClassify( x )) ? QFFM_NAN
                                                      : ( x - ( y*qFFMath_Trunc( x/y ) ) );
}
/*============================================================================*/
float qFFMath_Sin( float x )
{
 8002438:	b580      	push	{r7, lr}
 800243a:	b084      	sub	sp, #16
 800243c:	af00      	add	r7, sp, #0
 800243e:	6078      	str	r0, [r7, #4]
    float y;
    x *= -0.318309886f;
 8002440:	491e      	ldr	r1, [pc, #120]	; (80024bc <qFFMath_Sin+0x84>)
 8002442:	6878      	ldr	r0, [r7, #4]
 8002444:	f7fe fc4e 	bl	8000ce4 <__aeabi_fmul>
 8002448:	4603      	mov	r3, r0
 800244a:	607b      	str	r3, [r7, #4]
    y = x + 25165824.0f;
 800244c:	491c      	ldr	r1, [pc, #112]	; (80024c0 <qFFMath_Sin+0x88>)
 800244e:	6878      	ldr	r0, [r7, #4]
 8002450:	f7fe fb40 	bl	8000ad4 <__addsf3>
 8002454:	4603      	mov	r3, r0
 8002456:	60fb      	str	r3, [r7, #12]
    x -= y - 25165824.0f;
 8002458:	4919      	ldr	r1, [pc, #100]	; (80024c0 <qFFMath_Sin+0x88>)
 800245a:	68f8      	ldr	r0, [r7, #12]
 800245c:	f7fe fb38 	bl	8000ad0 <__aeabi_fsub>
 8002460:	4603      	mov	r3, r0
 8002462:	4619      	mov	r1, r3
 8002464:	6878      	ldr	r0, [r7, #4]
 8002466:	f7fe fb33 	bl	8000ad0 <__aeabi_fsub>
 800246a:	4603      	mov	r3, r0
 800246c:	607b      	str	r3, [r7, #4]
    x *= qFFMath_Abs( x ) - 1.0f;
 800246e:	6878      	ldr	r0, [r7, #4]
 8002470:	f7ff ff86 	bl	8002380 <qFFMath_Abs>
 8002474:	4603      	mov	r3, r0
 8002476:	f04f 517e 	mov.w	r1, #1065353216	; 0x3f800000
 800247a:	4618      	mov	r0, r3
 800247c:	f7fe fb28 	bl	8000ad0 <__aeabi_fsub>
 8002480:	4603      	mov	r3, r0
 8002482:	4619      	mov	r1, r3
 8002484:	6878      	ldr	r0, [r7, #4]
 8002486:	f7fe fc2d 	bl	8000ce4 <__aeabi_fmul>
 800248a:	4603      	mov	r3, r0
 800248c:	607b      	str	r3, [r7, #4]
    return x*( ( 3.5841304553896f*qFFMath_Abs( x ) ) + 3.1039673861526f );
 800248e:	6878      	ldr	r0, [r7, #4]
 8002490:	f7ff ff76 	bl	8002380 <qFFMath_Abs>
 8002494:	4603      	mov	r3, r0
 8002496:	490b      	ldr	r1, [pc, #44]	; (80024c4 <qFFMath_Sin+0x8c>)
 8002498:	4618      	mov	r0, r3
 800249a:	f7fe fc23 	bl	8000ce4 <__aeabi_fmul>
 800249e:	4603      	mov	r3, r0
 80024a0:	4909      	ldr	r1, [pc, #36]	; (80024c8 <qFFMath_Sin+0x90>)
 80024a2:	4618      	mov	r0, r3
 80024a4:	f7fe fb16 	bl	8000ad4 <__addsf3>
 80024a8:	4603      	mov	r3, r0
 80024aa:	6879      	ldr	r1, [r7, #4]
 80024ac:	4618      	mov	r0, r3
 80024ae:	f7fe fc19 	bl	8000ce4 <__aeabi_fmul>
 80024b2:	4603      	mov	r3, r0
}
 80024b4:	4618      	mov	r0, r3
 80024b6:	3710      	adds	r7, #16
 80024b8:	46bd      	mov	sp, r7
 80024ba:	bd80      	pop	{r7, pc}
 80024bc:	bea2f983 	.word	0xbea2f983
 80024c0:	4bc00000 	.word	0x4bc00000
 80024c4:	40656265 	.word	0x40656265
 80024c8:	4046a767 	.word	0x4046a767

080024cc <qFFMath_Cos>:
/*============================================================================*/
float qFFMath_Cos( float x )
{
 80024cc:	b580      	push	{r7, lr}
 80024ce:	b082      	sub	sp, #8
 80024d0:	af00      	add	r7, sp, #0
 80024d2:	6078      	str	r0, [r7, #4]
    return qFFMath_Sin( x + 1.570796327f );
 80024d4:	4906      	ldr	r1, [pc, #24]	; (80024f0 <qFFMath_Cos+0x24>)
 80024d6:	6878      	ldr	r0, [r7, #4]
 80024d8:	f7fe fafc 	bl	8000ad4 <__addsf3>
 80024dc:	4603      	mov	r3, r0
 80024de:	4618      	mov	r0, r3
 80024e0:	f7ff ffaa 	bl	8002438 <qFFMath_Sin>
 80024e4:	4603      	mov	r3, r0
}
 80024e6:	4618      	mov	r0, r3
 80024e8:	3708      	adds	r7, #8
 80024ea:	46bd      	mov	sp, r7
 80024ec:	bd80      	pop	{r7, pc}
 80024ee:	bf00      	nop
 80024f0:	3fc90fdb 	.word	0x3fc90fdb

080024f4 <qFFMath_Exp2>:
    y = qFFMath_ATan( y/( x + f ) ) + ( ( x < 0.0f ) ? t : 0.0f );
    return y + ( f*( ( 0.5f*t ) - y ) );
}
/*============================================================================*/
float qFFMath_Exp2( float x )
{
 80024f4:	b580      	push	{r7, lr}
 80024f6:	b086      	sub	sp, #24
 80024f8:	af00      	add	r7, sp, #0
 80024fa:	6078      	str	r0, [r7, #4]
    float retVal;

    if ( x <= -126.0f ) {
 80024fc:	492e      	ldr	r1, [pc, #184]	; (80025b8 <qFFMath_Exp2+0xc4>)
 80024fe:	6878      	ldr	r0, [r7, #4]
 8002500:	f7fe fd98 	bl	8001034 <__aeabi_fcmple>
 8002504:	4603      	mov	r3, r0
 8002506:	2b00      	cmp	r3, #0
 8002508:	d003      	beq.n	8002512 <qFFMath_Exp2+0x1e>
        retVal = 0.0f;
 800250a:	f04f 0300 	mov.w	r3, #0
 800250e:	617b      	str	r3, [r7, #20]
 8002510:	e04c      	b.n	80025ac <qFFMath_Exp2+0xb8>
    }
    else if ( x > 128.0f ) {
 8002512:	f04f 4186 	mov.w	r1, #1124073472	; 0x43000000
 8002516:	6878      	ldr	r0, [r7, #4]
 8002518:	f7fe fda0 	bl	800105c <__aeabi_fcmpgt>
 800251c:	4603      	mov	r3, r0
 800251e:	2b00      	cmp	r3, #0
 8002520:	d004      	beq.n	800252c <qFFMath_Exp2+0x38>
        retVal = QFFM_INFINITY;
 8002522:	2000      	movs	r0, #0
 8002524:	f7ff fecc 	bl	80022c0 <_qFFMath_GetAbnormal>
 8002528:	6178      	str	r0, [r7, #20]
 800252a:	e03f      	b.n	80025ac <qFFMath_Exp2+0xb8>
    }
    else {
        float y = 0.0f;
 800252c:	f04f 0300 	mov.w	r3, #0
 8002530:	613b      	str	r3, [r7, #16]
        uint32_t exponent;
        /*cstat -CERT-FLP34-C -MISRAC2012-Rule-10.8*/
        exponent = (uint32_t)( x + 127.0f );
 8002532:	4922      	ldr	r1, [pc, #136]	; (80025bc <qFFMath_Exp2+0xc8>)
 8002534:	6878      	ldr	r0, [r7, #4]
 8002536:	f7fe facd 	bl	8000ad4 <__addsf3>
 800253a:	4603      	mov	r3, r0
 800253c:	4618      	mov	r0, r3
 800253e:	f7fe fd97 	bl	8001070 <__aeabi_f2uiz>
 8002542:	4603      	mov	r3, r0
 8002544:	60fb      	str	r3, [r7, #12]
        /*cstat +CERT-FLP34-C +MISRAC2012-Rule-10.8 -CERT-FLP36-C*/
        x += 127.0f - (float)exponent;
 8002546:	68fb      	ldr	r3, [r7, #12]
 8002548:	4618      	mov	r0, r3
 800254a:	f7fe fb73 	bl	8000c34 <__aeabi_ui2f>
 800254e:	4603      	mov	r3, r0
 8002550:	4619      	mov	r1, r3
 8002552:	481a      	ldr	r0, [pc, #104]	; (80025bc <qFFMath_Exp2+0xc8>)
 8002554:	f7fe fabc 	bl	8000ad0 <__aeabi_fsub>
 8002558:	4603      	mov	r3, r0
 800255a:	4619      	mov	r1, r3
 800255c:	6878      	ldr	r0, [r7, #4]
 800255e:	f7fe fab9 	bl	8000ad4 <__addsf3>
 8002562:	4603      	mov	r3, r0
 8002564:	607b      	str	r3, [r7, #4]
        /*cstat +CERT-FLP36-C*/
        exponent <<= 23u;
 8002566:	68fb      	ldr	r3, [r7, #12]
 8002568:	05db      	lsls	r3, r3, #23
 800256a:	60fb      	str	r3, [r7, #12]
        cast_reinterpret( y, exponent, float );
 800256c:	68fb      	ldr	r3, [r7, #12]
 800256e:	613b      	str	r3, [r7, #16]
        x *= ( x*0.339766027f ) + 0.660233972f;
 8002570:	4913      	ldr	r1, [pc, #76]	; (80025c0 <qFFMath_Exp2+0xcc>)
 8002572:	6878      	ldr	r0, [r7, #4]
 8002574:	f7fe fbb6 	bl	8000ce4 <__aeabi_fmul>
 8002578:	4603      	mov	r3, r0
 800257a:	4912      	ldr	r1, [pc, #72]	; (80025c4 <qFFMath_Exp2+0xd0>)
 800257c:	4618      	mov	r0, r3
 800257e:	f7fe faa9 	bl	8000ad4 <__addsf3>
 8002582:	4603      	mov	r3, r0
 8002584:	4619      	mov	r1, r3
 8002586:	6878      	ldr	r0, [r7, #4]
 8002588:	f7fe fbac 	bl	8000ce4 <__aeabi_fmul>
 800258c:	4603      	mov	r3, r0
 800258e:	607b      	str	r3, [r7, #4]
        retVal = y*( x + 1.0f );
 8002590:	f04f 517e 	mov.w	r1, #1065353216	; 0x3f800000
 8002594:	6878      	ldr	r0, [r7, #4]
 8002596:	f7fe fa9d 	bl	8000ad4 <__addsf3>
 800259a:	4603      	mov	r3, r0
 800259c:	461a      	mov	r2, r3
 800259e:	693b      	ldr	r3, [r7, #16]
 80025a0:	4619      	mov	r1, r3
 80025a2:	4610      	mov	r0, r2
 80025a4:	f7fe fb9e 	bl	8000ce4 <__aeabi_fmul>
 80025a8:	4603      	mov	r3, r0
 80025aa:	617b      	str	r3, [r7, #20]
    }

    return retVal;
 80025ac:	697b      	ldr	r3, [r7, #20]
}
 80025ae:	4618      	mov	r0, r3
 80025b0:	3718      	adds	r7, #24
 80025b2:	46bd      	mov	sp, r7
 80025b4:	bd80      	pop	{r7, pc}
 80025b6:	bf00      	nop
 80025b8:	c2fc0000 	.word	0xc2fc0000
 80025bc:	42fe0000 	.word	0x42fe0000
 80025c0:	3eadf5d0 	.word	0x3eadf5d0
 80025c4:	3f290518 	.word	0x3f290518

080025c8 <qFFMath_Log2>:
/*============================================================================*/
float qFFMath_Log2( float x )
{
 80025c8:	b580      	push	{r7, lr}
 80025ca:	b086      	sub	sp, #24
 80025cc:	af00      	add	r7, sp, #0
 80025ce:	6078      	str	r0, [r7, #4]
    float retVal;

    if ( x < 0.0f ) {
 80025d0:	687b      	ldr	r3, [r7, #4]
 80025d2:	f04f 0100 	mov.w	r1, #0
 80025d6:	4618      	mov	r0, r3
 80025d8:	f7fe fd22 	bl	8001020 <__aeabi_fcmplt>
 80025dc:	4603      	mov	r3, r0
 80025de:	2b00      	cmp	r3, #0
 80025e0:	d004      	beq.n	80025ec <qFFMath_Log2+0x24>
        retVal = QFFM_NAN;
 80025e2:	2001      	movs	r0, #1
 80025e4:	f7ff fe6c 	bl	80022c0 <_qFFMath_GetAbnormal>
 80025e8:	6178      	str	r0, [r7, #20]
 80025ea:	e049      	b.n	8002680 <qFFMath_Log2+0xb8>
    }
    else if ( QFFM_FP_ZERO == qFFMath_FPClassify( x ) ) {
 80025ec:	687b      	ldr	r3, [r7, #4]
 80025ee:	4618      	mov	r0, r3
 80025f0:	f7ff fe86 	bl	8002300 <qFFMath_FPClassify>
 80025f4:	4603      	mov	r3, r0
 80025f6:	2b00      	cmp	r3, #0
 80025f8:	d107      	bne.n	800260a <qFFMath_Log2+0x42>
        retVal = -QFFM_INFINITY;
 80025fa:	2000      	movs	r0, #0
 80025fc:	f7ff fe60 	bl	80022c0 <_qFFMath_GetAbnormal>
 8002600:	4603      	mov	r3, r0
 8002602:	f083 4300 	eor.w	r3, r3, #2147483648	; 0x80000000
 8002606:	617b      	str	r3, [r7, #20]
 8002608:	e03a      	b.n	8002680 <qFFMath_Log2+0xb8>
    }
    else {
        uint32_t y = 0u, y2;
 800260a:	2300      	movs	r3, #0
 800260c:	60fb      	str	r3, [r7, #12]

        cast_reinterpret( y, x, uint32_t );
 800260e:	687b      	ldr	r3, [r7, #4]
 8002610:	60fb      	str	r3, [r7, #12]
        y2 = y;
 8002612:	68fb      	ldr	r3, [r7, #12]
 8002614:	613b      	str	r3, [r7, #16]
        y >>= 23u;
 8002616:	68fb      	ldr	r3, [r7, #12]
 8002618:	0ddb      	lsrs	r3, r3, #23
 800261a:	60fb      	str	r3, [r7, #12]
        /*cstat -CERT-FLP36-C*/
        retVal = (float)y;
 800261c:	68fb      	ldr	r3, [r7, #12]
 800261e:	4618      	mov	r0, r3
 8002620:	f7fe fb08 	bl	8000c34 <__aeabi_ui2f>
 8002624:	4603      	mov	r3, r0
 8002626:	617b      	str	r3, [r7, #20]
        /*cstat +CERT-FLP36-C*/
        y = ( y2 & 0x007FFFFFu ) | 0x3F800000u;
 8002628:	693b      	ldr	r3, [r7, #16]
 800262a:	f3c3 0316 	ubfx	r3, r3, #0, #23
 800262e:	f043 537e 	orr.w	r3, r3, #1065353216	; 0x3f800000
 8002632:	60fb      	str	r3, [r7, #12]
        cast_reinterpret( x, y, float );
 8002634:	68fb      	ldr	r3, [r7, #12]
 8002636:	607b      	str	r3, [r7, #4]
        retVal += -128.0f + ( x*( ( -0.333333333f*x ) + 2.0f ) ) - 0.666666666f;
 8002638:	687b      	ldr	r3, [r7, #4]
 800263a:	4914      	ldr	r1, [pc, #80]	; (800268c <qFFMath_Log2+0xc4>)
 800263c:	4618      	mov	r0, r3
 800263e:	f7fe fb51 	bl	8000ce4 <__aeabi_fmul>
 8002642:	4603      	mov	r3, r0
 8002644:	f04f 4180 	mov.w	r1, #1073741824	; 0x40000000
 8002648:	4618      	mov	r0, r3
 800264a:	f7fe fa43 	bl	8000ad4 <__addsf3>
 800264e:	4603      	mov	r3, r0
 8002650:	461a      	mov	r2, r3
 8002652:	687b      	ldr	r3, [r7, #4]
 8002654:	4619      	mov	r1, r3
 8002656:	4610      	mov	r0, r2
 8002658:	f7fe fb44 	bl	8000ce4 <__aeabi_fmul>
 800265c:	4603      	mov	r3, r0
 800265e:	f04f 4186 	mov.w	r1, #1124073472	; 0x43000000
 8002662:	4618      	mov	r0, r3
 8002664:	f7fe fa34 	bl	8000ad0 <__aeabi_fsub>
 8002668:	4603      	mov	r3, r0
 800266a:	4909      	ldr	r1, [pc, #36]	; (8002690 <qFFMath_Log2+0xc8>)
 800266c:	4618      	mov	r0, r3
 800266e:	f7fe fa2f 	bl	8000ad0 <__aeabi_fsub>
 8002672:	4603      	mov	r3, r0
 8002674:	4619      	mov	r1, r3
 8002676:	6978      	ldr	r0, [r7, #20]
 8002678:	f7fe fa2c 	bl	8000ad4 <__addsf3>
 800267c:	4603      	mov	r3, r0
 800267e:	617b      	str	r3, [r7, #20]
    }

    return retVal;
 8002680:	697b      	ldr	r3, [r7, #20]
}
 8002682:	4618      	mov	r0, r3
 8002684:	3718      	adds	r7, #24
 8002686:	46bd      	mov	sp, r7
 8002688:	bd80      	pop	{r7, pc}
 800268a:	bf00      	nop
 800268c:	beaaaaab 	.word	0xbeaaaaab
 8002690:	3f2aaaab 	.word	0x3f2aaaab

08002694 <qFFMath_Exp>:
/*============================================================================*/
float qFFMath_Exp( float x )
{
 8002694:	b580      	push	{r7, lr}
 8002696:	b082      	sub	sp, #8
 8002698:	af00      	add	r7, sp, #0
 800269a:	6078      	str	r0, [r7, #4]
    return qFFMath_Exp2( 1.442695041f*x );
 800269c:	4906      	ldr	r1, [pc, #24]	; (80026b8 <qFFMath_Exp+0x24>)
 800269e:	6878      	ldr	r0, [r7, #4]
 80026a0:	f7fe fb20 	bl	8000ce4 <__aeabi_fmul>
 80026a4:	4603      	mov	r3, r0
 80026a6:	4618      	mov	r0, r3
 80026a8:	f7ff ff24 	bl	80024f4 <qFFMath_Exp2>
 80026ac:	4603      	mov	r3, r0
}
 80026ae:	4618      	mov	r0, r3
 80026b0:	3708      	adds	r7, #8
 80026b2:	46bd      	mov	sp, r7
 80026b4:	bd80      	pop	{r7, pc}
 80026b6:	bf00      	nop
 80026b8:	3fb8aa3b 	.word	0x3fb8aa3b

080026bc <qFFMath_Log>:
{
    return qFFMath_Exp2( 3.32192809f*x );
}
/*============================================================================*/
float qFFMath_Log( float x )
{
 80026bc:	b580      	push	{r7, lr}
 80026be:	b082      	sub	sp, #8
 80026c0:	af00      	add	r7, sp, #0
 80026c2:	6078      	str	r0, [r7, #4]
    return 0.693147181f*qFFMath_Log2(x);
 80026c4:	6878      	ldr	r0, [r7, #4]
 80026c6:	f7ff ff7f 	bl	80025c8 <qFFMath_Log2>
 80026ca:	4603      	mov	r3, r0
 80026cc:	4904      	ldr	r1, [pc, #16]	; (80026e0 <qFFMath_Log+0x24>)
 80026ce:	4618      	mov	r0, r3
 80026d0:	f7fe fb08 	bl	8000ce4 <__aeabi_fmul>
 80026d4:	4603      	mov	r3, r0
}
 80026d6:	4618      	mov	r0, r3
 80026d8:	3708      	adds	r7, #8
 80026da:	46bd      	mov	sp, r7
 80026dc:	bd80      	pop	{r7, pc}
 80026de:	bf00      	nop
 80026e0:	3f317218 	.word	0x3f317218

080026e4 <qFFMath_Pow>:
    return 0.301029996f*qFFMath_Log2(x);
}
/*============================================================================*/
float qFFMath_Pow( float b,
                   float e )
{
 80026e4:	b580      	push	{r7, lr}
 80026e6:	b082      	sub	sp, #8
 80026e8:	af00      	add	r7, sp, #0
 80026ea:	6078      	str	r0, [r7, #4]
 80026ec:	6039      	str	r1, [r7, #0]
    return qFFMath_Exp2( e*qFFMath_Log2( b ) );
 80026ee:	6878      	ldr	r0, [r7, #4]
 80026f0:	f7ff ff6a 	bl	80025c8 <qFFMath_Log2>
 80026f4:	4603      	mov	r3, r0
 80026f6:	6839      	ldr	r1, [r7, #0]
 80026f8:	4618      	mov	r0, r3
 80026fa:	f7fe faf3 	bl	8000ce4 <__aeabi_fmul>
 80026fe:	4603      	mov	r3, r0
 8002700:	4618      	mov	r0, r3
 8002702:	f7ff fef7 	bl	80024f4 <qFFMath_Exp2>
 8002706:	4603      	mov	r3, r0
}
 8002708:	4618      	mov	r0, r3
 800270a:	3708      	adds	r7, #8
 800270c:	46bd      	mov	sp, r7
 800270e:	bd80      	pop	{r7, pc}

08002710 <qFIS_SetParameter>:

/*============================================================================*/
int qFIS_SetParameter( qFIS_t * const f,
                       const qFIS_Parameter_t p,
                       const qFIS_ParamValue_t x )
{
 8002710:	b480      	push	{r7}
 8002712:	b085      	sub	sp, #20
 8002714:	af00      	add	r7, sp, #0
 8002716:	6078      	str	r0, [r7, #4]
 8002718:	460b      	mov	r3, r1
 800271a:	70fb      	strb	r3, [r7, #3]
 800271c:	4613      	mov	r3, r2
 800271e:	70bb      	strb	r3, [r7, #2]
    int retVal = 0;
 8002720:	2300      	movs	r3, #0
 8002722:	60fb      	str	r3, [r7, #12]
    typedef float (*methods_fcn)( const float a, const float b );
    static const methods_fcn method[ 5 ] = { &qFIS_Min, &qFIS_Prod, &qFIS_Max,
                                             &qFIS_ProbOR, &qFIS_Sum
                                           };

    if ( NULL != f ) {
 8002724:	687b      	ldr	r3, [r7, #4]
 8002726:	2b00      	cmp	r3, #0
 8002728:	d04f      	beq.n	80027ca <qFIS_SetParameter+0xba>
        switch ( p ) {
 800272a:	78fb      	ldrb	r3, [r7, #3]
 800272c:	2b04      	cmp	r3, #4
 800272e:	d84e      	bhi.n	80027ce <qFIS_SetParameter+0xbe>
 8002730:	a201      	add	r2, pc, #4	; (adr r2, 8002738 <qFIS_SetParameter+0x28>)
 8002732:	f852 f023 	ldr.w	pc, [r2, r3, lsl #2]
 8002736:	bf00      	nop
 8002738:	0800274d 	.word	0x0800274d
 800273c:	08002765 	.word	0x08002765
 8002740:	08002783 	.word	0x08002783
 8002744:	0800279b 	.word	0x0800279b
 8002748:	080027b9 	.word	0x080027b9
            case qFIS_Implication:
                if ( x <= qFIS_PROD ) {
 800274c:	78bb      	ldrb	r3, [r7, #2]
 800274e:	2b01      	cmp	r3, #1
 8002750:	d83f      	bhi.n	80027d2 <qFIS_SetParameter+0xc2>
                    f->implicate = method[ x ];
 8002752:	78bb      	ldrb	r3, [r7, #2]
 8002754:	4a26      	ldr	r2, [pc, #152]	; (80027f0 <qFIS_SetParameter+0xe0>)
 8002756:	f852 2023 	ldr.w	r2, [r2, r3, lsl #2]
 800275a:	687b      	ldr	r3, [r7, #4]
 800275c:	619a      	str	r2, [r3, #24]
                    retVal = 1;
 800275e:	2301      	movs	r3, #1
 8002760:	60fb      	str	r3, [r7, #12]
                }
                break;
 8002762:	e036      	b.n	80027d2 <qFIS_SetParameter+0xc2>
            case qFIS_Aggregation:
                if ( ( x >= qFIS_MAX ) && ( x <= qFIS_SUM ) ) {
 8002764:	78bb      	ldrb	r3, [r7, #2]
 8002766:	2b01      	cmp	r3, #1
 8002768:	d935      	bls.n	80027d6 <qFIS_SetParameter+0xc6>
 800276a:	78bb      	ldrb	r3, [r7, #2]
 800276c:	2b04      	cmp	r3, #4
 800276e:	d832      	bhi.n	80027d6 <qFIS_SetParameter+0xc6>
                    f->aggregate = method[ x ];
 8002770:	78bb      	ldrb	r3, [r7, #2]
 8002772:	4a1f      	ldr	r2, [pc, #124]	; (80027f0 <qFIS_SetParameter+0xe0>)
 8002774:	f852 2023 	ldr.w	r2, [r2, r3, lsl #2]
 8002778:	687b      	ldr	r3, [r7, #4]
 800277a:	61da      	str	r2, [r3, #28]
                    retVal = 1;
 800277c:	2301      	movs	r3, #1
 800277e:	60fb      	str	r3, [r7, #12]
                }
                break;
 8002780:	e029      	b.n	80027d6 <qFIS_SetParameter+0xc6>
            case qFIS_AND:
                if ( x <= qFIS_PROD ) {
 8002782:	78bb      	ldrb	r3, [r7, #2]
 8002784:	2b01      	cmp	r3, #1
 8002786:	d828      	bhi.n	80027da <qFIS_SetParameter+0xca>
                    f->andOp = method[ x ];
 8002788:	78bb      	ldrb	r3, [r7, #2]
 800278a:	4a19      	ldr	r2, [pc, #100]	; (80027f0 <qFIS_SetParameter+0xe0>)
 800278c:	f852 2023 	ldr.w	r2, [r2, r3, lsl #2]
 8002790:	687b      	ldr	r3, [r7, #4]
 8002792:	611a      	str	r2, [r3, #16]
                    retVal = 1;
 8002794:	2301      	movs	r3, #1
 8002796:	60fb      	str	r3, [r7, #12]
                }
                break;
 8002798:	e01f      	b.n	80027da <qFIS_SetParameter+0xca>
            case qFIS_OR:
                if ( ( x >= qFIS_MAX ) && ( x <= qFIS_PROBOR ) ) {
 800279a:	78bb      	ldrb	r3, [r7, #2]
 800279c:	2b01      	cmp	r3, #1
 800279e:	d91e      	bls.n	80027de <qFIS_SetParameter+0xce>
 80027a0:	78bb      	ldrb	r3, [r7, #2]
 80027a2:	2b03      	cmp	r3, #3
 80027a4:	d81b      	bhi.n	80027de <qFIS_SetParameter+0xce>
                    f->orOp = method[ x ];
 80027a6:	78bb      	ldrb	r3, [r7, #2]
 80027a8:	4a11      	ldr	r2, [pc, #68]	; (80027f0 <qFIS_SetParameter+0xe0>)
 80027aa:	f852 2023 	ldr.w	r2, [r2, r3, lsl #2]
 80027ae:	687b      	ldr	r3, [r7, #4]
 80027b0:	615a      	str	r2, [r3, #20]
                    retVal = 1;
 80027b2:	2301      	movs	r3, #1
 80027b4:	60fb      	str	r3, [r7, #12]
                }
                break;
 80027b6:	e012      	b.n	80027de <qFIS_SetParameter+0xce>
            case qFIS_EvalPoints:
                if ( (int)x >= 20 ) {
 80027b8:	78bb      	ldrb	r3, [r7, #2]
 80027ba:	2b13      	cmp	r3, #19
 80027bc:	d911      	bls.n	80027e2 <qFIS_SetParameter+0xd2>
                    f->nPoints = (size_t)x;
 80027be:	78ba      	ldrb	r2, [r7, #2]
 80027c0:	687b      	ldr	r3, [r7, #4]
 80027c2:	64da      	str	r2, [r3, #76]	; 0x4c
                    retVal = 1;
 80027c4:	2301      	movs	r3, #1
 80027c6:	60fb      	str	r3, [r7, #12]
                }
                break;
 80027c8:	e00b      	b.n	80027e2 <qFIS_SetParameter+0xd2>
            default:
                break;
        }
    }
 80027ca:	bf00      	nop
 80027cc:	e00a      	b.n	80027e4 <qFIS_SetParameter+0xd4>
                break;
 80027ce:	bf00      	nop
 80027d0:	e008      	b.n	80027e4 <qFIS_SetParameter+0xd4>
                break;
 80027d2:	bf00      	nop
 80027d4:	e006      	b.n	80027e4 <qFIS_SetParameter+0xd4>
                break;
 80027d6:	bf00      	nop
 80027d8:	e004      	b.n	80027e4 <qFIS_SetParameter+0xd4>
                break;
 80027da:	bf00      	nop
 80027dc:	e002      	b.n	80027e4 <qFIS_SetParameter+0xd4>
                break;
 80027de:	bf00      	nop
 80027e0:	e000      	b.n	80027e4 <qFIS_SetParameter+0xd4>
                break;
 80027e2:	bf00      	nop

    return retVal;
 80027e4:	68fb      	ldr	r3, [r7, #12]
}
 80027e6:	4618      	mov	r0, r3
 80027e8:	3714      	adds	r7, #20
 80027ea:	46bd      	mov	sp, r7
 80027ec:	bc80      	pop	{r7}
 80027ee:	4770      	bx	lr
 80027f0:	08008ad4 	.word	0x08008ad4

080027f4 <qFIS_Setup>:
                qFIS_MF_t *const mf_outputs,
                const size_t nmo,
                const qFIS_Rules_t * const r,
                float *wi,
                const size_t n )
{
 80027f4:	b5b0      	push	{r4, r5, r7, lr}
 80027f6:	b086      	sub	sp, #24
 80027f8:	af00      	add	r7, sp, #0
 80027fa:	60f8      	str	r0, [r7, #12]
 80027fc:	607a      	str	r2, [r7, #4]
 80027fe:	603b      	str	r3, [r7, #0]
 8002800:	460b      	mov	r3, r1
 8002802:	72fb      	strb	r3, [r7, #11]
    int retVal = 0;
 8002804:	2300      	movs	r3, #0
 8002806:	617b      	str	r3, [r7, #20]

    if ( ( NULL != f ) && ( t <= Tsukamoto ) && ( NULL != r ) && ( NULL != wi ) ) {
 8002808:	68fb      	ldr	r3, [r7, #12]
 800280a:	2b00      	cmp	r3, #0
 800280c:	f000 80bb 	beq.w	8002986 <qFIS_Setup+0x192>
 8002810:	7afb      	ldrb	r3, [r7, #11]
 8002812:	2b02      	cmp	r3, #2
 8002814:	f200 80b7 	bhi.w	8002986 <qFIS_Setup+0x192>
 8002818:	6c3b      	ldr	r3, [r7, #64]	; 0x40
 800281a:	2b00      	cmp	r3, #0
 800281c:	f000 80b3 	beq.w	8002986 <qFIS_Setup+0x192>
 8002820:	6c7b      	ldr	r3, [r7, #68]	; 0x44
 8002822:	2b00      	cmp	r3, #0
 8002824:	f000 80af 	beq.w	8002986 <qFIS_Setup+0x192>
        size_t i;

        f->nInputs = ni/sizeof(qFIS_Input_t);
 8002828:	683b      	ldr	r3, [r7, #0]
 800282a:	4a59      	ldr	r2, [pc, #356]	; (8002990 <qFIS_Setup+0x19c>)
 800282c:	fba2 2303 	umull	r2, r3, r2, r3
 8002830:	08da      	lsrs	r2, r3, #3
 8002832:	68fb      	ldr	r3, [r7, #12]
 8002834:	63da      	str	r2, [r3, #60]	; 0x3c
        f->nOutputs = no/sizeof(qFIS_Output_t);
 8002836:	6afb      	ldr	r3, [r7, #44]	; 0x2c
 8002838:	4a56      	ldr	r2, [pc, #344]	; (8002994 <qFIS_Setup+0x1a0>)
 800283a:	fba2 2303 	umull	r2, r3, r2, r3
 800283e:	091a      	lsrs	r2, r3, #4
 8002840:	68fb      	ldr	r3, [r7, #12]
 8002842:	641a      	str	r2, [r3, #64]	; 0x40
        f->nMFInputs = nmi/sizeof(qFIS_MF_t);
 8002844:	6b7b      	ldr	r3, [r7, #52]	; 0x34
 8002846:	4a54      	ldr	r2, [pc, #336]	; (8002998 <qFIS_Setup+0x1a4>)
 8002848:	fba2 2303 	umull	r2, r3, r2, r3
 800284c:	091a      	lsrs	r2, r3, #4
 800284e:	68fb      	ldr	r3, [r7, #12]
 8002850:	645a      	str	r2, [r3, #68]	; 0x44
        f->nMFOutputs = nmo/sizeof(qFIS_MF_t);
 8002852:	6bfb      	ldr	r3, [r7, #60]	; 0x3c
 8002854:	4a50      	ldr	r2, [pc, #320]	; (8002998 <qFIS_Setup+0x1a4>)
 8002856:	fba2 2303 	umull	r2, r3, r2, r3
 800285a:	091a      	lsrs	r2, r3, #4
 800285c:	68fb      	ldr	r3, [r7, #12]
 800285e:	649a      	str	r2, [r3, #72]	; 0x48
        f->input = inputs;
 8002860:	68fb      	ldr	r3, [r7, #12]
 8002862:	687a      	ldr	r2, [r7, #4]
 8002864:	601a      	str	r2, [r3, #0]
        f->output = outputs;
 8002866:	68fb      	ldr	r3, [r7, #12]
 8002868:	6aba      	ldr	r2, [r7, #40]	; 0x28
 800286a:	605a      	str	r2, [r3, #4]
        f->inMF = mf_inputs;
 800286c:	68fb      	ldr	r3, [r7, #12]
 800286e:	6b3a      	ldr	r2, [r7, #48]	; 0x30
 8002870:	609a      	str	r2, [r3, #8]
        f->outMF = mf_outputs;
 8002872:	68fb      	ldr	r3, [r7, #12]
 8002874:	6bba      	ldr	r2, [r7, #56]	; 0x38
 8002876:	60da      	str	r2, [r3, #12]
        f->wi = wi;
 8002878:	68fb      	ldr	r3, [r7, #12]
 800287a:	6c7a      	ldr	r2, [r7, #68]	; 0x44
 800287c:	631a      	str	r2, [r3, #48]	; 0x30
        f->rules = r;
 800287e:	68fb      	ldr	r3, [r7, #12]
 8002880:	6c3a      	ldr	r2, [r7, #64]	; 0x40
 8002882:	635a      	str	r2, [r3, #52]	; 0x34
        f->nRules = n;
 8002884:	68fb      	ldr	r3, [r7, #12]
 8002886:	6cba      	ldr	r2, [r7, #72]	; 0x48
 8002888:	651a      	str	r2, [r3, #80]	; 0x50
        f->type = t;
 800288a:	68fb      	ldr	r3, [r7, #12]
 800288c:	7afa      	ldrb	r2, [r7, #11]
 800288e:	f883 205e 	strb.w	r2, [r3, #94]	; 0x5e
        retVal += qFIS_SetParameter( f, qFIS_EvalPoints, (qFIS_ParamValue_t)100 );
 8002892:	2264      	movs	r2, #100	; 0x64
 8002894:	2104      	movs	r1, #4
 8002896:	68f8      	ldr	r0, [r7, #12]
 8002898:	f7ff ff3a 	bl	8002710 <qFIS_SetParameter>
 800289c:	4602      	mov	r2, r0
 800289e:	697b      	ldr	r3, [r7, #20]
 80028a0:	4413      	add	r3, r2
 80028a2:	617b      	str	r3, [r7, #20]
        retVal += qFIS_SetParameter( f, qFIS_AND, qFIS_MIN );
 80028a4:	2200      	movs	r2, #0
 80028a6:	2102      	movs	r1, #2
 80028a8:	68f8      	ldr	r0, [r7, #12]
 80028aa:	f7ff ff31 	bl	8002710 <qFIS_SetParameter>
 80028ae:	4602      	mov	r2, r0
 80028b0:	697b      	ldr	r3, [r7, #20]
 80028b2:	4413      	add	r3, r2
 80028b4:	617b      	str	r3, [r7, #20]
        retVal += qFIS_SetParameter( f, qFIS_OR, qFIS_MAX );
 80028b6:	2202      	movs	r2, #2
 80028b8:	2103      	movs	r1, #3
 80028ba:	68f8      	ldr	r0, [r7, #12]
 80028bc:	f7ff ff28 	bl	8002710 <qFIS_SetParameter>
 80028c0:	4602      	mov	r2, r0
 80028c2:	697b      	ldr	r3, [r7, #20]
 80028c4:	4413      	add	r3, r2
 80028c6:	617b      	str	r3, [r7, #20]
        retVal += qFIS_SetParameter( f, qFIS_Implication, qFIS_MIN );
 80028c8:	2200      	movs	r2, #0
 80028ca:	2100      	movs	r1, #0
 80028cc:	68f8      	ldr	r0, [r7, #12]
 80028ce:	f7ff ff1f 	bl	8002710 <qFIS_SetParameter>
 80028d2:	4602      	mov	r2, r0
 80028d4:	697b      	ldr	r3, [r7, #20]
 80028d6:	4413      	add	r3, r2
 80028d8:	617b      	str	r3, [r7, #20]
        retVal += qFIS_SetParameter( f, qFIS_Aggregation, qFIS_MAX );
 80028da:	2202      	movs	r2, #2
 80028dc:	2101      	movs	r1, #1
 80028de:	68f8      	ldr	r0, [r7, #12]
 80028e0:	f7ff ff16 	bl	8002710 <qFIS_SetParameter>
 80028e4:	4602      	mov	r2, r0
 80028e6:	697b      	ldr	r3, [r7, #20]
 80028e8:	4413      	add	r3, r2
 80028ea:	617b      	str	r3, [r7, #20]
        retVal = ( 5 == retVal ) ? 1 : 0;
 80028ec:	697b      	ldr	r3, [r7, #20]
 80028ee:	2b05      	cmp	r3, #5
 80028f0:	bf0c      	ite	eq
 80028f2:	2301      	moveq	r3, #1
 80028f4:	2300      	movne	r3, #0
 80028f6:	b2db      	uxtb	r3, r3
 80028f8:	617b      	str	r3, [r7, #20]
        f->deFuzz = ( Mamdani == t ) ? &qFIS_DeFuzz_Centroid
                                     : &qFIS_DeFuzz_WtAverage;
 80028fa:	7afb      	ldrb	r3, [r7, #11]
 80028fc:	2b00      	cmp	r3, #0
 80028fe:	d101      	bne.n	8002904 <qFIS_Setup+0x110>
 8002900:	4a26      	ldr	r2, [pc, #152]	; (800299c <qFIS_Setup+0x1a8>)
 8002902:	e000      	b.n	8002906 <qFIS_Setup+0x112>
 8002904:	4a26      	ldr	r2, [pc, #152]	; (80029a0 <qFIS_Setup+0x1ac>)
        f->deFuzz = ( Mamdani == t ) ? &qFIS_DeFuzz_Centroid
 8002906:	68fb      	ldr	r3, [r7, #12]
 8002908:	629a      	str	r2, [r3, #40]	; 0x28
        f->ruleWeight = NULL;
 800290a:	68fb      	ldr	r3, [r7, #12]
 800290c:	2200      	movs	r2, #0
 800290e:	62da      	str	r2, [r3, #44]	; 0x2c
        for ( i = 0 ; i < f->nOutputs ; ++i ) {
 8002910:	2300      	movs	r3, #0
 8002912:	613b      	str	r3, [r7, #16]
 8002914:	e032      	b.n	800297c <qFIS_Setup+0x188>
            /*cstat -CERT-FLP36-C*/
            f->output[ i ].res = ( f->output[ i ].b.max - f->output[ i ].b.min )/(float)f->nPoints;
 8002916:	68fb      	ldr	r3, [r7, #12]
 8002918:	685a      	ldr	r2, [r3, #4]
 800291a:	693b      	ldr	r3, [r7, #16]
 800291c:	2134      	movs	r1, #52	; 0x34
 800291e:	fb01 f303 	mul.w	r3, r1, r3
 8002922:	4413      	add	r3, r2
 8002924:	6858      	ldr	r0, [r3, #4]
 8002926:	68fb      	ldr	r3, [r7, #12]
 8002928:	685a      	ldr	r2, [r3, #4]
 800292a:	693b      	ldr	r3, [r7, #16]
 800292c:	2134      	movs	r1, #52	; 0x34
 800292e:	fb01 f303 	mul.w	r3, r1, r3
 8002932:	4413      	add	r3, r2
 8002934:	681b      	ldr	r3, [r3, #0]
 8002936:	4619      	mov	r1, r3
 8002938:	f7fe f8ca 	bl	8000ad0 <__aeabi_fsub>
 800293c:	4603      	mov	r3, r0
 800293e:	461d      	mov	r5, r3
 8002940:	68fb      	ldr	r3, [r7, #12]
 8002942:	6cdb      	ldr	r3, [r3, #76]	; 0x4c
 8002944:	4618      	mov	r0, r3
 8002946:	f7fe f975 	bl	8000c34 <__aeabi_ui2f>
 800294a:	68fb      	ldr	r3, [r7, #12]
 800294c:	685a      	ldr	r2, [r3, #4]
 800294e:	693b      	ldr	r3, [r7, #16]
 8002950:	2134      	movs	r1, #52	; 0x34
 8002952:	fb01 f303 	mul.w	r3, r1, r3
 8002956:	18d4      	adds	r4, r2, r3
 8002958:	4601      	mov	r1, r0
 800295a:	4628      	mov	r0, r5
 800295c:	f7fe fa76 	bl	8000e4c <__aeabi_fdiv>
 8002960:	4603      	mov	r3, r0
 8002962:	60e3      	str	r3, [r4, #12]
            /*cstat +CERT-FLP36-C*/
            f->output[ i ].owner = f;
 8002964:	68fb      	ldr	r3, [r7, #12]
 8002966:	685a      	ldr	r2, [r3, #4]
 8002968:	693b      	ldr	r3, [r7, #16]
 800296a:	2134      	movs	r1, #52	; 0x34
 800296c:	fb01 f303 	mul.w	r3, r1, r3
 8002970:	4413      	add	r3, r2
 8002972:	68fa      	ldr	r2, [r7, #12]
 8002974:	629a      	str	r2, [r3, #40]	; 0x28
        for ( i = 0 ; i < f->nOutputs ; ++i ) {
 8002976:	693b      	ldr	r3, [r7, #16]
 8002978:	3301      	adds	r3, #1
 800297a:	613b      	str	r3, [r7, #16]
 800297c:	68fb      	ldr	r3, [r7, #12]
 800297e:	6c1b      	ldr	r3, [r3, #64]	; 0x40
 8002980:	693a      	ldr	r2, [r7, #16]
 8002982:	429a      	cmp	r2, r3
 8002984:	d3c7      	bcc.n	8002916 <qFIS_Setup+0x122>
        }
    }

    return retVal;
 8002986:	697b      	ldr	r3, [r7, #20]
}
 8002988:	4618      	mov	r0, r3
 800298a:	3718      	adds	r7, #24
 800298c:	46bd      	mov	sp, r7
 800298e:	bdb0      	pop	{r4, r5, r7, pc}
 8002990:	aaaaaaab 	.word	0xaaaaaaab
 8002994:	4ec4ec4f 	.word	0x4ec4ec4f
 8002998:	cccccccd 	.word	0xcccccccd
 800299c:	08003211 	.word	0x08003211
 80029a0:	080032a5 	.word	0x080032a5

080029a4 <qFIS_InputSetup>:
/*============================================================================*/
int qFIS_InputSetup( qFIS_Input_t * const v,
                     const qFIS_Tag_t t,
                     const float min,
                     const float max )
{
 80029a4:	b480      	push	{r7}
 80029a6:	b087      	sub	sp, #28
 80029a8:	af00      	add	r7, sp, #0
 80029aa:	60f8      	str	r0, [r7, #12]
 80029ac:	60b9      	str	r1, [r7, #8]
 80029ae:	607a      	str	r2, [r7, #4]
 80029b0:	603b      	str	r3, [r7, #0]
    int retVal = 0;
 80029b2:	2300      	movs	r3, #0
 80029b4:	617b      	str	r3, [r7, #20]

    if ( ( NULL != v ) && ( t >= 0 ) ) {
 80029b6:	68fb      	ldr	r3, [r7, #12]
 80029b8:	2b00      	cmp	r3, #0
 80029ba:	d018      	beq.n	80029ee <qFIS_InputSetup+0x4a>
 80029bc:	68bb      	ldr	r3, [r7, #8]
 80029be:	2b00      	cmp	r3, #0
 80029c0:	db15      	blt.n	80029ee <qFIS_InputSetup+0x4a>
        v[ t ].b.min = min;
 80029c2:	68ba      	ldr	r2, [r7, #8]
 80029c4:	4613      	mov	r3, r2
 80029c6:	005b      	lsls	r3, r3, #1
 80029c8:	4413      	add	r3, r2
 80029ca:	009b      	lsls	r3, r3, #2
 80029cc:	461a      	mov	r2, r3
 80029ce:	68fb      	ldr	r3, [r7, #12]
 80029d0:	4413      	add	r3, r2
 80029d2:	687a      	ldr	r2, [r7, #4]
 80029d4:	601a      	str	r2, [r3, #0]
        v[ t ].b.max = max;
 80029d6:	68ba      	ldr	r2, [r7, #8]
 80029d8:	4613      	mov	r3, r2
 80029da:	005b      	lsls	r3, r3, #1
 80029dc:	4413      	add	r3, r2
 80029de:	009b      	lsls	r3, r3, #2
 80029e0:	461a      	mov	r2, r3
 80029e2:	68fb      	ldr	r3, [r7, #12]
 80029e4:	4413      	add	r3, r2
 80029e6:	683a      	ldr	r2, [r7, #0]
 80029e8:	605a      	str	r2, [r3, #4]
        retVal = 1;
 80029ea:	2301      	movs	r3, #1
 80029ec:	617b      	str	r3, [r7, #20]
    }

    return retVal;
 80029ee:	697b      	ldr	r3, [r7, #20]
}
 80029f0:	4618      	mov	r0, r3
 80029f2:	371c      	adds	r7, #28
 80029f4:	46bd      	mov	sp, r7
 80029f6:	bc80      	pop	{r7}
 80029f8:	4770      	bx	lr

080029fa <qFIS_OutputSetup>:
/*============================================================================*/
int qFIS_OutputSetup( qFIS_Output_t * const v,
                      const qFIS_Tag_t t,
                      const float min,
                      const float max )
{
 80029fa:	b480      	push	{r7}
 80029fc:	b087      	sub	sp, #28
 80029fe:	af00      	add	r7, sp, #0
 8002a00:	60f8      	str	r0, [r7, #12]
 8002a02:	60b9      	str	r1, [r7, #8]
 8002a04:	607a      	str	r2, [r7, #4]
 8002a06:	603b      	str	r3, [r7, #0]
    int retVal = 0;
 8002a08:	2300      	movs	r3, #0
 8002a0a:	617b      	str	r3, [r7, #20]

    if ( ( NULL != v ) && ( t >= 0 ) ) {
 8002a0c:	68fb      	ldr	r3, [r7, #12]
 8002a0e:	2b00      	cmp	r3, #0
 8002a10:	d05a      	beq.n	8002ac8 <qFIS_OutputSetup+0xce>
 8002a12:	68bb      	ldr	r3, [r7, #8]
 8002a14:	2b00      	cmp	r3, #0
 8002a16:	db57      	blt.n	8002ac8 <qFIS_OutputSetup+0xce>
        v[ t ].data[ 0 ] = 0.0f;
 8002a18:	68bb      	ldr	r3, [r7, #8]
 8002a1a:	2234      	movs	r2, #52	; 0x34
 8002a1c:	fb02 f303 	mul.w	r3, r2, r3
 8002a20:	68fa      	ldr	r2, [r7, #12]
 8002a22:	4413      	add	r3, r2
 8002a24:	f04f 0200 	mov.w	r2, #0
 8002a28:	619a      	str	r2, [r3, #24]
        v[ t ].data[ 1 ] = 0.0f;
 8002a2a:	68bb      	ldr	r3, [r7, #8]
 8002a2c:	2234      	movs	r2, #52	; 0x34
 8002a2e:	fb02 f303 	mul.w	r3, r2, r3
 8002a32:	68fa      	ldr	r2, [r7, #12]
 8002a34:	4413      	add	r3, r2
 8002a36:	f04f 0200 	mov.w	r2, #0
 8002a3a:	61da      	str	r2, [r3, #28]
        v[ t ].data[ 2 ] = 0.0f;
 8002a3c:	68bb      	ldr	r3, [r7, #8]
 8002a3e:	2234      	movs	r2, #52	; 0x34
 8002a40:	fb02 f303 	mul.w	r3, r2, r3
 8002a44:	68fa      	ldr	r2, [r7, #12]
 8002a46:	4413      	add	r3, r2
 8002a48:	f04f 0200 	mov.w	r2, #0
 8002a4c:	621a      	str	r2, [r3, #32]
        v[ t ].data[ 3 ] = 0.0f;
 8002a4e:	68bb      	ldr	r3, [r7, #8]
 8002a50:	2234      	movs	r2, #52	; 0x34
 8002a52:	fb02 f303 	mul.w	r3, r2, r3
 8002a56:	68fa      	ldr	r2, [r7, #12]
 8002a58:	4413      	add	r3, r2
 8002a5a:	f04f 0200 	mov.w	r2, #0
 8002a5e:	625a      	str	r2, [r3, #36]	; 0x24
        v[ t ].x = 0.0f;
 8002a60:	68bb      	ldr	r3, [r7, #8]
 8002a62:	2234      	movs	r2, #52	; 0x34
 8002a64:	fb02 f303 	mul.w	r3, r2, r3
 8002a68:	68fa      	ldr	r2, [r7, #12]
 8002a6a:	4413      	add	r3, r2
 8002a6c:	f04f 0200 	mov.w	r2, #0
 8002a70:	611a      	str	r2, [r3, #16]
        v[ t ].y = 0.0f;
 8002a72:	68bb      	ldr	r3, [r7, #8]
 8002a74:	2234      	movs	r2, #52	; 0x34
 8002a76:	fb02 f303 	mul.w	r3, r2, r3
 8002a7a:	68fa      	ldr	r2, [r7, #12]
 8002a7c:	4413      	add	r3, r2
 8002a7e:	f04f 0200 	mov.w	r2, #0
 8002a82:	615a      	str	r2, [r3, #20]
        v[ t ].b.min = min;
 8002a84:	68bb      	ldr	r3, [r7, #8]
 8002a86:	2234      	movs	r2, #52	; 0x34
 8002a88:	fb02 f303 	mul.w	r3, r2, r3
 8002a8c:	68fa      	ldr	r2, [r7, #12]
 8002a8e:	4413      	add	r3, r2
 8002a90:	687a      	ldr	r2, [r7, #4]
 8002a92:	601a      	str	r2, [r3, #0]
        v[ t ].b.max = max;
 8002a94:	68bb      	ldr	r3, [r7, #8]
 8002a96:	2234      	movs	r2, #52	; 0x34
 8002a98:	fb02 f303 	mul.w	r3, r2, r3
 8002a9c:	68fa      	ldr	r2, [r7, #12]
 8002a9e:	4413      	add	r3, r2
 8002aa0:	683a      	ldr	r2, [r7, #0]
 8002aa2:	605a      	str	r2, [r3, #4]
        v[ t ].xag = NULL;
 8002aa4:	68bb      	ldr	r3, [r7, #8]
 8002aa6:	2234      	movs	r2, #52	; 0x34
 8002aa8:	fb02 f303 	mul.w	r3, r2, r3
 8002aac:	68fa      	ldr	r2, [r7, #12]
 8002aae:	4413      	add	r3, r2
 8002ab0:	2200      	movs	r2, #0
 8002ab2:	62da      	str	r2, [r3, #44]	; 0x2c
        v[ t ].yag = NULL;
 8002ab4:	68bb      	ldr	r3, [r7, #8]
 8002ab6:	2234      	movs	r2, #52	; 0x34
 8002ab8:	fb02 f303 	mul.w	r3, r2, r3
 8002abc:	68fa      	ldr	r2, [r7, #12]
 8002abe:	4413      	add	r3, r2
 8002ac0:	2200      	movs	r2, #0
 8002ac2:	631a      	str	r2, [r3, #48]	; 0x30
        retVal = 1;
 8002ac4:	2301      	movs	r3, #1
 8002ac6:	617b      	str	r3, [r7, #20]
    }

    return retVal;
 8002ac8:	697b      	ldr	r3, [r7, #20]
}
 8002aca:	4618      	mov	r0, r3
 8002acc:	371c      	adds	r7, #28
 8002ace:	46bd      	mov	sp, r7
 8002ad0:	bc80      	pop	{r7}
 8002ad2:	4770      	bx	lr

08002ad4 <qFIS_SetInput>:
/*============================================================================*/
int qFIS_SetInput( qFIS_Input_t * const v,
                   const qFIS_Tag_t t,
                   const float value )
{
 8002ad4:	b480      	push	{r7}
 8002ad6:	b087      	sub	sp, #28
 8002ad8:	af00      	add	r7, sp, #0
 8002ada:	60f8      	str	r0, [r7, #12]
 8002adc:	60b9      	str	r1, [r7, #8]
 8002ade:	607a      	str	r2, [r7, #4]
    int retVal = 0;
 8002ae0:	2300      	movs	r3, #0
 8002ae2:	617b      	str	r3, [r7, #20]

    if ( ( NULL != v ) && ( t >= 0 ) ) {
 8002ae4:	68fb      	ldr	r3, [r7, #12]
 8002ae6:	2b00      	cmp	r3, #0
 8002ae8:	d00e      	beq.n	8002b08 <qFIS_SetInput+0x34>
 8002aea:	68bb      	ldr	r3, [r7, #8]
 8002aec:	2b00      	cmp	r3, #0
 8002aee:	db0b      	blt.n	8002b08 <qFIS_SetInput+0x34>
        v[ t ].b.value = value;
 8002af0:	68ba      	ldr	r2, [r7, #8]
 8002af2:	4613      	mov	r3, r2
 8002af4:	005b      	lsls	r3, r3, #1
 8002af6:	4413      	add	r3, r2
 8002af8:	009b      	lsls	r3, r3, #2
 8002afa:	461a      	mov	r2, r3
 8002afc:	68fb      	ldr	r3, [r7, #12]
 8002afe:	4413      	add	r3, r2
 8002b00:	687a      	ldr	r2, [r7, #4]
 8002b02:	609a      	str	r2, [r3, #8]
        retVal = 1;
 8002b04:	2301      	movs	r3, #1
 8002b06:	617b      	str	r3, [r7, #20]
    }

    return retVal;
 8002b08:	697b      	ldr	r3, [r7, #20]
}
 8002b0a:	4618      	mov	r0, r3
 8002b0c:	371c      	adds	r7, #28
 8002b0e:	46bd      	mov	sp, r7
 8002b10:	bc80      	pop	{r7}
 8002b12:	4770      	bx	lr

08002b14 <qFIS_GetOutput>:
/*============================================================================*/
float qFIS_GetOutput( const qFIS_Output_t * const v,
                      const qFIS_Tag_t t )
{
 8002b14:	b480      	push	{r7}
 8002b16:	b085      	sub	sp, #20
 8002b18:	af00      	add	r7, sp, #0
 8002b1a:	6078      	str	r0, [r7, #4]
 8002b1c:	6039      	str	r1, [r7, #0]
    float retVal = 0.0f;
 8002b1e:	f04f 0300 	mov.w	r3, #0
 8002b22:	60fb      	str	r3, [r7, #12]

    if ( ( NULL != v ) && ( t >= 0 ) ) {
 8002b24:	687b      	ldr	r3, [r7, #4]
 8002b26:	2b00      	cmp	r3, #0
 8002b28:	d00a      	beq.n	8002b40 <qFIS_GetOutput+0x2c>
 8002b2a:	683b      	ldr	r3, [r7, #0]
 8002b2c:	2b00      	cmp	r3, #0
 8002b2e:	db07      	blt.n	8002b40 <qFIS_GetOutput+0x2c>
        retVal = v[ t ].b.value;
 8002b30:	683b      	ldr	r3, [r7, #0]
 8002b32:	2234      	movs	r2, #52	; 0x34
 8002b34:	fb02 f303 	mul.w	r3, r2, r3
 8002b38:	687a      	ldr	r2, [r7, #4]
 8002b3a:	4413      	add	r3, r2
 8002b3c:	689b      	ldr	r3, [r3, #8]
 8002b3e:	60fb      	str	r3, [r7, #12]
    }

    return retVal;
 8002b40:	68fb      	ldr	r3, [r7, #12]
}
 8002b42:	4618      	mov	r0, r3
 8002b44:	3714      	adds	r7, #20
 8002b46:	46bd      	mov	sp, r7
 8002b48:	bc80      	pop	{r7}
 8002b4a:	4770      	bx	lr

08002b4c <qFIS_SetMF>:
                const qFIS_Tag_t mf,
                const qFIS_MF_Name_t s,
                qFIS_MF_Fcn_t custom_mf,
                const float *cp,
                float h )
{
 8002b4c:	b590      	push	{r4, r7, lr}
 8002b4e:	b087      	sub	sp, #28
 8002b50:	af00      	add	r7, sp, #0
 8002b52:	60f8      	str	r0, [r7, #12]
 8002b54:	60b9      	str	r1, [r7, #8]
 8002b56:	607a      	str	r2, [r7, #4]
 8002b58:	70fb      	strb	r3, [r7, #3]
    int retVal = 0;
 8002b5a:	2300      	movs	r3, #0
 8002b5c:	617b      	str	r3, [r7, #20]
    /* Only for Tsukamoto consequents*/
    &qFIS_TLinSMF, &qFIS_TLinZMF, &qFIS_TConcaveMF,&qFIS_TSigMF, &qFIS_TSMF,
    &qFIS_TZMF
    };

    if ( ( NULL != m ) && ( io >= 0 ) && ( mf >= 0 ) && ( s < _NUM_MFS ) ) {
 8002b5e:	68fb      	ldr	r3, [r7, #12]
 8002b60:	2b00      	cmp	r3, #0
 8002b62:	d055      	beq.n	8002c10 <qFIS_SetMF+0xc4>
 8002b64:	68bb      	ldr	r3, [r7, #8]
 8002b66:	2b00      	cmp	r3, #0
 8002b68:	db52      	blt.n	8002c10 <qFIS_SetMF+0xc4>
 8002b6a:	687b      	ldr	r3, [r7, #4]
 8002b6c:	2b00      	cmp	r3, #0
 8002b6e:	db4f      	blt.n	8002c10 <qFIS_SetMF+0xc4>
 8002b70:	78fb      	ldrb	r3, [r7, #3]
 8002b72:	2b1a      	cmp	r3, #26
 8002b74:	d84c      	bhi.n	8002c10 <qFIS_SetMF+0xc4>
        if ( NULL != custom_mf ) {
 8002b76:	6abb      	ldr	r3, [r7, #40]	; 0x28
 8002b78:	2b00      	cmp	r3, #0
 8002b7a:	d00a      	beq.n	8002b92 <qFIS_SetMF+0x46>
            m[ mf ].shape = custom_mf; /*user-defined membership function*/
 8002b7c:	687a      	ldr	r2, [r7, #4]
 8002b7e:	4613      	mov	r3, r2
 8002b80:	009b      	lsls	r3, r3, #2
 8002b82:	4413      	add	r3, r2
 8002b84:	009b      	lsls	r3, r3, #2
 8002b86:	461a      	mov	r2, r3
 8002b88:	68fb      	ldr	r3, [r7, #12]
 8002b8a:	4413      	add	r3, r2
 8002b8c:	6aba      	ldr	r2, [r7, #40]	; 0x28
 8002b8e:	601a      	str	r2, [r3, #0]
 8002b90:	e00c      	b.n	8002bac <qFIS_SetMF+0x60>
        }
        else {
            m[ mf ].shape = fShape[ s ];
 8002b92:	78f9      	ldrb	r1, [r7, #3]
 8002b94:	687a      	ldr	r2, [r7, #4]
 8002b96:	4613      	mov	r3, r2
 8002b98:	009b      	lsls	r3, r3, #2
 8002b9a:	4413      	add	r3, r2
 8002b9c:	009b      	lsls	r3, r3, #2
 8002b9e:	461a      	mov	r2, r3
 8002ba0:	68fb      	ldr	r3, [r7, #12]
 8002ba2:	4413      	add	r3, r2
 8002ba4:	4a1d      	ldr	r2, [pc, #116]	; (8002c1c <qFIS_SetMF+0xd0>)
 8002ba6:	f852 2021 	ldr.w	r2, [r2, r1, lsl #2]
 8002baa:	601a      	str	r2, [r3, #0]
        }
        m[ mf ].index = (size_t)io;
 8002bac:	687a      	ldr	r2, [r7, #4]
 8002bae:	4613      	mov	r3, r2
 8002bb0:	009b      	lsls	r3, r3, #2
 8002bb2:	4413      	add	r3, r2
 8002bb4:	009b      	lsls	r3, r3, #2
 8002bb6:	461a      	mov	r2, r3
 8002bb8:	68fb      	ldr	r3, [r7, #12]
 8002bba:	4413      	add	r3, r2
 8002bbc:	68ba      	ldr	r2, [r7, #8]
 8002bbe:	611a      	str	r2, [r3, #16]
        m[ mf ].points = cp;
 8002bc0:	687a      	ldr	r2, [r7, #4]
 8002bc2:	4613      	mov	r3, r2
 8002bc4:	009b      	lsls	r3, r3, #2
 8002bc6:	4413      	add	r3, r2
 8002bc8:	009b      	lsls	r3, r3, #2
 8002bca:	461a      	mov	r2, r3
 8002bcc:	68fb      	ldr	r3, [r7, #12]
 8002bce:	4413      	add	r3, r2
 8002bd0:	6afa      	ldr	r2, [r7, #44]	; 0x2c
 8002bd2:	605a      	str	r2, [r3, #4]
        m[ mf ].fx = 0.0f;
 8002bd4:	687a      	ldr	r2, [r7, #4]
 8002bd6:	4613      	mov	r3, r2
 8002bd8:	009b      	lsls	r3, r3, #2
 8002bda:	4413      	add	r3, r2
 8002bdc:	009b      	lsls	r3, r3, #2
 8002bde:	461a      	mov	r2, r3
 8002be0:	68fb      	ldr	r3, [r7, #12]
 8002be2:	4413      	add	r3, r2
 8002be4:	f04f 0200 	mov.w	r2, #0
 8002be8:	609a      	str	r2, [r3, #8]
        m[ mf ].h = qFIS_Bound( h, 0.0f, 1.0f );
 8002bea:	687a      	ldr	r2, [r7, #4]
 8002bec:	4613      	mov	r3, r2
 8002bee:	009b      	lsls	r3, r3, #2
 8002bf0:	4413      	add	r3, r2
 8002bf2:	009b      	lsls	r3, r3, #2
 8002bf4:	461a      	mov	r2, r3
 8002bf6:	68fb      	ldr	r3, [r7, #12]
 8002bf8:	189c      	adds	r4, r3, r2
 8002bfa:	f04f 527e 	mov.w	r2, #1065353216	; 0x3f800000
 8002bfe:	f04f 0100 	mov.w	r1, #0
 8002c02:	6b38      	ldr	r0, [r7, #48]	; 0x30
 8002c04:	f001 fcd3 	bl	80045ae <qFIS_Bound>
 8002c08:	4603      	mov	r3, r0
 8002c0a:	60e3      	str	r3, [r4, #12]
        retVal = 1;
 8002c0c:	2301      	movs	r3, #1
 8002c0e:	617b      	str	r3, [r7, #20]
    }

    return retVal;
 8002c10:	697b      	ldr	r3, [r7, #20]
}
 8002c12:	4618      	mov	r0, r3
 8002c14:	371c      	adds	r7, #28
 8002c16:	46bd      	mov	sp, r7
 8002c18:	bd90      	pop	{r4, r7, pc}
 8002c1a:	bf00      	nop
 8002c1c:	08008ae8 	.word	0x08008ae8

08002c20 <qFIS_EvalInputMFs>:

    return retVal;
}
/*============================================================================*/
static void qFIS_EvalInputMFs( qFIS_t * const f )
{
 8002c20:	b5b0      	push	{r4, r5, r7, lr}
 8002c22:	b084      	sub	sp, #16
 8002c24:	af00      	add	r7, sp, #0
 8002c26:	6078      	str	r0, [r7, #4]
    size_t i;
    qFIS_MF_t *mf;

    for ( i = 0 ; i < f->nMFInputs ; ++i ) {
 8002c28:	2300      	movs	r3, #0
 8002c2a:	60fb      	str	r3, [r7, #12]
 8002c2c:	e026      	b.n	8002c7c <qFIS_EvalInputMFs+0x5c>
        mf = &f->inMF[ i ];
 8002c2e:	687b      	ldr	r3, [r7, #4]
 8002c30:	6899      	ldr	r1, [r3, #8]
 8002c32:	68fa      	ldr	r2, [r7, #12]
 8002c34:	4613      	mov	r3, r2
 8002c36:	009b      	lsls	r3, r3, #2
 8002c38:	4413      	add	r3, r2
 8002c3a:	009b      	lsls	r3, r3, #2
 8002c3c:	440b      	add	r3, r1
 8002c3e:	60bb      	str	r3, [r7, #8]
        /*cstat -MISRAC2012-Rule-11.3 -CERT-EXP39-C_d*/
        mf->fx = mf->h*mf->shape( (qFIS_IO_Base_t*)&f->input[ mf->index ],
 8002c40:	68bb      	ldr	r3, [r7, #8]
 8002c42:	68dd      	ldr	r5, [r3, #12]
 8002c44:	68bb      	ldr	r3, [r7, #8]
 8002c46:	681c      	ldr	r4, [r3, #0]
 8002c48:	687b      	ldr	r3, [r7, #4]
 8002c4a:	6819      	ldr	r1, [r3, #0]
 8002c4c:	68bb      	ldr	r3, [r7, #8]
 8002c4e:	691a      	ldr	r2, [r3, #16]
 8002c50:	4613      	mov	r3, r2
 8002c52:	005b      	lsls	r3, r3, #1
 8002c54:	4413      	add	r3, r2
 8002c56:	009b      	lsls	r3, r3, #2
 8002c58:	18c8      	adds	r0, r1, r3
 8002c5a:	68bb      	ldr	r3, [r7, #8]
 8002c5c:	685b      	ldr	r3, [r3, #4]
 8002c5e:	2201      	movs	r2, #1
 8002c60:	4619      	mov	r1, r3
 8002c62:	47a0      	blx	r4
 8002c64:	4603      	mov	r3, r0
 8002c66:	4619      	mov	r1, r3
 8002c68:	4628      	mov	r0, r5
 8002c6a:	f7fe f83b 	bl	8000ce4 <__aeabi_fmul>
 8002c6e:	4603      	mov	r3, r0
 8002c70:	461a      	mov	r2, r3
 8002c72:	68bb      	ldr	r3, [r7, #8]
 8002c74:	609a      	str	r2, [r3, #8]
    for ( i = 0 ; i < f->nMFInputs ; ++i ) {
 8002c76:	68fb      	ldr	r3, [r7, #12]
 8002c78:	3301      	adds	r3, #1
 8002c7a:	60fb      	str	r3, [r7, #12]
 8002c7c:	687b      	ldr	r3, [r7, #4]
 8002c7e:	6c5b      	ldr	r3, [r3, #68]	; 0x44
 8002c80:	68fa      	ldr	r2, [r7, #12]
 8002c82:	429a      	cmp	r2, r3
 8002c84:	d3d3      	bcc.n	8002c2e <qFIS_EvalInputMFs+0xe>
                                  mf->points,
                                  1u );
        /*cstat +MISRAC2012-Rule-11.3 +CERT-EXP39-C_d*/
    }
}
 8002c86:	bf00      	nop
 8002c88:	3710      	adds	r7, #16
 8002c8a:	46bd      	mov	sp, r7
 8002c8c:	bdb0      	pop	{r4, r5, r7, pc}

08002c8e <qFIS_TruncateInputs>:
/*============================================================================*/
static void qFIS_TruncateInputs( qFIS_t * const f )
{
 8002c8e:	b5f0      	push	{r4, r5, r6, r7, lr}
 8002c90:	b085      	sub	sp, #20
 8002c92:	af00      	add	r7, sp, #0
 8002c94:	6078      	str	r0, [r7, #4]
    size_t i;

    for ( i = 0 ; i < f->nInputs ; ++i ) {
 8002c96:	2300      	movs	r3, #0
 8002c98:	60fb      	str	r3, [r7, #12]
 8002c9a:	e02b      	b.n	8002cf4 <qFIS_TruncateInputs+0x66>
        f->input[ i ].b.value = qFIS_Bound( f->input[ i ].b.value,
 8002c9c:	687b      	ldr	r3, [r7, #4]
 8002c9e:	6819      	ldr	r1, [r3, #0]
 8002ca0:	68fa      	ldr	r2, [r7, #12]
 8002ca2:	4613      	mov	r3, r2
 8002ca4:	005b      	lsls	r3, r3, #1
 8002ca6:	4413      	add	r3, r2
 8002ca8:	009b      	lsls	r3, r3, #2
 8002caa:	440b      	add	r3, r1
 8002cac:	6898      	ldr	r0, [r3, #8]
                                            f->input[ i ].b.min,
 8002cae:	687b      	ldr	r3, [r7, #4]
 8002cb0:	6819      	ldr	r1, [r3, #0]
 8002cb2:	68fa      	ldr	r2, [r7, #12]
 8002cb4:	4613      	mov	r3, r2
 8002cb6:	005b      	lsls	r3, r3, #1
 8002cb8:	4413      	add	r3, r2
 8002cba:	009b      	lsls	r3, r3, #2
 8002cbc:	440b      	add	r3, r1
        f->input[ i ].b.value = qFIS_Bound( f->input[ i ].b.value,
 8002cbe:	681d      	ldr	r5, [r3, #0]
                                            f->input[ i ].b.max );
 8002cc0:	687b      	ldr	r3, [r7, #4]
 8002cc2:	6819      	ldr	r1, [r3, #0]
 8002cc4:	68fa      	ldr	r2, [r7, #12]
 8002cc6:	4613      	mov	r3, r2
 8002cc8:	005b      	lsls	r3, r3, #1
 8002cca:	4413      	add	r3, r2
 8002ccc:	009b      	lsls	r3, r3, #2
 8002cce:	440b      	add	r3, r1
        f->input[ i ].b.value = qFIS_Bound( f->input[ i ].b.value,
 8002cd0:	685e      	ldr	r6, [r3, #4]
 8002cd2:	687b      	ldr	r3, [r7, #4]
 8002cd4:	6819      	ldr	r1, [r3, #0]
 8002cd6:	68fa      	ldr	r2, [r7, #12]
 8002cd8:	4613      	mov	r3, r2
 8002cda:	005b      	lsls	r3, r3, #1
 8002cdc:	4413      	add	r3, r2
 8002cde:	009b      	lsls	r3, r3, #2
 8002ce0:	18cc      	adds	r4, r1, r3
 8002ce2:	4632      	mov	r2, r6
 8002ce4:	4629      	mov	r1, r5
 8002ce6:	f001 fc62 	bl	80045ae <qFIS_Bound>
 8002cea:	4603      	mov	r3, r0
 8002cec:	60a3      	str	r3, [r4, #8]
    for ( i = 0 ; i < f->nInputs ; ++i ) {
 8002cee:	68fb      	ldr	r3, [r7, #12]
 8002cf0:	3301      	adds	r3, #1
 8002cf2:	60fb      	str	r3, [r7, #12]
 8002cf4:	687b      	ldr	r3, [r7, #4]
 8002cf6:	6bdb      	ldr	r3, [r3, #60]	; 0x3c
 8002cf8:	68fa      	ldr	r2, [r7, #12]
 8002cfa:	429a      	cmp	r2, r3
 8002cfc:	d3ce      	bcc.n	8002c9c <qFIS_TruncateInputs+0xe>
    }
}
 8002cfe:	bf00      	nop
 8002d00:	3714      	adds	r7, #20
 8002d02:	46bd      	mov	sp, r7
 8002d04:	bdf0      	pop	{r4, r5, r6, r7, pc}

08002d06 <qFIS_Fuzzify>:
/*============================================================================*/
int qFIS_Fuzzify( qFIS_t * const f )
{
 8002d06:	b580      	push	{r7, lr}
 8002d08:	b084      	sub	sp, #16
 8002d0a:	af00      	add	r7, sp, #0
 8002d0c:	6078      	str	r0, [r7, #4]
    int retVal = 0;
 8002d0e:	2300      	movs	r3, #0
 8002d10:	60fb      	str	r3, [r7, #12]

    if ( NULL != f ) {
 8002d12:	687b      	ldr	r3, [r7, #4]
 8002d14:	2b00      	cmp	r3, #0
 8002d16:	d007      	beq.n	8002d28 <qFIS_Fuzzify+0x22>
        qFIS_TruncateInputs( f );
 8002d18:	6878      	ldr	r0, [r7, #4]
 8002d1a:	f7ff ffb8 	bl	8002c8e <qFIS_TruncateInputs>
        qFIS_EvalInputMFs( f );
 8002d1e:	6878      	ldr	r0, [r7, #4]
 8002d20:	f7ff ff7e 	bl	8002c20 <qFIS_EvalInputMFs>
        retVal = 1;
 8002d24:	2301      	movs	r3, #1
 8002d26:	60fb      	str	r3, [r7, #12]
    }

    return retVal;
 8002d28:	68fb      	ldr	r3, [r7, #12]
}
 8002d2a:	4618      	mov	r0, r3
 8002d2c:	3710      	adds	r7, #16
 8002d2e:	46bd      	mov	sp, r7
 8002d30:	bd80      	pop	{r7, pc}

08002d32 <qFIS_ParseFuzzValue>:
/*============================================================================*/
static float qFIS_ParseFuzzValue( qFIS_MF_t * const mfIO,
                                  qFIS_Rules_t index )
{
 8002d32:	b580      	push	{r7, lr}
 8002d34:	b084      	sub	sp, #16
 8002d36:	af00      	add	r7, sp, #0
 8002d38:	6078      	str	r0, [r7, #4]
 8002d3a:	460b      	mov	r3, r1
 8002d3c:	807b      	strh	r3, [r7, #2]
    uint8_t neg = (uint8_t)( index < 0 );
 8002d3e:	887b      	ldrh	r3, [r7, #2]
 8002d40:	0bdb      	lsrs	r3, r3, #15
 8002d42:	b2db      	uxtb	r3, r3
 8002d44:	73fb      	strb	r3, [r7, #15]
    float y;

    if ( 0u != neg ) {
 8002d46:	7bfb      	ldrb	r3, [r7, #15]
 8002d48:	2b00      	cmp	r3, #0
 8002d4a:	d003      	beq.n	8002d54 <qFIS_ParseFuzzValue+0x22>
        index = -index;
 8002d4c:	887b      	ldrh	r3, [r7, #2]
 8002d4e:	425b      	negs	r3, r3
 8002d50:	b29b      	uxth	r3, r3
 8002d52:	807b      	strh	r3, [r7, #2]
    }
    /*cstat -CERT-INT32-C_a*/
    y = qFIS_Bound( mfIO[ index - 1 ].fx, 0.0f, 1.0f );
 8002d54:	f9b7 2002 	ldrsh.w	r2, [r7, #2]
 8002d58:	4613      	mov	r3, r2
 8002d5a:	009b      	lsls	r3, r3, #2
 8002d5c:	4413      	add	r3, r2
 8002d5e:	009b      	lsls	r3, r3, #2
 8002d60:	3b14      	subs	r3, #20
 8002d62:	687a      	ldr	r2, [r7, #4]
 8002d64:	4413      	add	r3, r2
 8002d66:	689b      	ldr	r3, [r3, #8]
 8002d68:	f04f 527e 	mov.w	r2, #1065353216	; 0x3f800000
 8002d6c:	f04f 0100 	mov.w	r1, #0
 8002d70:	4618      	mov	r0, r3
 8002d72:	f001 fc1c 	bl	80045ae <qFIS_Bound>
 8002d76:	60b8      	str	r0, [r7, #8]
    /*cstat +CERT-INT32-C_a*/
    y = ( 0u != neg ) ? ( 1.0f - y ) : y ;
 8002d78:	7bfb      	ldrb	r3, [r7, #15]
 8002d7a:	2b00      	cmp	r3, #0
 8002d7c:	d006      	beq.n	8002d8c <qFIS_ParseFuzzValue+0x5a>
 8002d7e:	68b9      	ldr	r1, [r7, #8]
 8002d80:	f04f 507e 	mov.w	r0, #1065353216	; 0x3f800000
 8002d84:	f7fd fea4 	bl	8000ad0 <__aeabi_fsub>
 8002d88:	4603      	mov	r3, r0
 8002d8a:	e000      	b.n	8002d8e <qFIS_ParseFuzzValue+0x5c>
 8002d8c:	68bb      	ldr	r3, [r7, #8]
 8002d8e:	60bb      	str	r3, [r7, #8]

    return y;
 8002d90:	68bb      	ldr	r3, [r7, #8]
}
 8002d92:	4618      	mov	r0, r3
 8002d94:	3710      	adds	r7, #16
 8002d96:	46bd      	mov	sp, r7
 8002d98:	bd80      	pop	{r7, pc}
	...

08002d9c <qFIS_GetFuzzOperator>:
/*============================================================================*/
static qFIS_FuzzyOperator_t qFIS_GetFuzzOperator( const qFIS_t * const f )
{
 8002d9c:	b480      	push	{r7}
 8002d9e:	b085      	sub	sp, #20
 8002da0:	af00      	add	r7, sp, #0
 8002da2:	6078      	str	r0, [r7, #4]
    qFIS_FuzzyOperator_t oper;

    switch ( f->lastConnector ) {
 8002da4:	687b      	ldr	r3, [r7, #4]
 8002da6:	f9b3 305c 	ldrsh.w	r3, [r3, #92]	; 0x5c
 8002daa:	4a0c      	ldr	r2, [pc, #48]	; (8002ddc <qFIS_GetFuzzOperator+0x40>)
 8002dac:	4293      	cmp	r3, r2
 8002dae:	d003      	beq.n	8002db8 <qFIS_GetFuzzOperator+0x1c>
 8002db0:	4a0b      	ldr	r2, [pc, #44]	; (8002de0 <qFIS_GetFuzzOperator+0x44>)
 8002db2:	4293      	cmp	r3, r2
 8002db4:	d004      	beq.n	8002dc0 <qFIS_GetFuzzOperator+0x24>
 8002db6:	e007      	b.n	8002dc8 <qFIS_GetFuzzOperator+0x2c>
        case _QFIS_AND:
            oper = f->andOp;
 8002db8:	687b      	ldr	r3, [r7, #4]
 8002dba:	691b      	ldr	r3, [r3, #16]
 8002dbc:	60fb      	str	r3, [r7, #12]
            break;
 8002dbe:	e006      	b.n	8002dce <qFIS_GetFuzzOperator+0x32>
        case _QFIS_OR:
            oper = f->orOp;
 8002dc0:	687b      	ldr	r3, [r7, #4]
 8002dc2:	695b      	ldr	r3, [r3, #20]
 8002dc4:	60fb      	str	r3, [r7, #12]
            break;
 8002dc6:	e002      	b.n	8002dce <qFIS_GetFuzzOperator+0x32>
        default: 
            oper = &qFIS_Sum;
 8002dc8:	4b06      	ldr	r3, [pc, #24]	; (8002de4 <qFIS_GetFuzzOperator+0x48>)
 8002dca:	60fb      	str	r3, [r7, #12]
            break;
 8002dcc:	bf00      	nop
    }

    return oper;
 8002dce:	68fb      	ldr	r3, [r7, #12]
}
 8002dd0:	4618      	mov	r0, r3
 8002dd2:	3714      	adds	r7, #20
 8002dd4:	46bd      	mov	sp, r7
 8002dd6:	bc80      	pop	{r7}
 8002dd8:	4770      	bx	lr
 8002dda:	bf00      	nop
 8002ddc:	ffff8002 	.word	0xffff8002
 8002de0:	ffff8003 	.word	0xffff8003
 8002de4:	08004583 	.word	0x08004583

08002de8 <qFIS_InferenceAntecedent>:
/*============================================================================*/
static size_t qFIS_InferenceAntecedent( struct _qFIS_s * const f,
                                        size_t i )
{
 8002de8:	b590      	push	{r4, r7, lr}
 8002dea:	b087      	sub	sp, #28
 8002dec:	af00      	add	r7, sp, #0
 8002dee:	6078      	str	r0, [r7, #4]
 8002df0:	6039      	str	r1, [r7, #0]
    int16_t inIndex, MFInIndex, connector;
    qFIS_FuzzyOperator_t op;
    /*cstat -CERT-INT30-C_a*/
    inIndex = f->rules[ i ];
 8002df2:	687b      	ldr	r3, [r7, #4]
 8002df4:	6b5a      	ldr	r2, [r3, #52]	; 0x34
 8002df6:	683b      	ldr	r3, [r7, #0]
 8002df8:	005b      	lsls	r3, r3, #1
 8002dfa:	4413      	add	r3, r2
 8002dfc:	881b      	ldrh	r3, [r3, #0]
 8002dfe:	82fb      	strh	r3, [r7, #22]
    MFInIndex = f->rules[ i + 1u ];
 8002e00:	687b      	ldr	r3, [r7, #4]
 8002e02:	6b5a      	ldr	r2, [r3, #52]	; 0x34
 8002e04:	683b      	ldr	r3, [r7, #0]
 8002e06:	3301      	adds	r3, #1
 8002e08:	005b      	lsls	r3, r3, #1
 8002e0a:	4413      	add	r3, r2
 8002e0c:	881b      	ldrh	r3, [r3, #0]
 8002e0e:	82bb      	strh	r3, [r7, #20]
    connector = f->rules[ i + 2u ];
 8002e10:	687b      	ldr	r3, [r7, #4]
 8002e12:	6b5a      	ldr	r2, [r3, #52]	; 0x34
 8002e14:	683b      	ldr	r3, [r7, #0]
 8002e16:	3302      	adds	r3, #2
 8002e18:	005b      	lsls	r3, r3, #1
 8002e1a:	4413      	add	r3, r2
 8002e1c:	881b      	ldrh	r3, [r3, #0]
 8002e1e:	827b      	strh	r3, [r7, #18]
    /*cstat -CERT-INT30-C_a*/
    op = qFIS_GetFuzzOperator( f );
 8002e20:	6878      	ldr	r0, [r7, #4]
 8002e22:	f7ff ffbb 	bl	8002d9c <qFIS_GetFuzzOperator>
 8002e26:	60f8      	str	r0, [r7, #12]
    f->rStrength = op( f->rStrength, qFIS_ParseFuzzValue( f->inMF, MFInIndex ) );
 8002e28:	687b      	ldr	r3, [r7, #4]
 8002e2a:	6d9c      	ldr	r4, [r3, #88]	; 0x58
 8002e2c:	687b      	ldr	r3, [r7, #4]
 8002e2e:	689b      	ldr	r3, [r3, #8]
 8002e30:	f9b7 2014 	ldrsh.w	r2, [r7, #20]
 8002e34:	4611      	mov	r1, r2
 8002e36:	4618      	mov	r0, r3
 8002e38:	f7ff ff7b 	bl	8002d32 <qFIS_ParseFuzzValue>
 8002e3c:	4602      	mov	r2, r0
 8002e3e:	68fb      	ldr	r3, [r7, #12]
 8002e40:	4611      	mov	r1, r2
 8002e42:	4620      	mov	r0, r4
 8002e44:	4798      	blx	r3
 8002e46:	4602      	mov	r2, r0
 8002e48:	687b      	ldr	r3, [r7, #4]
 8002e4a:	659a      	str	r2, [r3, #88]	; 0x58

    if ( ( inIndex < 0 ) || ( (size_t)inIndex > f->nInputs ) ) {
 8002e4c:	f9b7 3016 	ldrsh.w	r3, [r7, #22]
 8002e50:	2b00      	cmp	r3, #0
 8002e52:	db05      	blt.n	8002e60 <qFIS_InferenceAntecedent+0x78>
 8002e54:	f9b7 2016 	ldrsh.w	r2, [r7, #22]
 8002e58:	687b      	ldr	r3, [r7, #4]
 8002e5a:	6bdb      	ldr	r3, [r3, #60]	; 0x3c
 8002e5c:	429a      	cmp	r2, r3
 8002e5e:	d902      	bls.n	8002e66 <qFIS_InferenceAntecedent+0x7e>
        i = QFIS_INFERENCE_ERROR;
 8002e60:	2300      	movs	r3, #0
 8002e62:	603b      	str	r3, [r7, #0]
 8002e64:	e022      	b.n	8002eac <qFIS_InferenceAntecedent+0xc4>
    }
    else {
        if ( ( _QFIS_AND == connector ) || ( _QFIS_OR == connector ) ) {
 8002e66:	f9b7 3012 	ldrsh.w	r3, [r7, #18]
 8002e6a:	4a13      	ldr	r2, [pc, #76]	; (8002eb8 <qFIS_InferenceAntecedent+0xd0>)
 8002e6c:	4293      	cmp	r3, r2
 8002e6e:	d004      	beq.n	8002e7a <qFIS_InferenceAntecedent+0x92>
 8002e70:	f9b7 3012 	ldrsh.w	r3, [r7, #18]
 8002e74:	4a11      	ldr	r2, [pc, #68]	; (8002ebc <qFIS_InferenceAntecedent+0xd4>)
 8002e76:	4293      	cmp	r3, r2
 8002e78:	d10a      	bne.n	8002e90 <qFIS_InferenceAntecedent+0xa8>
            f->lastConnector = connector;
 8002e7a:	687b      	ldr	r3, [r7, #4]
 8002e7c:	8a7a      	ldrh	r2, [r7, #18]
 8002e7e:	f8a3 205c 	strh.w	r2, [r3, #92]	; 0x5c
            f->inferenceState = &qFIS_InferenceAntecedent;
 8002e82:	687b      	ldr	r3, [r7, #4]
 8002e84:	4a0e      	ldr	r2, [pc, #56]	; (8002ec0 <qFIS_InferenceAntecedent+0xd8>)
 8002e86:	621a      	str	r2, [r3, #32]
            i += 2u;
 8002e88:	683b      	ldr	r3, [r7, #0]
 8002e8a:	3302      	adds	r3, #2
 8002e8c:	603b      	str	r3, [r7, #0]
 8002e8e:	e00d      	b.n	8002eac <qFIS_InferenceAntecedent+0xc4>
        }
        else if ( _QFIS_THEN == connector ) {
 8002e90:	f9b7 3012 	ldrsh.w	r3, [r7, #18]
 8002e94:	4a0b      	ldr	r2, [pc, #44]	; (8002ec4 <qFIS_InferenceAntecedent+0xdc>)
 8002e96:	4293      	cmp	r3, r2
 8002e98:	d106      	bne.n	8002ea8 <qFIS_InferenceAntecedent+0xc0>
            f->inferenceState = &qFIS_InferenceReachEnd;
 8002e9a:	687b      	ldr	r3, [r7, #4]
 8002e9c:	4a0a      	ldr	r2, [pc, #40]	; (8002ec8 <qFIS_InferenceAntecedent+0xe0>)
 8002e9e:	621a      	str	r2, [r3, #32]
            i += 2u;
 8002ea0:	683b      	ldr	r3, [r7, #0]
 8002ea2:	3302      	adds	r3, #2
 8002ea4:	603b      	str	r3, [r7, #0]
 8002ea6:	e001      	b.n	8002eac <qFIS_InferenceAntecedent+0xc4>
        }
        else {
            i = QFIS_INFERENCE_ERROR;
 8002ea8:	2300      	movs	r3, #0
 8002eaa:	603b      	str	r3, [r7, #0]
        }
    }

    return i;
 8002eac:	683b      	ldr	r3, [r7, #0]
}
 8002eae:	4618      	mov	r0, r3
 8002eb0:	371c      	adds	r7, #28
 8002eb2:	46bd      	mov	sp, r7
 8002eb4:	bd90      	pop	{r4, r7, pc}
 8002eb6:	bf00      	nop
 8002eb8:	ffff8002 	.word	0xffff8002
 8002ebc:	ffff8003 	.word	0xffff8003
 8002ec0:	08002de9 	.word	0x08002de9
 8002ec4:	ffff8004 	.word	0xffff8004
 8002ec8:	08002ecd 	.word	0x08002ecd

08002ecc <qFIS_InferenceReachEnd>:
/*============================================================================*/
static size_t qFIS_InferenceReachEnd( struct _qFIS_s * const f,
                                      size_t i )
{
 8002ecc:	b590      	push	{r4, r7, lr}
 8002ece:	b085      	sub	sp, #20
 8002ed0:	af00      	add	r7, sp, #0
 8002ed2:	6078      	str	r0, [r7, #4]
 8002ed4:	6039      	str	r1, [r7, #0]
    int16_t  connector;

    connector = ( f->nOutputs > 1u )? f->rules[ i + 2u ] : -1;
 8002ed6:	687b      	ldr	r3, [r7, #4]
 8002ed8:	6c1b      	ldr	r3, [r3, #64]	; 0x40
 8002eda:	2b01      	cmp	r3, #1
 8002edc:	d908      	bls.n	8002ef0 <qFIS_InferenceReachEnd+0x24>
 8002ede:	687b      	ldr	r3, [r7, #4]
 8002ee0:	6b5a      	ldr	r2, [r3, #52]	; 0x34
 8002ee2:	683b      	ldr	r3, [r7, #0]
 8002ee4:	3302      	adds	r3, #2
 8002ee6:	005b      	lsls	r3, r3, #1
 8002ee8:	4413      	add	r3, r2
 8002eea:	f9b3 3000 	ldrsh.w	r3, [r3]
 8002eee:	e001      	b.n	8002ef4 <qFIS_InferenceReachEnd+0x28>
 8002ef0:	f04f 33ff 	mov.w	r3, #4294967295
 8002ef4:	81fb      	strh	r3, [r7, #14]
    i += 2u;
 8002ef6:	683b      	ldr	r3, [r7, #0]
 8002ef8:	3302      	adds	r3, #2
 8002efa:	603b      	str	r3, [r7, #0]
    if ( _QFIS_AND != connector ) {
 8002efc:	f9b7 300e 	ldrsh.w	r3, [r7, #14]
 8002f00:	4a23      	ldr	r2, [pc, #140]	; (8002f90 <qFIS_InferenceReachEnd+0xc4>)
 8002f02:	4293      	cmp	r3, r2
 8002f04:	d03f      	beq.n	8002f86 <qFIS_InferenceReachEnd+0xba>
        f->inferenceState = &qFIS_InferenceAntecedent;
 8002f06:	687b      	ldr	r3, [r7, #4]
 8002f08:	4a22      	ldr	r2, [pc, #136]	; (8002f94 <qFIS_InferenceReachEnd+0xc8>)
 8002f0a:	621a      	str	r2, [r3, #32]
        f->lastConnector = -1;
 8002f0c:	687b      	ldr	r3, [r7, #4]
 8002f0e:	f64f 72ff 	movw	r2, #65535	; 0xffff
 8002f12:	f8a3 205c 	strh.w	r2, [r3, #92]	; 0x5c
        f->wi[ f->ruleCount ] = f->rStrength;
 8002f16:	687b      	ldr	r3, [r7, #4]
 8002f18:	6b1a      	ldr	r2, [r3, #48]	; 0x30
 8002f1a:	687b      	ldr	r3, [r7, #4]
 8002f1c:	6d5b      	ldr	r3, [r3, #84]	; 0x54
 8002f1e:	009b      	lsls	r3, r3, #2
 8002f20:	4413      	add	r3, r2
 8002f22:	687a      	ldr	r2, [r7, #4]
 8002f24:	6d92      	ldr	r2, [r2, #88]	; 0x58
 8002f26:	601a      	str	r2, [r3, #0]
        if ( NULL != f->ruleWeight ) {
 8002f28:	687b      	ldr	r3, [r7, #4]
 8002f2a:	6adb      	ldr	r3, [r3, #44]	; 0x2c
 8002f2c:	2b00      	cmp	r3, #0
 8002f2e:	d01e      	beq.n	8002f6e <qFIS_InferenceReachEnd+0xa2>
            f->wi[ f->ruleCount ] *= qFIS_Bound( f->ruleWeight[ f->ruleCount ], 0.0f, 1.0f );
 8002f30:	687b      	ldr	r3, [r7, #4]
 8002f32:	6ada      	ldr	r2, [r3, #44]	; 0x2c
 8002f34:	687b      	ldr	r3, [r7, #4]
 8002f36:	6d5b      	ldr	r3, [r3, #84]	; 0x54
 8002f38:	009b      	lsls	r3, r3, #2
 8002f3a:	4413      	add	r3, r2
 8002f3c:	681b      	ldr	r3, [r3, #0]
 8002f3e:	f04f 527e 	mov.w	r2, #1065353216	; 0x3f800000
 8002f42:	f04f 0100 	mov.w	r1, #0
 8002f46:	4618      	mov	r0, r3
 8002f48:	f001 fb31 	bl	80045ae <qFIS_Bound>
 8002f4c:	687b      	ldr	r3, [r7, #4]
 8002f4e:	6b1a      	ldr	r2, [r3, #48]	; 0x30
 8002f50:	687b      	ldr	r3, [r7, #4]
 8002f52:	6d5b      	ldr	r3, [r3, #84]	; 0x54
 8002f54:	009b      	lsls	r3, r3, #2
 8002f56:	4413      	add	r3, r2
 8002f58:	6819      	ldr	r1, [r3, #0]
 8002f5a:	687b      	ldr	r3, [r7, #4]
 8002f5c:	6b1a      	ldr	r2, [r3, #48]	; 0x30
 8002f5e:	687b      	ldr	r3, [r7, #4]
 8002f60:	6d5b      	ldr	r3, [r3, #84]	; 0x54
 8002f62:	009b      	lsls	r3, r3, #2
 8002f64:	18d4      	adds	r4, r2, r3
 8002f66:	f7fd febd 	bl	8000ce4 <__aeabi_fmul>
 8002f6a:	4603      	mov	r3, r0
 8002f6c:	6023      	str	r3, [r4, #0]
        }
        f->rStrength = 0.0f;
 8002f6e:	687b      	ldr	r3, [r7, #4]
 8002f70:	f04f 0200 	mov.w	r2, #0
 8002f74:	659a      	str	r2, [r3, #88]	; 0x58
        ++f->ruleCount;
 8002f76:	687b      	ldr	r3, [r7, #4]
 8002f78:	6d5b      	ldr	r3, [r3, #84]	; 0x54
 8002f7a:	1c5a      	adds	r2, r3, #1
 8002f7c:	687b      	ldr	r3, [r7, #4]
 8002f7e:	655a      	str	r2, [r3, #84]	; 0x54
        --i;
 8002f80:	683b      	ldr	r3, [r7, #0]
 8002f82:	3b01      	subs	r3, #1
 8002f84:	603b      	str	r3, [r7, #0]
    }

    return i;
 8002f86:	683b      	ldr	r3, [r7, #0]
}
 8002f88:	4618      	mov	r0, r3
 8002f8a:	3714      	adds	r7, #20
 8002f8c:	46bd      	mov	sp, r7
 8002f8e:	bd90      	pop	{r4, r7, pc}
 8002f90:	ffff8002 	.word	0xffff8002
 8002f94:	08002de9 	.word	0x08002de9

08002f98 <qFIS_AggregationFindConsequent>:
/*============================================================================*/
static size_t qFIS_AggregationFindConsequent( struct _qFIS_s * const f,
                                              size_t i )
{
 8002f98:	b480      	push	{r7}
 8002f9a:	b083      	sub	sp, #12
 8002f9c:	af00      	add	r7, sp, #0
 8002f9e:	6078      	str	r0, [r7, #4]
 8002fa0:	6039      	str	r1, [r7, #0]
    while ( _QFIS_THEN != f->rules[ i++ ] ) {}
 8002fa2:	bf00      	nop
 8002fa4:	687b      	ldr	r3, [r7, #4]
 8002fa6:	6b5a      	ldr	r2, [r3, #52]	; 0x34
 8002fa8:	683b      	ldr	r3, [r7, #0]
 8002faa:	1c59      	adds	r1, r3, #1
 8002fac:	6039      	str	r1, [r7, #0]
 8002fae:	005b      	lsls	r3, r3, #1
 8002fb0:	4413      	add	r3, r2
 8002fb2:	f9b3 3000 	ldrsh.w	r3, [r3]
 8002fb6:	4a07      	ldr	r2, [pc, #28]	; (8002fd4 <qFIS_AggregationFindConsequent+0x3c>)
 8002fb8:	4293      	cmp	r3, r2
 8002fba:	d1f3      	bne.n	8002fa4 <qFIS_AggregationFindConsequent+0xc>
    f->aggregationState = &qFIS_InferenceConsequent;
 8002fbc:	687b      	ldr	r3, [r7, #4]
 8002fbe:	4a06      	ldr	r2, [pc, #24]	; (8002fd8 <qFIS_AggregationFindConsequent+0x40>)
 8002fc0:	625a      	str	r2, [r3, #36]	; 0x24

    return --i;
 8002fc2:	683b      	ldr	r3, [r7, #0]
 8002fc4:	3b01      	subs	r3, #1
 8002fc6:	603b      	str	r3, [r7, #0]
 8002fc8:	683b      	ldr	r3, [r7, #0]
}
 8002fca:	4618      	mov	r0, r3
 8002fcc:	370c      	adds	r7, #12
 8002fce:	46bd      	mov	sp, r7
 8002fd0:	bc80      	pop	{r7}
 8002fd2:	4770      	bx	lr
 8002fd4:	ffff8004 	.word	0xffff8004
 8002fd8:	08002fdd 	.word	0x08002fdd

08002fdc <qFIS_InferenceConsequent>:
/*============================================================================*/
static size_t qFIS_InferenceConsequent( struct _qFIS_s * const f,
                                        size_t i )
{
 8002fdc:	b5b0      	push	{r4, r5, r7, lr}
 8002fde:	b088      	sub	sp, #32
 8002fe0:	af00      	add	r7, sp, #0
 8002fe2:	6078      	str	r0, [r7, #4]
 8002fe4:	6039      	str	r1, [r7, #0]
    int16_t outIndex, MFOutIndex, connector;
    uint8_t neg = 0u;
 8002fe6:	2300      	movs	r3, #0
 8002fe8:	777b      	strb	r3, [r7, #29]

    outIndex = f->rules[ i ];
 8002fea:	687b      	ldr	r3, [r7, #4]
 8002fec:	6b5a      	ldr	r2, [r3, #52]	; 0x34
 8002fee:	683b      	ldr	r3, [r7, #0]
 8002ff0:	005b      	lsls	r3, r3, #1
 8002ff2:	4413      	add	r3, r2
 8002ff4:	881b      	ldrh	r3, [r3, #0]
 8002ff6:	837b      	strh	r3, [r7, #26]
    MFOutIndex = f->rules[ i + 1u ];
 8002ff8:	687b      	ldr	r3, [r7, #4]
 8002ffa:	6b5a      	ldr	r2, [r3, #52]	; 0x34
 8002ffc:	683b      	ldr	r3, [r7, #0]
 8002ffe:	3301      	adds	r3, #1
 8003000:	005b      	lsls	r3, r3, #1
 8003002:	4413      	add	r3, r2
 8003004:	881b      	ldrh	r3, [r3, #0]
 8003006:	83fb      	strh	r3, [r7, #30]
    connector = ( f->nOutputs > 1u )? f->rules[ i + 2u ] : -1;
 8003008:	687b      	ldr	r3, [r7, #4]
 800300a:	6c1b      	ldr	r3, [r3, #64]	; 0x40
 800300c:	2b01      	cmp	r3, #1
 800300e:	d908      	bls.n	8003022 <qFIS_InferenceConsequent+0x46>
 8003010:	687b      	ldr	r3, [r7, #4]
 8003012:	6b5a      	ldr	r2, [r3, #52]	; 0x34
 8003014:	683b      	ldr	r3, [r7, #0]
 8003016:	3302      	adds	r3, #2
 8003018:	005b      	lsls	r3, r3, #1
 800301a:	4413      	add	r3, r2
 800301c:	f9b3 3000 	ldrsh.w	r3, [r3]
 8003020:	e001      	b.n	8003026 <qFIS_InferenceConsequent+0x4a>
 8003022:	f04f 33ff 	mov.w	r3, #4294967295
 8003026:	833b      	strh	r3, [r7, #24]
    if ( MFOutIndex < 0 ) {
 8003028:	f9b7 301e 	ldrsh.w	r3, [r7, #30]
 800302c:	2b00      	cmp	r3, #0
 800302e:	da05      	bge.n	800303c <qFIS_InferenceConsequent+0x60>
        MFOutIndex = -MFOutIndex;
 8003030:	8bfb      	ldrh	r3, [r7, #30]
 8003032:	425b      	negs	r3, r3
 8003034:	b29b      	uxth	r3, r3
 8003036:	83fb      	strh	r3, [r7, #30]
        neg = 1u;
 8003038:	2301      	movs	r3, #1
 800303a:	777b      	strb	r3, [r7, #29]
    }
    MFOutIndex -= 1;
 800303c:	8bfb      	ldrh	r3, [r7, #30]
 800303e:	3b01      	subs	r3, #1
 8003040:	b29b      	uxth	r3, r3
 8003042:	83fb      	strh	r3, [r7, #30]

    if ( f->wi[ f->ruleCount ] > 0.0f ) {
 8003044:	687b      	ldr	r3, [r7, #4]
 8003046:	6b1a      	ldr	r2, [r3, #48]	; 0x30
 8003048:	687b      	ldr	r3, [r7, #4]
 800304a:	6d5b      	ldr	r3, [r3, #84]	; 0x54
 800304c:	009b      	lsls	r3, r3, #2
 800304e:	4413      	add	r3, r2
 8003050:	681b      	ldr	r3, [r3, #0]
 8003052:	f04f 0100 	mov.w	r1, #0
 8003056:	4618      	mov	r0, r3
 8003058:	f7fe f800 	bl	800105c <__aeabi_fcmpgt>
 800305c:	4603      	mov	r3, r0
 800305e:	2b00      	cmp	r3, #0
 8003060:	d07b      	beq.n	800315a <qFIS_InferenceConsequent+0x17e>
        qFIS_Output_t *o = &f->output[ outIndex ];
 8003062:	687b      	ldr	r3, [r7, #4]
 8003064:	685a      	ldr	r2, [r3, #4]
 8003066:	f9b7 301a 	ldrsh.w	r3, [r7, #26]
 800306a:	2134      	movs	r1, #52	; 0x34
 800306c:	fb01 f303 	mul.w	r3, r1, r3
 8003070:	4413      	add	r3, r2
 8003072:	617b      	str	r3, [r7, #20]
        qFIS_MF_t *m = &f->outMF[ MFOutIndex ];
 8003074:	687b      	ldr	r3, [r7, #4]
 8003076:	68d9      	ldr	r1, [r3, #12]
 8003078:	f9b7 201e 	ldrsh.w	r2, [r7, #30]
 800307c:	4613      	mov	r3, r2
 800307e:	009b      	lsls	r3, r3, #2
 8003080:	4413      	add	r3, r2
 8003082:	009b      	lsls	r3, r3, #2
 8003084:	440b      	add	r3, r1
 8003086:	613b      	str	r3, [r7, #16]

        if ( Mamdani == f->type ) {
 8003088:	687b      	ldr	r3, [r7, #4]
 800308a:	f893 305e 	ldrb.w	r3, [r3, #94]	; 0x5e
 800308e:	2b00      	cmp	r3, #0
 8003090:	d133      	bne.n	80030fa <qFIS_InferenceConsequent+0x11e>
            float v;
            /*cstat -MISRAC2012-Rule-11.3 -CERT-EXP39-C_d*/
            v = m->h*m->shape( (qFIS_IO_Base_t*)o, m->points, 1u );
 8003092:	693b      	ldr	r3, [r7, #16]
 8003094:	68dc      	ldr	r4, [r3, #12]
 8003096:	693b      	ldr	r3, [r7, #16]
 8003098:	681b      	ldr	r3, [r3, #0]
 800309a:	693a      	ldr	r2, [r7, #16]
 800309c:	6851      	ldr	r1, [r2, #4]
 800309e:	2201      	movs	r2, #1
 80030a0:	6978      	ldr	r0, [r7, #20]
 80030a2:	4798      	blx	r3
 80030a4:	4603      	mov	r3, r0
 80030a6:	4619      	mov	r1, r3
 80030a8:	4620      	mov	r0, r4
 80030aa:	f7fd fe1b 	bl	8000ce4 <__aeabi_fmul>
 80030ae:	4603      	mov	r3, r0
 80030b0:	60bb      	str	r3, [r7, #8]
            /*cstat +MISRAC2012-Rule-11.3 +CERT-EXP39-C_d*/
            v = ( 1u == neg )? ( 1.0f - v ) : v;
 80030b2:	7f7b      	ldrb	r3, [r7, #29]
 80030b4:	2b01      	cmp	r3, #1
 80030b6:	d106      	bne.n	80030c6 <qFIS_InferenceConsequent+0xea>
 80030b8:	68b9      	ldr	r1, [r7, #8]
 80030ba:	f04f 507e 	mov.w	r0, #1065353216	; 0x3f800000
 80030be:	f7fd fd07 	bl	8000ad0 <__aeabi_fsub>
 80030c2:	4603      	mov	r3, r0
 80030c4:	e000      	b.n	80030c8 <qFIS_InferenceConsequent+0xec>
 80030c6:	68bb      	ldr	r3, [r7, #8]
 80030c8:	60bb      	str	r3, [r7, #8]
            o->y = f->aggregate( o->y, f->implicate( f->wi[ f->ruleCount ], v ) );
 80030ca:	687b      	ldr	r3, [r7, #4]
 80030cc:	69dc      	ldr	r4, [r3, #28]
 80030ce:	697b      	ldr	r3, [r7, #20]
 80030d0:	695d      	ldr	r5, [r3, #20]
 80030d2:	687b      	ldr	r3, [r7, #4]
 80030d4:	699b      	ldr	r3, [r3, #24]
 80030d6:	687a      	ldr	r2, [r7, #4]
 80030d8:	6b11      	ldr	r1, [r2, #48]	; 0x30
 80030da:	687a      	ldr	r2, [r7, #4]
 80030dc:	6d52      	ldr	r2, [r2, #84]	; 0x54
 80030de:	0092      	lsls	r2, r2, #2
 80030e0:	440a      	add	r2, r1
 80030e2:	6812      	ldr	r2, [r2, #0]
 80030e4:	68b9      	ldr	r1, [r7, #8]
 80030e6:	4610      	mov	r0, r2
 80030e8:	4798      	blx	r3
 80030ea:	4603      	mov	r3, r0
 80030ec:	4619      	mov	r1, r3
 80030ee:	4628      	mov	r0, r5
 80030f0:	47a0      	blx	r4
 80030f2:	4602      	mov	r2, r0
 80030f4:	697b      	ldr	r3, [r7, #20]
 80030f6:	615a      	str	r2, [r3, #20]
 80030f8:	e02f      	b.n	800315a <qFIS_InferenceConsequent+0x17e>
        }
        else { /* Sugeno and Tsukamoto*/
            float zi;
            /*cstat -MISRAC2012-Rule-11.3 -CERT-EXP39-C_d*/
            zi = m->shape( (qFIS_IO_Base_t*)f->input, m->points, f->nInputs );
 80030fa:	693b      	ldr	r3, [r7, #16]
 80030fc:	681b      	ldr	r3, [r3, #0]
 80030fe:	687a      	ldr	r2, [r7, #4]
 8003100:	6810      	ldr	r0, [r2, #0]
 8003102:	693a      	ldr	r2, [r7, #16]
 8003104:	6851      	ldr	r1, [r2, #4]
 8003106:	687a      	ldr	r2, [r7, #4]
 8003108:	6bd2      	ldr	r2, [r2, #60]	; 0x3c
 800310a:	4798      	blx	r3
 800310c:	60f8      	str	r0, [r7, #12]
            /*cstat +MISRAC2012-Rule-11.3 +CERT-EXP39-C_d*/
            o->data[ 0 ] += zi*f->wi[ f->ruleCount ];
 800310e:	697b      	ldr	r3, [r7, #20]
 8003110:	699c      	ldr	r4, [r3, #24]
 8003112:	687b      	ldr	r3, [r7, #4]
 8003114:	6b1a      	ldr	r2, [r3, #48]	; 0x30
 8003116:	687b      	ldr	r3, [r7, #4]
 8003118:	6d5b      	ldr	r3, [r3, #84]	; 0x54
 800311a:	009b      	lsls	r3, r3, #2
 800311c:	4413      	add	r3, r2
 800311e:	681b      	ldr	r3, [r3, #0]
 8003120:	68f9      	ldr	r1, [r7, #12]
 8003122:	4618      	mov	r0, r3
 8003124:	f7fd fdde 	bl	8000ce4 <__aeabi_fmul>
 8003128:	4603      	mov	r3, r0
 800312a:	4619      	mov	r1, r3
 800312c:	4620      	mov	r0, r4
 800312e:	f7fd fcd1 	bl	8000ad4 <__addsf3>
 8003132:	4603      	mov	r3, r0
 8003134:	461a      	mov	r2, r3
 8003136:	697b      	ldr	r3, [r7, #20]
 8003138:	619a      	str	r2, [r3, #24]
            o->data[ 1 ] += f->wi[ f->ruleCount ];
 800313a:	697b      	ldr	r3, [r7, #20]
 800313c:	69d8      	ldr	r0, [r3, #28]
 800313e:	687b      	ldr	r3, [r7, #4]
 8003140:	6b1a      	ldr	r2, [r3, #48]	; 0x30
 8003142:	687b      	ldr	r3, [r7, #4]
 8003144:	6d5b      	ldr	r3, [r3, #84]	; 0x54
 8003146:	009b      	lsls	r3, r3, #2
 8003148:	4413      	add	r3, r2
 800314a:	681b      	ldr	r3, [r3, #0]
 800314c:	4619      	mov	r1, r3
 800314e:	f7fd fcc1 	bl	8000ad4 <__addsf3>
 8003152:	4603      	mov	r3, r0
 8003154:	461a      	mov	r2, r3
 8003156:	697b      	ldr	r3, [r7, #20]
 8003158:	61da      	str	r2, [r3, #28]
        }
    }

    i += 2u;
 800315a:	683b      	ldr	r3, [r7, #0]
 800315c:	3302      	adds	r3, #2
 800315e:	603b      	str	r3, [r7, #0]
    if ( _QFIS_AND != connector ) {
 8003160:	f9b7 3018 	ldrsh.w	r3, [r7, #24]
 8003164:	4a09      	ldr	r2, [pc, #36]	; (800318c <qFIS_InferenceConsequent+0x1b0>)
 8003166:	4293      	cmp	r3, r2
 8003168:	d00a      	beq.n	8003180 <qFIS_InferenceConsequent+0x1a4>
        f->aggregationState = &qFIS_AggregationFindConsequent;
 800316a:	687b      	ldr	r3, [r7, #4]
 800316c:	4a08      	ldr	r2, [pc, #32]	; (8003190 <qFIS_InferenceConsequent+0x1b4>)
 800316e:	625a      	str	r2, [r3, #36]	; 0x24
        ++f->ruleCount;
 8003170:	687b      	ldr	r3, [r7, #4]
 8003172:	6d5b      	ldr	r3, [r3, #84]	; 0x54
 8003174:	1c5a      	adds	r2, r3, #1
 8003176:	687b      	ldr	r3, [r7, #4]
 8003178:	655a      	str	r2, [r3, #84]	; 0x54
        --i;
 800317a:	683b      	ldr	r3, [r7, #0]
 800317c:	3b01      	subs	r3, #1
 800317e:	603b      	str	r3, [r7, #0]
    }

    return i;
 8003180:	683b      	ldr	r3, [r7, #0]
}
 8003182:	4618      	mov	r0, r3
 8003184:	3720      	adds	r7, #32
 8003186:	46bd      	mov	sp, r7
 8003188:	bdb0      	pop	{r4, r5, r7, pc}
 800318a:	bf00      	nop
 800318c:	ffff8002 	.word	0xffff8002
 8003190:	08002f99 	.word	0x08002f99

08003194 <qFIS_Aggregate>:
/*============================================================================*/
static void qFIS_Aggregate( qFIS_t * const f )
{
 8003194:	b580      	push	{r7, lr}
 8003196:	b084      	sub	sp, #16
 8003198:	af00      	add	r7, sp, #0
 800319a:	6078      	str	r0, [r7, #4]
    if ( NULL != f ) {
 800319c:	687b      	ldr	r3, [r7, #4]
 800319e:	2b00      	cmp	r3, #0
 80031a0:	d02d      	beq.n	80031fe <qFIS_Aggregate+0x6a>
        if ( QFIS_RULES_BEGIN == f->rules[ 0 ] ) {
 80031a2:	687b      	ldr	r3, [r7, #4]
 80031a4:	6b5b      	ldr	r3, [r3, #52]	; 0x34
 80031a6:	f9b3 3000 	ldrsh.w	r3, [r3]
 80031aa:	f513 4f00 	cmn.w	r3, #32768	; 0x8000
 80031ae:	d126      	bne.n	80031fe <qFIS_Aggregate+0x6a>
            size_t i = 1u;
 80031b0:	2301      	movs	r3, #1
 80031b2:	60fb      	str	r3, [r7, #12]

            f->aggregationState = &qFIS_AggregationFindConsequent;
 80031b4:	687b      	ldr	r3, [r7, #4]
 80031b6:	4a14      	ldr	r2, [pc, #80]	; (8003208 <qFIS_Aggregate+0x74>)
 80031b8:	625a      	str	r2, [r3, #36]	; 0x24
            f->ruleCount = 0u;
 80031ba:	687b      	ldr	r3, [r7, #4]
 80031bc:	2200      	movs	r2, #0
 80031be:	655a      	str	r2, [r3, #84]	; 0x54
            while ( ( _QFIS_RULES_END != f->rules[ i ] ) && ( f->ruleCount < f->nRules ) ) {
 80031c0:	e00b      	b.n	80031da <qFIS_Aggregate+0x46>
                i = f->aggregationState( f, i );
 80031c2:	687b      	ldr	r3, [r7, #4]
 80031c4:	6a5b      	ldr	r3, [r3, #36]	; 0x24
 80031c6:	68f9      	ldr	r1, [r7, #12]
 80031c8:	6878      	ldr	r0, [r7, #4]
 80031ca:	4798      	blx	r3
 80031cc:	60f8      	str	r0, [r7, #12]
                if ( QFIS_INFERENCE_ERROR == i ) {
 80031ce:	68fb      	ldr	r3, [r7, #12]
 80031d0:	2b00      	cmp	r3, #0
 80031d2:	d013      	beq.n	80031fc <qFIS_Aggregate+0x68>
                    break;
                }
                ++i;
 80031d4:	68fb      	ldr	r3, [r7, #12]
 80031d6:	3301      	adds	r3, #1
 80031d8:	60fb      	str	r3, [r7, #12]
            while ( ( _QFIS_RULES_END != f->rules[ i ] ) && ( f->ruleCount < f->nRules ) ) {
 80031da:	687b      	ldr	r3, [r7, #4]
 80031dc:	6b5a      	ldr	r2, [r3, #52]	; 0x34
 80031de:	68fb      	ldr	r3, [r7, #12]
 80031e0:	005b      	lsls	r3, r3, #1
 80031e2:	4413      	add	r3, r2
 80031e4:	f9b3 3000 	ldrsh.w	r3, [r3]
 80031e8:	4a08      	ldr	r2, [pc, #32]	; (800320c <qFIS_Aggregate+0x78>)
 80031ea:	4293      	cmp	r3, r2
 80031ec:	d007      	beq.n	80031fe <qFIS_Aggregate+0x6a>
 80031ee:	687b      	ldr	r3, [r7, #4]
 80031f0:	6d5a      	ldr	r2, [r3, #84]	; 0x54
 80031f2:	687b      	ldr	r3, [r7, #4]
 80031f4:	6d1b      	ldr	r3, [r3, #80]	; 0x50
 80031f6:	429a      	cmp	r2, r3
 80031f8:	d3e3      	bcc.n	80031c2 <qFIS_Aggregate+0x2e>
            }
        }
    }
}
 80031fa:	e000      	b.n	80031fe <qFIS_Aggregate+0x6a>
                    break;
 80031fc:	bf00      	nop
}
 80031fe:	bf00      	nop
 8003200:	3710      	adds	r7, #16
 8003202:	46bd      	mov	sp, r7
 8003204:	bd80      	pop	{r7, pc}
 8003206:	bf00      	nop
 8003208:	08002f99 	.word	0x08002f99
 800320c:	ffff8001 	.word	0xffff8001

08003210 <qFIS_DeFuzz_Centroid>:
/*============================================================================*/
static float qFIS_DeFuzz_Centroid( qFIS_Output_t * const o,
                                   const qFIS_DeFuzzState_t stage )
{
 8003210:	b590      	push	{r4, r7, lr}
 8003212:	b085      	sub	sp, #20
 8003214:	af00      	add	r7, sp, #0
 8003216:	6078      	str	r0, [r7, #4]
 8003218:	460b      	mov	r3, r1
 800321a:	70fb      	strb	r3, [r7, #3]
    float d = 0.0f;
 800321c:	f04f 0300 	mov.w	r3, #0
 8003220:	60fb      	str	r3, [r7, #12]

    switch ( stage ) {
 8003222:	78fb      	ldrb	r3, [r7, #3]
 8003224:	2b01      	cmp	r3, #1
 8003226:	d004      	beq.n	8003232 <qFIS_DeFuzz_Centroid+0x22>
 8003228:	2b02      	cmp	r3, #2
 800322a:	d02b      	beq.n	8003284 <qFIS_DeFuzz_Centroid+0x74>
 800322c:	2b00      	cmp	r3, #0
 800322e:	d020      	beq.n	8003272 <qFIS_DeFuzz_Centroid+0x62>
            break;
        case DeFuzz_End:
            d = o->data[ 0 ]/o->data[ 1 ]; /*sum(x*y)/sum(y)*/
            break;
        default:
            break;
 8003230:	e033      	b.n	800329a <qFIS_DeFuzz_Centroid+0x8a>
            o->data[ 0 ] += o->x*o->y;
 8003232:	687b      	ldr	r3, [r7, #4]
 8003234:	699c      	ldr	r4, [r3, #24]
 8003236:	687b      	ldr	r3, [r7, #4]
 8003238:	691a      	ldr	r2, [r3, #16]
 800323a:	687b      	ldr	r3, [r7, #4]
 800323c:	695b      	ldr	r3, [r3, #20]
 800323e:	4619      	mov	r1, r3
 8003240:	4610      	mov	r0, r2
 8003242:	f7fd fd4f 	bl	8000ce4 <__aeabi_fmul>
 8003246:	4603      	mov	r3, r0
 8003248:	4619      	mov	r1, r3
 800324a:	4620      	mov	r0, r4
 800324c:	f7fd fc42 	bl	8000ad4 <__addsf3>
 8003250:	4603      	mov	r3, r0
 8003252:	461a      	mov	r2, r3
 8003254:	687b      	ldr	r3, [r7, #4]
 8003256:	619a      	str	r2, [r3, #24]
            o->data[ 1 ] += o->y;
 8003258:	687b      	ldr	r3, [r7, #4]
 800325a:	69da      	ldr	r2, [r3, #28]
 800325c:	687b      	ldr	r3, [r7, #4]
 800325e:	695b      	ldr	r3, [r3, #20]
 8003260:	4619      	mov	r1, r3
 8003262:	4610      	mov	r0, r2
 8003264:	f7fd fc36 	bl	8000ad4 <__addsf3>
 8003268:	4603      	mov	r3, r0
 800326a:	461a      	mov	r2, r3
 800326c:	687b      	ldr	r3, [r7, #4]
 800326e:	61da      	str	r2, [r3, #28]
            break;
 8003270:	e013      	b.n	800329a <qFIS_DeFuzz_Centroid+0x8a>
            o->data[ 0 ] = 0.0f; /*store sum(y)*/
 8003272:	687b      	ldr	r3, [r7, #4]
 8003274:	f04f 0200 	mov.w	r2, #0
 8003278:	619a      	str	r2, [r3, #24]
            o->data[ 1 ] = 0.0f; /*store sum(x*y)*/
 800327a:	687b      	ldr	r3, [r7, #4]
 800327c:	f04f 0200 	mov.w	r2, #0
 8003280:	61da      	str	r2, [r3, #28]
            break;
 8003282:	e00a      	b.n	800329a <qFIS_DeFuzz_Centroid+0x8a>
            d = o->data[ 0 ]/o->data[ 1 ]; /*sum(x*y)/sum(y)*/
 8003284:	687b      	ldr	r3, [r7, #4]
 8003286:	699a      	ldr	r2, [r3, #24]
 8003288:	687b      	ldr	r3, [r7, #4]
 800328a:	69db      	ldr	r3, [r3, #28]
 800328c:	4619      	mov	r1, r3
 800328e:	4610      	mov	r0, r2
 8003290:	f7fd fddc 	bl	8000e4c <__aeabi_fdiv>
 8003294:	4603      	mov	r3, r0
 8003296:	60fb      	str	r3, [r7, #12]
            break;
 8003298:	bf00      	nop
    }

    return d;
 800329a:	68fb      	ldr	r3, [r7, #12]
}
 800329c:	4618      	mov	r0, r3
 800329e:	3714      	adds	r7, #20
 80032a0:	46bd      	mov	sp, r7
 80032a2:	bd90      	pop	{r4, r7, pc}

080032a4 <qFIS_DeFuzz_WtAverage>:
    return d;
}
/*============================================================================*/
static float qFIS_DeFuzz_WtAverage( qFIS_Output_t * const o,
                                    const qFIS_DeFuzzState_t stage )
{
 80032a4:	b580      	push	{r7, lr}
 80032a6:	b084      	sub	sp, #16
 80032a8:	af00      	add	r7, sp, #0
 80032aa:	6078      	str	r0, [r7, #4]
 80032ac:	460b      	mov	r3, r1
 80032ae:	70fb      	strb	r3, [r7, #3]
    float d = 0.0f;
 80032b0:	f04f 0300 	mov.w	r3, #0
 80032b4:	60fb      	str	r3, [r7, #12]

    if ( DeFuzz_End == stage ) {
 80032b6:	78fb      	ldrb	r3, [r7, #3]
 80032b8:	2b02      	cmp	r3, #2
 80032ba:	d109      	bne.n	80032d0 <qFIS_DeFuzz_WtAverage+0x2c>
        d = o->data[ 0 ]/o->data[ 1 ];
 80032bc:	687b      	ldr	r3, [r7, #4]
 80032be:	699a      	ldr	r2, [r3, #24]
 80032c0:	687b      	ldr	r3, [r7, #4]
 80032c2:	69db      	ldr	r3, [r3, #28]
 80032c4:	4619      	mov	r1, r3
 80032c6:	4610      	mov	r0, r2
 80032c8:	f7fd fdc0 	bl	8000e4c <__aeabi_fdiv>
 80032cc:	4603      	mov	r3, r0
 80032ce:	60fb      	str	r3, [r7, #12]
    }

    return d;
 80032d0:	68fb      	ldr	r3, [r7, #12]
}
 80032d2:	4618      	mov	r0, r3
 80032d4:	3710      	adds	r7, #16
 80032d6:	46bd      	mov	sp, r7
 80032d8:	bd80      	pop	{r7, pc}

080032da <qFIS_DeFuzzify>:

    return d;
}
/*============================================================================*/
int qFIS_DeFuzzify( qFIS_t * const f )
{
 80032da:	b5f0      	push	{r4, r5, r6, r7, lr}
 80032dc:	b087      	sub	sp, #28
 80032de:	af00      	add	r7, sp, #0
 80032e0:	6078      	str	r0, [r7, #4]
    int retVal = 0;
 80032e2:	2300      	movs	r3, #0
 80032e4:	60fb      	str	r3, [r7, #12]

    if ( NULL != f ) {
 80032e6:	687b      	ldr	r3, [r7, #4]
 80032e8:	2b00      	cmp	r3, #0
 80032ea:	f000 8136 	beq.w	800355a <qFIS_DeFuzzify+0x280>
        size_t i;

        for ( i = 0; i < f->nOutputs ; ++i ) {
 80032ee:	2300      	movs	r3, #0
 80032f0:	617b      	str	r3, [r7, #20]
 80032f2:	e00e      	b.n	8003312 <qFIS_DeFuzzify+0x38>
            f->deFuzz( &f->output[ i ] , DeFuzz_Init );
 80032f4:	687b      	ldr	r3, [r7, #4]
 80032f6:	6a9b      	ldr	r3, [r3, #40]	; 0x28
 80032f8:	687a      	ldr	r2, [r7, #4]
 80032fa:	6851      	ldr	r1, [r2, #4]
 80032fc:	697a      	ldr	r2, [r7, #20]
 80032fe:	2034      	movs	r0, #52	; 0x34
 8003300:	fb00 f202 	mul.w	r2, r0, r2
 8003304:	440a      	add	r2, r1
 8003306:	2100      	movs	r1, #0
 8003308:	4610      	mov	r0, r2
 800330a:	4798      	blx	r3
        for ( i = 0; i < f->nOutputs ; ++i ) {
 800330c:	697b      	ldr	r3, [r7, #20]
 800330e:	3301      	adds	r3, #1
 8003310:	617b      	str	r3, [r7, #20]
 8003312:	687b      	ldr	r3, [r7, #4]
 8003314:	6c1b      	ldr	r3, [r3, #64]	; 0x40
 8003316:	697a      	ldr	r2, [r7, #20]
 8003318:	429a      	cmp	r2, r3
 800331a:	d3eb      	bcc.n	80032f4 <qFIS_DeFuzzify+0x1a>
        }

        if ( Mamdani == f->type  ) {
 800331c:	687b      	ldr	r3, [r7, #4]
 800331e:	f893 305e 	ldrb.w	r3, [r3, #94]	; 0x5e
 8003322:	2b00      	cmp	r3, #0
 8003324:	f040 809b 	bne.w	800345e <qFIS_DeFuzzify+0x184>
            size_t k;

            for ( k = 0u ; k < f->nPoints ; ++k ) {
 8003328:	2300      	movs	r3, #0
 800332a:	613b      	str	r3, [r7, #16]
 800332c:	e090      	b.n	8003450 <qFIS_DeFuzzify+0x176>
                for ( i = 0; i < f->nOutputs ; ++i ) { /* initialize*/
 800332e:	2300      	movs	r3, #0
 8003330:	617b      	str	r3, [r7, #20]
 8003332:	e039      	b.n	80033a8 <qFIS_DeFuzzify+0xce>
                    f->output[ i ].y = 0.0f;
 8003334:	687b      	ldr	r3, [r7, #4]
 8003336:	685a      	ldr	r2, [r3, #4]
 8003338:	697b      	ldr	r3, [r7, #20]
 800333a:	2134      	movs	r1, #52	; 0x34
 800333c:	fb01 f303 	mul.w	r3, r1, r3
 8003340:	4413      	add	r3, r2
 8003342:	f04f 0200 	mov.w	r2, #0
 8003346:	615a      	str	r2, [r3, #20]
                    f->output[ i ].x = qFIS_GetNextX( f->output[ i ].b.min,
 8003348:	687b      	ldr	r3, [r7, #4]
 800334a:	685a      	ldr	r2, [r3, #4]
 800334c:	697b      	ldr	r3, [r7, #20]
 800334e:	2134      	movs	r1, #52	; 0x34
 8003350:	fb01 f303 	mul.w	r3, r1, r3
 8003354:	4413      	add	r3, r2
 8003356:	6818      	ldr	r0, [r3, #0]
                                                      f->output[ i ].res,
 8003358:	687b      	ldr	r3, [r7, #4]
 800335a:	685a      	ldr	r2, [r3, #4]
 800335c:	697b      	ldr	r3, [r7, #20]
 800335e:	2134      	movs	r1, #52	; 0x34
 8003360:	fb01 f303 	mul.w	r3, r1, r3
 8003364:	4413      	add	r3, r2
                    f->output[ i ].x = qFIS_GetNextX( f->output[ i ].b.min,
 8003366:	68dd      	ldr	r5, [r3, #12]
 8003368:	687b      	ldr	r3, [r7, #4]
 800336a:	685a      	ldr	r2, [r3, #4]
 800336c:	697b      	ldr	r3, [r7, #20]
 800336e:	2134      	movs	r1, #52	; 0x34
 8003370:	fb01 f303 	mul.w	r3, r1, r3
 8003374:	18d4      	adds	r4, r2, r3
 8003376:	693a      	ldr	r2, [r7, #16]
 8003378:	4629      	mov	r1, r5
 800337a:	f000 f951 	bl	8003620 <qFIS_GetNextX>
 800337e:	4603      	mov	r3, r0
 8003380:	6123      	str	r3, [r4, #16]
                                                      k );
                    f->output[ i ].b.value = f->output[ i ].x;
 8003382:	687b      	ldr	r3, [r7, #4]
 8003384:	685a      	ldr	r2, [r3, #4]
 8003386:	697b      	ldr	r3, [r7, #20]
 8003388:	2134      	movs	r1, #52	; 0x34
 800338a:	fb01 f303 	mul.w	r3, r1, r3
 800338e:	441a      	add	r2, r3
 8003390:	687b      	ldr	r3, [r7, #4]
 8003392:	6859      	ldr	r1, [r3, #4]
 8003394:	697b      	ldr	r3, [r7, #20]
 8003396:	2034      	movs	r0, #52	; 0x34
 8003398:	fb00 f303 	mul.w	r3, r0, r3
 800339c:	440b      	add	r3, r1
 800339e:	6912      	ldr	r2, [r2, #16]
 80033a0:	609a      	str	r2, [r3, #8]
                for ( i = 0; i < f->nOutputs ; ++i ) { /* initialize*/
 80033a2:	697b      	ldr	r3, [r7, #20]
 80033a4:	3301      	adds	r3, #1
 80033a6:	617b      	str	r3, [r7, #20]
 80033a8:	687b      	ldr	r3, [r7, #4]
 80033aa:	6c1b      	ldr	r3, [r3, #64]	; 0x40
 80033ac:	697a      	ldr	r2, [r7, #20]
 80033ae:	429a      	cmp	r2, r3
 80033b0:	d3c0      	bcc.n	8003334 <qFIS_DeFuzzify+0x5a>
                }
                qFIS_Aggregate( f );
 80033b2:	6878      	ldr	r0, [r7, #4]
 80033b4:	f7ff feee 	bl	8003194 <qFIS_Aggregate>
                for ( i = 0; i < f->nOutputs ; ++i ) {
 80033b8:	2300      	movs	r3, #0
 80033ba:	617b      	str	r3, [r7, #20]
 80033bc:	e040      	b.n	8003440 <qFIS_DeFuzzify+0x166>
                    f->deFuzz( &f->output[ i ] , DeFuzz_Compute );
 80033be:	687b      	ldr	r3, [r7, #4]
 80033c0:	6a9b      	ldr	r3, [r3, #40]	; 0x28
 80033c2:	687a      	ldr	r2, [r7, #4]
 80033c4:	6851      	ldr	r1, [r2, #4]
 80033c6:	697a      	ldr	r2, [r7, #20]
 80033c8:	2034      	movs	r0, #52	; 0x34
 80033ca:	fb00 f202 	mul.w	r2, r0, r2
 80033ce:	440a      	add	r2, r1
 80033d0:	2101      	movs	r1, #1
 80033d2:	4610      	mov	r0, r2
 80033d4:	4798      	blx	r3
                    if ( NULL != f->output[ i ].xag ) { /*store aggregated*/
 80033d6:	687b      	ldr	r3, [r7, #4]
 80033d8:	685a      	ldr	r2, [r3, #4]
 80033da:	697b      	ldr	r3, [r7, #20]
 80033dc:	2134      	movs	r1, #52	; 0x34
 80033de:	fb01 f303 	mul.w	r3, r1, r3
 80033e2:	4413      	add	r3, r2
 80033e4:	6adb      	ldr	r3, [r3, #44]	; 0x2c
 80033e6:	2b00      	cmp	r3, #0
 80033e8:	d027      	beq.n	800343a <qFIS_DeFuzzify+0x160>
                        f->output[ i ].xag[ k ] = f->output[ i ].x;
 80033ea:	687b      	ldr	r3, [r7, #4]
 80033ec:	685a      	ldr	r2, [r3, #4]
 80033ee:	697b      	ldr	r3, [r7, #20]
 80033f0:	2134      	movs	r1, #52	; 0x34
 80033f2:	fb01 f303 	mul.w	r3, r1, r3
 80033f6:	441a      	add	r2, r3
 80033f8:	687b      	ldr	r3, [r7, #4]
 80033fa:	6859      	ldr	r1, [r3, #4]
 80033fc:	697b      	ldr	r3, [r7, #20]
 80033fe:	2034      	movs	r0, #52	; 0x34
 8003400:	fb00 f303 	mul.w	r3, r0, r3
 8003404:	440b      	add	r3, r1
 8003406:	6ad9      	ldr	r1, [r3, #44]	; 0x2c
 8003408:	693b      	ldr	r3, [r7, #16]
 800340a:	009b      	lsls	r3, r3, #2
 800340c:	440b      	add	r3, r1
 800340e:	6912      	ldr	r2, [r2, #16]
 8003410:	601a      	str	r2, [r3, #0]
                        f->output[ i ].yag[ k ] = f->output[ i ].y;
 8003412:	687b      	ldr	r3, [r7, #4]
 8003414:	685a      	ldr	r2, [r3, #4]
 8003416:	697b      	ldr	r3, [r7, #20]
 8003418:	2134      	movs	r1, #52	; 0x34
 800341a:	fb01 f303 	mul.w	r3, r1, r3
 800341e:	441a      	add	r2, r3
 8003420:	687b      	ldr	r3, [r7, #4]
 8003422:	6859      	ldr	r1, [r3, #4]
 8003424:	697b      	ldr	r3, [r7, #20]
 8003426:	2034      	movs	r0, #52	; 0x34
 8003428:	fb00 f303 	mul.w	r3, r0, r3
 800342c:	440b      	add	r3, r1
 800342e:	6b19      	ldr	r1, [r3, #48]	; 0x30
 8003430:	693b      	ldr	r3, [r7, #16]
 8003432:	009b      	lsls	r3, r3, #2
 8003434:	440b      	add	r3, r1
 8003436:	6952      	ldr	r2, [r2, #20]
 8003438:	601a      	str	r2, [r3, #0]
                for ( i = 0; i < f->nOutputs ; ++i ) {
 800343a:	697b      	ldr	r3, [r7, #20]
 800343c:	3301      	adds	r3, #1
 800343e:	617b      	str	r3, [r7, #20]
 8003440:	687b      	ldr	r3, [r7, #4]
 8003442:	6c1b      	ldr	r3, [r3, #64]	; 0x40
 8003444:	697a      	ldr	r2, [r7, #20]
 8003446:	429a      	cmp	r2, r3
 8003448:	d3b9      	bcc.n	80033be <qFIS_DeFuzzify+0xe4>
            for ( k = 0u ; k < f->nPoints ; ++k ) {
 800344a:	693b      	ldr	r3, [r7, #16]
 800344c:	3301      	adds	r3, #1
 800344e:	613b      	str	r3, [r7, #16]
 8003450:	687b      	ldr	r3, [r7, #4]
 8003452:	6cdb      	ldr	r3, [r3, #76]	; 0x4c
 8003454:	693a      	ldr	r2, [r7, #16]
 8003456:	429a      	cmp	r2, r3
 8003458:	f4ff af69 	bcc.w	800332e <qFIS_DeFuzzify+0x54>
 800345c:	e038      	b.n	80034d0 <qFIS_DeFuzzify+0x1f6>
                    }
                }
            }
        }
        else { /*Sugeno and Tsukamoto systems*/
            for ( i = 0; i < f->nOutputs ; ++i ) { /* initialize*/
 800345e:	2300      	movs	r3, #0
 8003460:	617b      	str	r3, [r7, #20]
 8003462:	e016      	b.n	8003492 <qFIS_DeFuzzify+0x1b8>
                f->output[ i ].data[ 0 ] = 0.0f; /*store sum wi*/
 8003464:	687b      	ldr	r3, [r7, #4]
 8003466:	685a      	ldr	r2, [r3, #4]
 8003468:	697b      	ldr	r3, [r7, #20]
 800346a:	2134      	movs	r1, #52	; 0x34
 800346c:	fb01 f303 	mul.w	r3, r1, r3
 8003470:	4413      	add	r3, r2
 8003472:	f04f 0200 	mov.w	r2, #0
 8003476:	619a      	str	r2, [r3, #24]
                f->output[ i ].data[ 1 ] = 0.0f; /*store sum zi*wi*/
 8003478:	687b      	ldr	r3, [r7, #4]
 800347a:	685a      	ldr	r2, [r3, #4]
 800347c:	697b      	ldr	r3, [r7, #20]
 800347e:	2134      	movs	r1, #52	; 0x34
 8003480:	fb01 f303 	mul.w	r3, r1, r3
 8003484:	4413      	add	r3, r2
 8003486:	f04f 0200 	mov.w	r2, #0
 800348a:	61da      	str	r2, [r3, #28]
            for ( i = 0; i < f->nOutputs ; ++i ) { /* initialize*/
 800348c:	697b      	ldr	r3, [r7, #20]
 800348e:	3301      	adds	r3, #1
 8003490:	617b      	str	r3, [r7, #20]
 8003492:	687b      	ldr	r3, [r7, #4]
 8003494:	6c1b      	ldr	r3, [r3, #64]	; 0x40
 8003496:	697a      	ldr	r2, [r7, #20]
 8003498:	429a      	cmp	r2, r3
 800349a:	d3e3      	bcc.n	8003464 <qFIS_DeFuzzify+0x18a>
            }
            qFIS_Aggregate( f );
 800349c:	6878      	ldr	r0, [r7, #4]
 800349e:	f7ff fe79 	bl	8003194 <qFIS_Aggregate>
            for ( i = 0; i < f->nOutputs ; ++i ) { /* initialize*/
 80034a2:	2300      	movs	r3, #0
 80034a4:	617b      	str	r3, [r7, #20]
 80034a6:	e00e      	b.n	80034c6 <qFIS_DeFuzzify+0x1ec>
                f->deFuzz( &f->output[ i ] , DeFuzz_Compute );
 80034a8:	687b      	ldr	r3, [r7, #4]
 80034aa:	6a9b      	ldr	r3, [r3, #40]	; 0x28
 80034ac:	687a      	ldr	r2, [r7, #4]
 80034ae:	6851      	ldr	r1, [r2, #4]
 80034b0:	697a      	ldr	r2, [r7, #20]
 80034b2:	2034      	movs	r0, #52	; 0x34
 80034b4:	fb00 f202 	mul.w	r2, r0, r2
 80034b8:	440a      	add	r2, r1
 80034ba:	2101      	movs	r1, #1
 80034bc:	4610      	mov	r0, r2
 80034be:	4798      	blx	r3
            for ( i = 0; i < f->nOutputs ; ++i ) { /* initialize*/
 80034c0:	697b      	ldr	r3, [r7, #20]
 80034c2:	3301      	adds	r3, #1
 80034c4:	617b      	str	r3, [r7, #20]
 80034c6:	687b      	ldr	r3, [r7, #4]
 80034c8:	6c1b      	ldr	r3, [r3, #64]	; 0x40
 80034ca:	697a      	ldr	r2, [r7, #20]
 80034cc:	429a      	cmp	r2, r3
 80034ce:	d3eb      	bcc.n	80034a8 <qFIS_DeFuzzify+0x1ce>
            }
        }

        for ( i = 0; i < f->nOutputs ; ++i ) {
 80034d0:	2300      	movs	r3, #0
 80034d2:	617b      	str	r3, [r7, #20]
 80034d4:	e03c      	b.n	8003550 <qFIS_DeFuzzify+0x276>
            f->output[ i ].b.value = f->deFuzz( &f->output[ i ] , DeFuzz_End );
 80034d6:	687b      	ldr	r3, [r7, #4]
 80034d8:	6a9b      	ldr	r3, [r3, #40]	; 0x28
 80034da:	687a      	ldr	r2, [r7, #4]
 80034dc:	6851      	ldr	r1, [r2, #4]
 80034de:	697a      	ldr	r2, [r7, #20]
 80034e0:	2034      	movs	r0, #52	; 0x34
 80034e2:	fb00 f202 	mul.w	r2, r0, r2
 80034e6:	188d      	adds	r5, r1, r2
 80034e8:	687a      	ldr	r2, [r7, #4]
 80034ea:	6851      	ldr	r1, [r2, #4]
 80034ec:	697a      	ldr	r2, [r7, #20]
 80034ee:	2034      	movs	r0, #52	; 0x34
 80034f0:	fb00 f202 	mul.w	r2, r0, r2
 80034f4:	188c      	adds	r4, r1, r2
 80034f6:	2102      	movs	r1, #2
 80034f8:	4628      	mov	r0, r5
 80034fa:	4798      	blx	r3
 80034fc:	4603      	mov	r3, r0
 80034fe:	60a3      	str	r3, [r4, #8]
            f->output[ i ].b.value = qFIS_Bound( f->output[ i ].b.value,
 8003500:	687b      	ldr	r3, [r7, #4]
 8003502:	685a      	ldr	r2, [r3, #4]
 8003504:	697b      	ldr	r3, [r7, #20]
 8003506:	2134      	movs	r1, #52	; 0x34
 8003508:	fb01 f303 	mul.w	r3, r1, r3
 800350c:	4413      	add	r3, r2
 800350e:	6898      	ldr	r0, [r3, #8]
                                                 f->output[ i ].b.min,
 8003510:	687b      	ldr	r3, [r7, #4]
 8003512:	685a      	ldr	r2, [r3, #4]
 8003514:	697b      	ldr	r3, [r7, #20]
 8003516:	2134      	movs	r1, #52	; 0x34
 8003518:	fb01 f303 	mul.w	r3, r1, r3
 800351c:	4413      	add	r3, r2
            f->output[ i ].b.value = qFIS_Bound( f->output[ i ].b.value,
 800351e:	681d      	ldr	r5, [r3, #0]
                                                 f->output[ i ].b.max );
 8003520:	687b      	ldr	r3, [r7, #4]
 8003522:	685a      	ldr	r2, [r3, #4]
 8003524:	697b      	ldr	r3, [r7, #20]
 8003526:	2134      	movs	r1, #52	; 0x34
 8003528:	fb01 f303 	mul.w	r3, r1, r3
 800352c:	4413      	add	r3, r2
            f->output[ i ].b.value = qFIS_Bound( f->output[ i ].b.value,
 800352e:	685e      	ldr	r6, [r3, #4]
 8003530:	687b      	ldr	r3, [r7, #4]
 8003532:	685a      	ldr	r2, [r3, #4]
 8003534:	697b      	ldr	r3, [r7, #20]
 8003536:	2134      	movs	r1, #52	; 0x34
 8003538:	fb01 f303 	mul.w	r3, r1, r3
 800353c:	18d4      	adds	r4, r2, r3
 800353e:	4632      	mov	r2, r6
 8003540:	4629      	mov	r1, r5
 8003542:	f001 f834 	bl	80045ae <qFIS_Bound>
 8003546:	4603      	mov	r3, r0
 8003548:	60a3      	str	r3, [r4, #8]
        for ( i = 0; i < f->nOutputs ; ++i ) {
 800354a:	697b      	ldr	r3, [r7, #20]
 800354c:	3301      	adds	r3, #1
 800354e:	617b      	str	r3, [r7, #20]
 8003550:	687b      	ldr	r3, [r7, #4]
 8003552:	6c1b      	ldr	r3, [r3, #64]	; 0x40
 8003554:	697a      	ldr	r2, [r7, #20]
 8003556:	429a      	cmp	r2, r3
 8003558:	d3bd      	bcc.n	80034d6 <qFIS_DeFuzzify+0x1fc>
        }
    }

    return retVal;
 800355a:	68fb      	ldr	r3, [r7, #12]
}
 800355c:	4618      	mov	r0, r3
 800355e:	371c      	adds	r7, #28
 8003560:	46bd      	mov	sp, r7
 8003562:	bdf0      	pop	{r4, r5, r6, r7, pc}

08003564 <qFIS_Inference>:

    return retVal;
}
/*============================================================================*/
int qFIS_Inference( qFIS_t * const f )
{
 8003564:	b580      	push	{r7, lr}
 8003566:	b084      	sub	sp, #16
 8003568:	af00      	add	r7, sp, #0
 800356a:	6078      	str	r0, [r7, #4]
    int retVal = 0;
 800356c:	2300      	movs	r3, #0
 800356e:	60fb      	str	r3, [r7, #12]

    if ( NULL != f  ) {
 8003570:	687b      	ldr	r3, [r7, #4]
 8003572:	2b00      	cmp	r3, #0
 8003574:	d04a      	beq.n	800360c <qFIS_Inference+0xa8>
        size_t i = 0u;
 8003576:	2300      	movs	r3, #0
 8003578:	60bb      	str	r3, [r7, #8]

        if ( QFIS_RULES_BEGIN == f->rules[ 0 ] ) {
 800357a:	687b      	ldr	r3, [r7, #4]
 800357c:	6b5b      	ldr	r3, [r3, #52]	; 0x34
 800357e:	f9b3 3000 	ldrsh.w	r3, [r3]
 8003582:	f513 4f00 	cmn.w	r3, #32768	; 0x8000
 8003586:	d12f      	bne.n	80035e8 <qFIS_Inference+0x84>
            f->inferenceState = &qFIS_InferenceAntecedent;
 8003588:	687b      	ldr	r3, [r7, #4]
 800358a:	4a23      	ldr	r2, [pc, #140]	; (8003618 <qFIS_Inference+0xb4>)
 800358c:	621a      	str	r2, [r3, #32]
            f->rStrength = 0.0f;
 800358e:	687b      	ldr	r3, [r7, #4]
 8003590:	f04f 0200 	mov.w	r2, #0
 8003594:	659a      	str	r2, [r3, #88]	; 0x58
            f->lastConnector = -1;
 8003596:	687b      	ldr	r3, [r7, #4]
 8003598:	f64f 72ff 	movw	r2, #65535	; 0xffff
 800359c:	f8a3 205c 	strh.w	r2, [r3, #92]	; 0x5c
            f->ruleCount = 0u;
 80035a0:	687b      	ldr	r3, [r7, #4]
 80035a2:	2200      	movs	r2, #0
 80035a4:	655a      	str	r2, [r3, #84]	; 0x54
            i = 1u;
 80035a6:	2301      	movs	r3, #1
 80035a8:	60bb      	str	r3, [r7, #8]
            while ( ( _QFIS_RULES_END != f->rules[ i ] ) && ( f->ruleCount < f->nRules ) ) {
 80035aa:	e00b      	b.n	80035c4 <qFIS_Inference+0x60>
                i = f->inferenceState( f, i );
 80035ac:	687b      	ldr	r3, [r7, #4]
 80035ae:	6a1b      	ldr	r3, [r3, #32]
 80035b0:	68b9      	ldr	r1, [r7, #8]
 80035b2:	6878      	ldr	r0, [r7, #4]
 80035b4:	4798      	blx	r3
 80035b6:	60b8      	str	r0, [r7, #8]
                if ( QFIS_INFERENCE_ERROR == i ) {
 80035b8:	68bb      	ldr	r3, [r7, #8]
 80035ba:	2b00      	cmp	r3, #0
 80035bc:	d013      	beq.n	80035e6 <qFIS_Inference+0x82>
                    break;
                }
                ++i;
 80035be:	68bb      	ldr	r3, [r7, #8]
 80035c0:	3301      	adds	r3, #1
 80035c2:	60bb      	str	r3, [r7, #8]
            while ( ( _QFIS_RULES_END != f->rules[ i ] ) && ( f->ruleCount < f->nRules ) ) {
 80035c4:	687b      	ldr	r3, [r7, #4]
 80035c6:	6b5a      	ldr	r2, [r3, #52]	; 0x34
 80035c8:	68bb      	ldr	r3, [r7, #8]
 80035ca:	005b      	lsls	r3, r3, #1
 80035cc:	4413      	add	r3, r2
 80035ce:	f9b3 3000 	ldrsh.w	r3, [r3]
 80035d2:	4a12      	ldr	r2, [pc, #72]	; (800361c <qFIS_Inference+0xb8>)
 80035d4:	4293      	cmp	r3, r2
 80035d6:	d007      	beq.n	80035e8 <qFIS_Inference+0x84>
 80035d8:	687b      	ldr	r3, [r7, #4]
 80035da:	6d5a      	ldr	r2, [r3, #84]	; 0x54
 80035dc:	687b      	ldr	r3, [r7, #4]
 80035de:	6d1b      	ldr	r3, [r3, #80]	; 0x50
 80035e0:	429a      	cmp	r2, r3
 80035e2:	d3e3      	bcc.n	80035ac <qFIS_Inference+0x48>
 80035e4:	e000      	b.n	80035e8 <qFIS_Inference+0x84>
                    break;
 80035e6:	bf00      	nop
            }
        }
        if ( ( _QFIS_RULES_END == f->rules[ i ] ) && ( f->ruleCount == f->nRules) ) {
 80035e8:	687b      	ldr	r3, [r7, #4]
 80035ea:	6b5a      	ldr	r2, [r3, #52]	; 0x34
 80035ec:	68bb      	ldr	r3, [r7, #8]
 80035ee:	005b      	lsls	r3, r3, #1
 80035f0:	4413      	add	r3, r2
 80035f2:	f9b3 3000 	ldrsh.w	r3, [r3]
 80035f6:	4a09      	ldr	r2, [pc, #36]	; (800361c <qFIS_Inference+0xb8>)
 80035f8:	4293      	cmp	r3, r2
 80035fa:	d107      	bne.n	800360c <qFIS_Inference+0xa8>
 80035fc:	687b      	ldr	r3, [r7, #4]
 80035fe:	6d5a      	ldr	r2, [r3, #84]	; 0x54
 8003600:	687b      	ldr	r3, [r7, #4]
 8003602:	6d1b      	ldr	r3, [r3, #80]	; 0x50
 8003604:	429a      	cmp	r2, r3
 8003606:	d101      	bne.n	800360c <qFIS_Inference+0xa8>
            retVal = 1;
 8003608:	2301      	movs	r3, #1
 800360a:	60fb      	str	r3, [r7, #12]
        }
    }

    return retVal;
 800360c:	68fb      	ldr	r3, [r7, #12]
}
 800360e:	4618      	mov	r0, r3
 8003610:	3710      	adds	r7, #16
 8003612:	46bd      	mov	sp, r7
 8003614:	bd80      	pop	{r7, pc}
 8003616:	bf00      	nop
 8003618:	08002de9 	.word	0x08002de9
 800361c:	ffff8001 	.word	0xffff8001

08003620 <qFIS_GetNextX>:
/*============================================================================*/
static float qFIS_GetNextX( const float init,
                            const float res,
                            const size_t i )
{
 8003620:	b580      	push	{r7, lr}
 8003622:	b084      	sub	sp, #16
 8003624:	af00      	add	r7, sp, #0
 8003626:	60f8      	str	r0, [r7, #12]
 8003628:	60b9      	str	r1, [r7, #8]
 800362a:	607a      	str	r2, [r7, #4]
    /*cstat -CERT-FLP36-C*/
    return init + ( ( (float)i + 0.5f )*res );
 800362c:	6878      	ldr	r0, [r7, #4]
 800362e:	f7fd fb01 	bl	8000c34 <__aeabi_ui2f>
 8003632:	4603      	mov	r3, r0
 8003634:	f04f 517c 	mov.w	r1, #1056964608	; 0x3f000000
 8003638:	4618      	mov	r0, r3
 800363a:	f7fd fa4b 	bl	8000ad4 <__addsf3>
 800363e:	4603      	mov	r3, r0
 8003640:	68b9      	ldr	r1, [r7, #8]
 8003642:	4618      	mov	r0, r3
 8003644:	f7fd fb4e 	bl	8000ce4 <__aeabi_fmul>
 8003648:	4603      	mov	r3, r0
 800364a:	68f9      	ldr	r1, [r7, #12]
 800364c:	4618      	mov	r0, r3
 800364e:	f7fd fa41 	bl	8000ad4 <__addsf3>
 8003652:	4603      	mov	r3, r0
    /*cstat +CERT-FLP36-C*/
}
 8003654:	4618      	mov	r0, r3
 8003656:	3710      	adds	r7, #16
 8003658:	46bd      	mov	sp, r7
 800365a:	bd80      	pop	{r7, pc}

0800365c <qFIS_TriMF>:
/*============================================================================*/
static float qFIS_TriMF( const qFIS_IO_Base_t * const in,
                         const float *p,
                         const size_t n )
{
 800365c:	b5b0      	push	{r4, r5, r7, lr}
 800365e:	b08a      	sub	sp, #40	; 0x28
 8003660:	af00      	add	r7, sp, #0
 8003662:	60f8      	str	r0, [r7, #12]
 8003664:	60b9      	str	r1, [r7, #8]
 8003666:	607a      	str	r2, [r7, #4]
    float a, b, c, tmp;
    float x = in[ 0 ].value;
 8003668:	68fb      	ldr	r3, [r7, #12]
 800366a:	689b      	ldr	r3, [r3, #8]
 800366c:	627b      	str	r3, [r7, #36]	; 0x24
    (void)n;

    a = p[ 0 ];
 800366e:	68bb      	ldr	r3, [r7, #8]
 8003670:	681b      	ldr	r3, [r3, #0]
 8003672:	623b      	str	r3, [r7, #32]
    b = p[ 1 ];
 8003674:	68bb      	ldr	r3, [r7, #8]
 8003676:	685b      	ldr	r3, [r3, #4]
 8003678:	61fb      	str	r3, [r7, #28]
    c = p[ 2 ];
 800367a:	68bb      	ldr	r3, [r7, #8]
 800367c:	689b      	ldr	r3, [r3, #8]
 800367e:	61bb      	str	r3, [r7, #24]
    tmp = qFIS_Min( ( x - a )/( b - a ) , ( c - x )/( c - b ) );
 8003680:	6a39      	ldr	r1, [r7, #32]
 8003682:	6a78      	ldr	r0, [r7, #36]	; 0x24
 8003684:	f7fd fa24 	bl	8000ad0 <__aeabi_fsub>
 8003688:	4603      	mov	r3, r0
 800368a:	461c      	mov	r4, r3
 800368c:	6a39      	ldr	r1, [r7, #32]
 800368e:	69f8      	ldr	r0, [r7, #28]
 8003690:	f7fd fa1e 	bl	8000ad0 <__aeabi_fsub>
 8003694:	4603      	mov	r3, r0
 8003696:	4619      	mov	r1, r3
 8003698:	4620      	mov	r0, r4
 800369a:	f7fd fbd7 	bl	8000e4c <__aeabi_fdiv>
 800369e:	4603      	mov	r3, r0
 80036a0:	461c      	mov	r4, r3
 80036a2:	6a79      	ldr	r1, [r7, #36]	; 0x24
 80036a4:	69b8      	ldr	r0, [r7, #24]
 80036a6:	f7fd fa13 	bl	8000ad0 <__aeabi_fsub>
 80036aa:	4603      	mov	r3, r0
 80036ac:	461d      	mov	r5, r3
 80036ae:	69f9      	ldr	r1, [r7, #28]
 80036b0:	69b8      	ldr	r0, [r7, #24]
 80036b2:	f7fd fa0d 	bl	8000ad0 <__aeabi_fsub>
 80036b6:	4603      	mov	r3, r0
 80036b8:	4619      	mov	r1, r3
 80036ba:	4628      	mov	r0, r5
 80036bc:	f7fd fbc6 	bl	8000e4c <__aeabi_fdiv>
 80036c0:	4603      	mov	r3, r0
 80036c2:	4619      	mov	r1, r3
 80036c4:	4620      	mov	r0, r4
 80036c6:	f000 feef 	bl	80044a8 <qFIS_Min>
 80036ca:	6178      	str	r0, [r7, #20]

    return qFIS_Max( tmp , 0.0f );
 80036cc:	f04f 0100 	mov.w	r1, #0
 80036d0:	6978      	ldr	r0, [r7, #20]
 80036d2:	f000 ff04 	bl	80044de <qFIS_Max>
 80036d6:	4603      	mov	r3, r0
}
 80036d8:	4618      	mov	r0, r3
 80036da:	3728      	adds	r7, #40	; 0x28
 80036dc:	46bd      	mov	sp, r7
 80036de:	bdb0      	pop	{r4, r5, r7, pc}

080036e0 <qFIS_TrapMF>:
/*============================================================================*/
static float qFIS_TrapMF( const qFIS_IO_Base_t * const in,
                          const float *p,
                          const size_t n )
{
 80036e0:	b590      	push	{r4, r7, lr}
 80036e2:	b08b      	sub	sp, #44	; 0x2c
 80036e4:	af00      	add	r7, sp, #0
 80036e6:	60f8      	str	r0, [r7, #12]
 80036e8:	60b9      	str	r1, [r7, #8]
 80036ea:	607a      	str	r2, [r7, #4]
    float a, b, c, d, tmp;
    float x = in[ 0 ].value;
 80036ec:	68fb      	ldr	r3, [r7, #12]
 80036ee:	689b      	ldr	r3, [r3, #8]
 80036f0:	627b      	str	r3, [r7, #36]	; 0x24
    (void)n;

    a = p[ 0 ];
 80036f2:	68bb      	ldr	r3, [r7, #8]
 80036f4:	681b      	ldr	r3, [r3, #0]
 80036f6:	623b      	str	r3, [r7, #32]
    b = p[ 1 ];
 80036f8:	68bb      	ldr	r3, [r7, #8]
 80036fa:	685b      	ldr	r3, [r3, #4]
 80036fc:	61fb      	str	r3, [r7, #28]
    c = p[ 2 ];
 80036fe:	68bb      	ldr	r3, [r7, #8]
 8003700:	689b      	ldr	r3, [r3, #8]
 8003702:	61bb      	str	r3, [r7, #24]
    d = p[ 3 ];
 8003704:	68bb      	ldr	r3, [r7, #8]
 8003706:	68db      	ldr	r3, [r3, #12]
 8003708:	617b      	str	r3, [r7, #20]
    tmp = qFIS_Min( ( x - a )/( b - a ) , 1.0f );
 800370a:	6a39      	ldr	r1, [r7, #32]
 800370c:	6a78      	ldr	r0, [r7, #36]	; 0x24
 800370e:	f7fd f9df 	bl	8000ad0 <__aeabi_fsub>
 8003712:	4603      	mov	r3, r0
 8003714:	461c      	mov	r4, r3
 8003716:	6a39      	ldr	r1, [r7, #32]
 8003718:	69f8      	ldr	r0, [r7, #28]
 800371a:	f7fd f9d9 	bl	8000ad0 <__aeabi_fsub>
 800371e:	4603      	mov	r3, r0
 8003720:	4619      	mov	r1, r3
 8003722:	4620      	mov	r0, r4
 8003724:	f7fd fb92 	bl	8000e4c <__aeabi_fdiv>
 8003728:	4603      	mov	r3, r0
 800372a:	f04f 517e 	mov.w	r1, #1065353216	; 0x3f800000
 800372e:	4618      	mov	r0, r3
 8003730:	f000 feba 	bl	80044a8 <qFIS_Min>
 8003734:	6138      	str	r0, [r7, #16]
    tmp = qFIS_Min( tmp, ( d - x )/( d - c ) ) ;
 8003736:	6a79      	ldr	r1, [r7, #36]	; 0x24
 8003738:	6978      	ldr	r0, [r7, #20]
 800373a:	f7fd f9c9 	bl	8000ad0 <__aeabi_fsub>
 800373e:	4603      	mov	r3, r0
 8003740:	461c      	mov	r4, r3
 8003742:	69b9      	ldr	r1, [r7, #24]
 8003744:	6978      	ldr	r0, [r7, #20]
 8003746:	f7fd f9c3 	bl	8000ad0 <__aeabi_fsub>
 800374a:	4603      	mov	r3, r0
 800374c:	4619      	mov	r1, r3
 800374e:	4620      	mov	r0, r4
 8003750:	f7fd fb7c 	bl	8000e4c <__aeabi_fdiv>
 8003754:	4603      	mov	r3, r0
 8003756:	4619      	mov	r1, r3
 8003758:	6938      	ldr	r0, [r7, #16]
 800375a:	f000 fea5 	bl	80044a8 <qFIS_Min>
 800375e:	6138      	str	r0, [r7, #16]

    return qFIS_Max( tmp , 0.0f );
 8003760:	f04f 0100 	mov.w	r1, #0
 8003764:	6938      	ldr	r0, [r7, #16]
 8003766:	f000 feba 	bl	80044de <qFIS_Max>
 800376a:	4603      	mov	r3, r0
}
 800376c:	4618      	mov	r0, r3
 800376e:	372c      	adds	r7, #44	; 0x2c
 8003770:	46bd      	mov	sp, r7
 8003772:	bd90      	pop	{r4, r7, pc}

08003774 <qFIS_GBellMF>:
/*============================================================================*/
static float qFIS_GBellMF( const qFIS_IO_Base_t * const in,
                           const float *p,
                           const size_t n )
{
 8003774:	b590      	push	{r4, r7, lr}
 8003776:	b089      	sub	sp, #36	; 0x24
 8003778:	af00      	add	r7, sp, #0
 800377a:	60f8      	str	r0, [r7, #12]
 800377c:	60b9      	str	r1, [r7, #8]
 800377e:	607a      	str	r2, [r7, #4]
    float a, b, c;
    float x = in[ 0 ].value;
 8003780:	68fb      	ldr	r3, [r7, #12]
 8003782:	689b      	ldr	r3, [r3, #8]
 8003784:	61fb      	str	r3, [r7, #28]
    (void)n;

    a = p[ 0 ];
 8003786:	68bb      	ldr	r3, [r7, #8]
 8003788:	681b      	ldr	r3, [r3, #0]
 800378a:	61bb      	str	r3, [r7, #24]
    b = p[ 1 ];
 800378c:	68bb      	ldr	r3, [r7, #8]
 800378e:	685b      	ldr	r3, [r3, #4]
 8003790:	617b      	str	r3, [r7, #20]
    c = p[ 2 ];
 8003792:	68bb      	ldr	r3, [r7, #8]
 8003794:	689b      	ldr	r3, [r3, #8]
 8003796:	613b      	str	r3, [r7, #16]
    
    return ( 1.0f/( 1.0f + QLIB_POW( QLIB_ABS( ( x - c )/a ) , 2.0f*b ) ) );
 8003798:	6939      	ldr	r1, [r7, #16]
 800379a:	69f8      	ldr	r0, [r7, #28]
 800379c:	f7fd f998 	bl	8000ad0 <__aeabi_fsub>
 80037a0:	4603      	mov	r3, r0
 80037a2:	69b9      	ldr	r1, [r7, #24]
 80037a4:	4618      	mov	r0, r3
 80037a6:	f7fd fb51 	bl	8000e4c <__aeabi_fdiv>
 80037aa:	4603      	mov	r3, r0
 80037ac:	4618      	mov	r0, r3
 80037ae:	f7fe fde7 	bl	8002380 <qFFMath_Abs>
 80037b2:	4604      	mov	r4, r0
 80037b4:	697b      	ldr	r3, [r7, #20]
 80037b6:	4619      	mov	r1, r3
 80037b8:	4618      	mov	r0, r3
 80037ba:	f7fd f98b 	bl	8000ad4 <__addsf3>
 80037be:	4603      	mov	r3, r0
 80037c0:	4619      	mov	r1, r3
 80037c2:	4620      	mov	r0, r4
 80037c4:	f7fe ff8e 	bl	80026e4 <qFFMath_Pow>
 80037c8:	4603      	mov	r3, r0
 80037ca:	f04f 517e 	mov.w	r1, #1065353216	; 0x3f800000
 80037ce:	4618      	mov	r0, r3
 80037d0:	f7fd f980 	bl	8000ad4 <__addsf3>
 80037d4:	4603      	mov	r3, r0
 80037d6:	4619      	mov	r1, r3
 80037d8:	f04f 507e 	mov.w	r0, #1065353216	; 0x3f800000
 80037dc:	f7fd fb36 	bl	8000e4c <__aeabi_fdiv>
 80037e0:	4603      	mov	r3, r0
}
 80037e2:	4618      	mov	r0, r3
 80037e4:	3724      	adds	r7, #36	; 0x24
 80037e6:	46bd      	mov	sp, r7
 80037e8:	bd90      	pop	{r4, r7, pc}

080037ea <qFIS_GaussMF>:
/*============================================================================*/
static float qFIS_GaussMF( const qFIS_IO_Base_t * const in,
                           const float *p,
                           const size_t n )
{
 80037ea:	b580      	push	{r7, lr}
 80037ec:	b088      	sub	sp, #32
 80037ee:	af00      	add	r7, sp, #0
 80037f0:	60f8      	str	r0, [r7, #12]
 80037f2:	60b9      	str	r1, [r7, #8]
 80037f4:	607a      	str	r2, [r7, #4]
    float a, c, tmp;
    float x = in[ 0 ].value;
 80037f6:	68fb      	ldr	r3, [r7, #12]
 80037f8:	689b      	ldr	r3, [r3, #8]
 80037fa:	61fb      	str	r3, [r7, #28]
    (void)n;

    a = p[ 0 ];
 80037fc:	68bb      	ldr	r3, [r7, #8]
 80037fe:	681b      	ldr	r3, [r3, #0]
 8003800:	61bb      	str	r3, [r7, #24]
    c = p[ 1 ];
 8003802:	68bb      	ldr	r3, [r7, #8]
 8003804:	685b      	ldr	r3, [r3, #4]
 8003806:	617b      	str	r3, [r7, #20]
    tmp = ( x - c )/a;
 8003808:	6979      	ldr	r1, [r7, #20]
 800380a:	69f8      	ldr	r0, [r7, #28]
 800380c:	f7fd f960 	bl	8000ad0 <__aeabi_fsub>
 8003810:	4603      	mov	r3, r0
 8003812:	69b9      	ldr	r1, [r7, #24]
 8003814:	4618      	mov	r0, r3
 8003816:	f7fd fb19 	bl	8000e4c <__aeabi_fdiv>
 800381a:	4603      	mov	r3, r0
 800381c:	613b      	str	r3, [r7, #16]

    return QLIB_EXP( -0.5f*tmp*tmp );
 800381e:	f04f 413f 	mov.w	r1, #3204448256	; 0xbf000000
 8003822:	6938      	ldr	r0, [r7, #16]
 8003824:	f7fd fa5e 	bl	8000ce4 <__aeabi_fmul>
 8003828:	4603      	mov	r3, r0
 800382a:	6939      	ldr	r1, [r7, #16]
 800382c:	4618      	mov	r0, r3
 800382e:	f7fd fa59 	bl	8000ce4 <__aeabi_fmul>
 8003832:	4603      	mov	r3, r0
 8003834:	4618      	mov	r0, r3
 8003836:	f7fe ff2d 	bl	8002694 <qFFMath_Exp>
 800383a:	4603      	mov	r3, r0
}
 800383c:	4618      	mov	r0, r3
 800383e:	3720      	adds	r7, #32
 8003840:	46bd      	mov	sp, r7
 8003842:	bd80      	pop	{r7, pc}

08003844 <qFIS_Gauss2MF>:
/*============================================================================*/
static float qFIS_Gauss2MF( const qFIS_IO_Base_t * const in,
                            const float *p,
                            const size_t n )
{
 8003844:	b580      	push	{r7, lr}
 8003846:	b08a      	sub	sp, #40	; 0x28
 8003848:	af00      	add	r7, sp, #0
 800384a:	60f8      	str	r0, [r7, #12]
 800384c:	60b9      	str	r1, [r7, #8]
 800384e:	607a      	str	r2, [r7, #4]
    float c1, c2, f1, f2;
    float x = in[ 0 ].value;
 8003850:	68fb      	ldr	r3, [r7, #12]
 8003852:	689b      	ldr	r3, [r3, #8]
 8003854:	627b      	str	r3, [r7, #36]	; 0x24

    c1 = p[ 1 ];
 8003856:	68bb      	ldr	r3, [r7, #8]
 8003858:	685b      	ldr	r3, [r3, #4]
 800385a:	623b      	str	r3, [r7, #32]
    c2 = p[ 3 ];
 800385c:	68bb      	ldr	r3, [r7, #8]
 800385e:	68db      	ldr	r3, [r3, #12]
 8003860:	61fb      	str	r3, [r7, #28]
    f1 = ( x <= c1 ) ? qFIS_GaussMF( in , p, n ) : 1.0f;
 8003862:	6a39      	ldr	r1, [r7, #32]
 8003864:	6a78      	ldr	r0, [r7, #36]	; 0x24
 8003866:	f7fd fbe5 	bl	8001034 <__aeabi_fcmple>
 800386a:	4603      	mov	r3, r0
 800386c:	2b00      	cmp	r3, #0
 800386e:	d006      	beq.n	800387e <qFIS_Gauss2MF+0x3a>
 8003870:	687a      	ldr	r2, [r7, #4]
 8003872:	68b9      	ldr	r1, [r7, #8]
 8003874:	68f8      	ldr	r0, [r7, #12]
 8003876:	f7ff ffb8 	bl	80037ea <qFIS_GaussMF>
 800387a:	4603      	mov	r3, r0
 800387c:	e001      	b.n	8003882 <qFIS_Gauss2MF+0x3e>
 800387e:	f04f 537e 	mov.w	r3, #1065353216	; 0x3f800000
 8003882:	61bb      	str	r3, [r7, #24]
    f2 = ( x <= c2 ) ? qFIS_GaussMF( in , &p[ 2 ], n ) : 1.0f;
 8003884:	69f9      	ldr	r1, [r7, #28]
 8003886:	6a78      	ldr	r0, [r7, #36]	; 0x24
 8003888:	f7fd fbd4 	bl	8001034 <__aeabi_fcmple>
 800388c:	4603      	mov	r3, r0
 800388e:	2b00      	cmp	r3, #0
 8003890:	d008      	beq.n	80038a4 <qFIS_Gauss2MF+0x60>
 8003892:	68bb      	ldr	r3, [r7, #8]
 8003894:	3308      	adds	r3, #8
 8003896:	687a      	ldr	r2, [r7, #4]
 8003898:	4619      	mov	r1, r3
 800389a:	68f8      	ldr	r0, [r7, #12]
 800389c:	f7ff ffa5 	bl	80037ea <qFIS_GaussMF>
 80038a0:	4603      	mov	r3, r0
 80038a2:	e001      	b.n	80038a8 <qFIS_Gauss2MF+0x64>
 80038a4:	f04f 537e 	mov.w	r3, #1065353216	; 0x3f800000
 80038a8:	617b      	str	r3, [r7, #20]

    return f1*f2;
 80038aa:	6979      	ldr	r1, [r7, #20]
 80038ac:	69b8      	ldr	r0, [r7, #24]
 80038ae:	f7fd fa19 	bl	8000ce4 <__aeabi_fmul>
 80038b2:	4603      	mov	r3, r0
}
 80038b4:	4618      	mov	r0, r3
 80038b6:	3728      	adds	r7, #40	; 0x28
 80038b8:	46bd      	mov	sp, r7
 80038ba:	bd80      	pop	{r7, pc}

080038bc <qFIS_SigMF>:
/*============================================================================*/
static float qFIS_SigMF( const qFIS_IO_Base_t * const in,
                         const float *p,
                         const size_t n )
{
 80038bc:	b590      	push	{r4, r7, lr}
 80038be:	b089      	sub	sp, #36	; 0x24
 80038c0:	af00      	add	r7, sp, #0
 80038c2:	60f8      	str	r0, [r7, #12]
 80038c4:	60b9      	str	r1, [r7, #8]
 80038c6:	607a      	str	r2, [r7, #4]
    float a, b;
    float x = in[ 0 ].value;
 80038c8:	68fb      	ldr	r3, [r7, #12]
 80038ca:	689b      	ldr	r3, [r3, #8]
 80038cc:	61fb      	str	r3, [r7, #28]
    (void)n;

    a = p[ 0 ];
 80038ce:	68bb      	ldr	r3, [r7, #8]
 80038d0:	681b      	ldr	r3, [r3, #0]
 80038d2:	61bb      	str	r3, [r7, #24]
    b = p[ 1 ];
 80038d4:	68bb      	ldr	r3, [r7, #8]
 80038d6:	685b      	ldr	r3, [r3, #4]
 80038d8:	617b      	str	r3, [r7, #20]

    return 1.0f/( 1.0f + QLIB_EXP( -a*( x - b ) ) );
 80038da:	69bb      	ldr	r3, [r7, #24]
 80038dc:	f083 4400 	eor.w	r4, r3, #2147483648	; 0x80000000
 80038e0:	6979      	ldr	r1, [r7, #20]
 80038e2:	69f8      	ldr	r0, [r7, #28]
 80038e4:	f7fd f8f4 	bl	8000ad0 <__aeabi_fsub>
 80038e8:	4603      	mov	r3, r0
 80038ea:	4619      	mov	r1, r3
 80038ec:	4620      	mov	r0, r4
 80038ee:	f7fd f9f9 	bl	8000ce4 <__aeabi_fmul>
 80038f2:	4603      	mov	r3, r0
 80038f4:	4618      	mov	r0, r3
 80038f6:	f7fe fecd 	bl	8002694 <qFFMath_Exp>
 80038fa:	4603      	mov	r3, r0
 80038fc:	f04f 517e 	mov.w	r1, #1065353216	; 0x3f800000
 8003900:	4618      	mov	r0, r3
 8003902:	f7fd f8e7 	bl	8000ad4 <__addsf3>
 8003906:	4603      	mov	r3, r0
 8003908:	4619      	mov	r1, r3
 800390a:	f04f 507e 	mov.w	r0, #1065353216	; 0x3f800000
 800390e:	f7fd fa9d 	bl	8000e4c <__aeabi_fdiv>
 8003912:	4603      	mov	r3, r0
}
 8003914:	4618      	mov	r0, r3
 8003916:	3724      	adds	r7, #36	; 0x24
 8003918:	46bd      	mov	sp, r7
 800391a:	bd90      	pop	{r4, r7, pc}

0800391c <qFIS_TSigMF>:
/*============================================================================*/
static float qFIS_TSigMF( const qFIS_IO_Base_t * const in,
                          const float *p,
                          const size_t n )
{
 800391c:	b580      	push	{r7, lr}
 800391e:	b08a      	sub	sp, #40	; 0x28
 8003920:	af00      	add	r7, sp, #0
 8003922:	60f8      	str	r0, [r7, #12]
 8003924:	60b9      	str	r1, [r7, #8]
 8003926:	607a      	str	r2, [r7, #4]
    float a, b, y;
    float x = in[ 0 ].value;
 8003928:	68fb      	ldr	r3, [r7, #12]
 800392a:	689b      	ldr	r3, [r3, #8]
 800392c:	623b      	str	r3, [r7, #32]
    float min = in[ 0 ].min;
 800392e:	68fb      	ldr	r3, [r7, #12]
 8003930:	681b      	ldr	r3, [r3, #0]
 8003932:	61fb      	str	r3, [r7, #28]
    float max = in[ 0 ].max;
 8003934:	68fb      	ldr	r3, [r7, #12]
 8003936:	685b      	ldr	r3, [r3, #4]
 8003938:	61bb      	str	r3, [r7, #24]
    (void)n;

    a = p[ 0 ]; /*slope*/
 800393a:	68bb      	ldr	r3, [r7, #8]
 800393c:	681b      	ldr	r3, [r3, #0]
 800393e:	617b      	str	r3, [r7, #20]
    b = p[ 1 ]; /*inflection*/
 8003940:	68bb      	ldr	r3, [r7, #8]
 8003942:	685b      	ldr	r3, [r3, #4]
 8003944:	613b      	str	r3, [r7, #16]
    if ( qFMathEx_Equal( x, 1.0f ) ) {
 8003946:	f04f 517e 	mov.w	r1, #1065353216	; 0x3f800000
 800394a:	6a38      	ldr	r0, [r7, #32]
 800394c:	f000 fe99 	bl	8004682 <qFMathEx_Equal>
 8003950:	4603      	mov	r3, r0
 8003952:	2b00      	cmp	r3, #0
 8003954:	d00d      	beq.n	8003972 <qFIS_TSigMF+0x56>
        if ( a >= 0.0f ) {
 8003956:	f04f 0100 	mov.w	r1, #0
 800395a:	6978      	ldr	r0, [r7, #20]
 800395c:	f7fd fb74 	bl	8001048 <__aeabi_fcmpge>
 8003960:	4603      	mov	r3, r0
 8003962:	2b00      	cmp	r3, #0
 8003964:	d002      	beq.n	800396c <qFIS_TSigMF+0x50>
            y = max;
 8003966:	69bb      	ldr	r3, [r7, #24]
 8003968:	627b      	str	r3, [r7, #36]	; 0x24
 800396a:	e033      	b.n	80039d4 <qFIS_TSigMF+0xb8>
        }
        else {
            y = min;
 800396c:	69fb      	ldr	r3, [r7, #28]
 800396e:	627b      	str	r3, [r7, #36]	; 0x24
 8003970:	e030      	b.n	80039d4 <qFIS_TSigMF+0xb8>
        }
    }
    else if ( qFMathEx_Equal( x, 0.0f ) ) {
 8003972:	f04f 0100 	mov.w	r1, #0
 8003976:	6a38      	ldr	r0, [r7, #32]
 8003978:	f000 fe83 	bl	8004682 <qFMathEx_Equal>
 800397c:	4603      	mov	r3, r0
 800397e:	2b00      	cmp	r3, #0
 8003980:	d00d      	beq.n	800399e <qFIS_TSigMF+0x82>
        if ( a >= 0.0f ) {
 8003982:	f04f 0100 	mov.w	r1, #0
 8003986:	6978      	ldr	r0, [r7, #20]
 8003988:	f7fd fb5e 	bl	8001048 <__aeabi_fcmpge>
 800398c:	4603      	mov	r3, r0
 800398e:	2b00      	cmp	r3, #0
 8003990:	d002      	beq.n	8003998 <qFIS_TSigMF+0x7c>
            y = min;
 8003992:	69fb      	ldr	r3, [r7, #28]
 8003994:	627b      	str	r3, [r7, #36]	; 0x24
 8003996:	e01d      	b.n	80039d4 <qFIS_TSigMF+0xb8>
        }
        else {
            y = max;
 8003998:	69bb      	ldr	r3, [r7, #24]
 800399a:	627b      	str	r3, [r7, #36]	; 0x24
 800399c:	e01a      	b.n	80039d4 <qFIS_TSigMF+0xb8>
        }
    }
    else {
        /*cstat -MISRAC2012-Dir-4.11_a*/
        y = b - ( QLIB_LOG( ( 1.0f/x ) - 1.0f )/a );
 800399e:	6a39      	ldr	r1, [r7, #32]
 80039a0:	f04f 507e 	mov.w	r0, #1065353216	; 0x3f800000
 80039a4:	f7fd fa52 	bl	8000e4c <__aeabi_fdiv>
 80039a8:	4603      	mov	r3, r0
 80039aa:	f04f 517e 	mov.w	r1, #1065353216	; 0x3f800000
 80039ae:	4618      	mov	r0, r3
 80039b0:	f7fd f88e 	bl	8000ad0 <__aeabi_fsub>
 80039b4:	4603      	mov	r3, r0
 80039b6:	4618      	mov	r0, r3
 80039b8:	f7fe fe80 	bl	80026bc <qFFMath_Log>
 80039bc:	4603      	mov	r3, r0
 80039be:	6979      	ldr	r1, [r7, #20]
 80039c0:	4618      	mov	r0, r3
 80039c2:	f7fd fa43 	bl	8000e4c <__aeabi_fdiv>
 80039c6:	4603      	mov	r3, r0
 80039c8:	4619      	mov	r1, r3
 80039ca:	6938      	ldr	r0, [r7, #16]
 80039cc:	f7fd f880 	bl	8000ad0 <__aeabi_fsub>
 80039d0:	4603      	mov	r3, r0
 80039d2:	627b      	str	r3, [r7, #36]	; 0x24
        /*cstat +MISRAC2012-Dir-4.11_a*/
    }

    return y;
 80039d4:	6a7b      	ldr	r3, [r7, #36]	; 0x24
}
 80039d6:	4618      	mov	r0, r3
 80039d8:	3728      	adds	r7, #40	; 0x28
 80039da:	46bd      	mov	sp, r7
 80039dc:	bd80      	pop	{r7, pc}

080039de <qFIS_DSigMF>:
/*============================================================================*/
static float qFIS_DSigMF( const qFIS_IO_Base_t * const in,
                          const float *p,
                          const size_t n )
{
 80039de:	b590      	push	{r4, r7, lr}
 80039e0:	b085      	sub	sp, #20
 80039e2:	af00      	add	r7, sp, #0
 80039e4:	60f8      	str	r0, [r7, #12]
 80039e6:	60b9      	str	r1, [r7, #8]
 80039e8:	607a      	str	r2, [r7, #4]
    return QLIB_ABS( qFIS_SigMF( in , p, n ) - qFIS_SigMF( in , &p[ 2 ], n ) );
 80039ea:	687a      	ldr	r2, [r7, #4]
 80039ec:	68b9      	ldr	r1, [r7, #8]
 80039ee:	68f8      	ldr	r0, [r7, #12]
 80039f0:	f7ff ff64 	bl	80038bc <qFIS_SigMF>
 80039f4:	4604      	mov	r4, r0
 80039f6:	68bb      	ldr	r3, [r7, #8]
 80039f8:	3308      	adds	r3, #8
 80039fa:	687a      	ldr	r2, [r7, #4]
 80039fc:	4619      	mov	r1, r3
 80039fe:	68f8      	ldr	r0, [r7, #12]
 8003a00:	f7ff ff5c 	bl	80038bc <qFIS_SigMF>
 8003a04:	4603      	mov	r3, r0
 8003a06:	4619      	mov	r1, r3
 8003a08:	4620      	mov	r0, r4
 8003a0a:	f7fd f861 	bl	8000ad0 <__aeabi_fsub>
 8003a0e:	4603      	mov	r3, r0
 8003a10:	4618      	mov	r0, r3
 8003a12:	f7fe fcb5 	bl	8002380 <qFFMath_Abs>
 8003a16:	4603      	mov	r3, r0
}
 8003a18:	4618      	mov	r0, r3
 8003a1a:	3714      	adds	r7, #20
 8003a1c:	46bd      	mov	sp, r7
 8003a1e:	bd90      	pop	{r4, r7, pc}

08003a20 <qFIS_PSigMF>:
/*============================================================================*/
static float qFIS_PSigMF( const qFIS_IO_Base_t * const in,
                          const float *p,
                          const size_t n )
{
 8003a20:	b590      	push	{r4, r7, lr}
 8003a22:	b085      	sub	sp, #20
 8003a24:	af00      	add	r7, sp, #0
 8003a26:	60f8      	str	r0, [r7, #12]
 8003a28:	60b9      	str	r1, [r7, #8]
 8003a2a:	607a      	str	r2, [r7, #4]
    return QLIB_ABS( qFIS_SigMF( in , p, n )*qFIS_SigMF( in , &p[ 2 ], n ) );
 8003a2c:	687a      	ldr	r2, [r7, #4]
 8003a2e:	68b9      	ldr	r1, [r7, #8]
 8003a30:	68f8      	ldr	r0, [r7, #12]
 8003a32:	f7ff ff43 	bl	80038bc <qFIS_SigMF>
 8003a36:	4604      	mov	r4, r0
 8003a38:	68bb      	ldr	r3, [r7, #8]
 8003a3a:	3308      	adds	r3, #8
 8003a3c:	687a      	ldr	r2, [r7, #4]
 8003a3e:	4619      	mov	r1, r3
 8003a40:	68f8      	ldr	r0, [r7, #12]
 8003a42:	f7ff ff3b 	bl	80038bc <qFIS_SigMF>
 8003a46:	4603      	mov	r3, r0
 8003a48:	4619      	mov	r1, r3
 8003a4a:	4620      	mov	r0, r4
 8003a4c:	f7fd f94a 	bl	8000ce4 <__aeabi_fmul>
 8003a50:	4603      	mov	r3, r0
 8003a52:	4618      	mov	r0, r3
 8003a54:	f7fe fc94 	bl	8002380 <qFFMath_Abs>
 8003a58:	4603      	mov	r3, r0
}
 8003a5a:	4618      	mov	r0, r3
 8003a5c:	3714      	adds	r7, #20
 8003a5e:	46bd      	mov	sp, r7
 8003a60:	bd90      	pop	{r4, r7, pc}

08003a62 <qFIS_SMF>:
/*============================================================================*/
static float qFIS_SMF( const qFIS_IO_Base_t * const in,
                       const float *p,
                       const size_t n )
{
 8003a62:	b590      	push	{r4, r7, lr}
 8003a64:	b08b      	sub	sp, #44	; 0x2c
 8003a66:	af00      	add	r7, sp, #0
 8003a68:	60f8      	str	r0, [r7, #12]
 8003a6a:	60b9      	str	r1, [r7, #8]
 8003a6c:	607a      	str	r2, [r7, #4]
    float a, b, tmp, y;
    float x = in[ 0 ].value;
 8003a6e:	68fb      	ldr	r3, [r7, #12]
 8003a70:	689b      	ldr	r3, [r3, #8]
 8003a72:	623b      	str	r3, [r7, #32]
    (void)n;

    a = p[ 0 ];
 8003a74:	68bb      	ldr	r3, [r7, #8]
 8003a76:	681b      	ldr	r3, [r3, #0]
 8003a78:	61fb      	str	r3, [r7, #28]
    b = p[ 1 ];
 8003a7a:	68bb      	ldr	r3, [r7, #8]
 8003a7c:	685b      	ldr	r3, [r3, #4]
 8003a7e:	61bb      	str	r3, [r7, #24]
    if ( x <= a ) {
 8003a80:	69f9      	ldr	r1, [r7, #28]
 8003a82:	6a38      	ldr	r0, [r7, #32]
 8003a84:	f7fd fad6 	bl	8001034 <__aeabi_fcmple>
 8003a88:	4603      	mov	r3, r0
 8003a8a:	2b00      	cmp	r3, #0
 8003a8c:	d003      	beq.n	8003a96 <qFIS_SMF+0x34>
        y =  0.0f;
 8003a8e:	f04f 0300 	mov.w	r3, #0
 8003a92:	627b      	str	r3, [r7, #36]	; 0x24
 8003a94:	e081      	b.n	8003b9a <qFIS_SMF+0x138>
    }
    else if ( x >= b ) {
 8003a96:	69b9      	ldr	r1, [r7, #24]
 8003a98:	6a38      	ldr	r0, [r7, #32]
 8003a9a:	f7fd fad5 	bl	8001048 <__aeabi_fcmpge>
 8003a9e:	4603      	mov	r3, r0
 8003aa0:	2b00      	cmp	r3, #0
 8003aa2:	d003      	beq.n	8003aac <qFIS_SMF+0x4a>
        y = 1.0f;
 8003aa4:	f04f 537e 	mov.w	r3, #1065353216	; 0x3f800000
 8003aa8:	627b      	str	r3, [r7, #36]	; 0x24
 8003aaa:	e076      	b.n	8003b9a <qFIS_SMF+0x138>
    }
    else if ( ( x >= a ) && ( x <= ( ( a + b )*0.5f ) ) ) {
 8003aac:	69f9      	ldr	r1, [r7, #28]
 8003aae:	6a38      	ldr	r0, [r7, #32]
 8003ab0:	f7fd faca 	bl	8001048 <__aeabi_fcmpge>
 8003ab4:	4603      	mov	r3, r0
 8003ab6:	2b00      	cmp	r3, #0
 8003ab8:	d02f      	beq.n	8003b1a <qFIS_SMF+0xb8>
 8003aba:	69b9      	ldr	r1, [r7, #24]
 8003abc:	69f8      	ldr	r0, [r7, #28]
 8003abe:	f7fd f809 	bl	8000ad4 <__addsf3>
 8003ac2:	4603      	mov	r3, r0
 8003ac4:	f04f 517c 	mov.w	r1, #1056964608	; 0x3f000000
 8003ac8:	4618      	mov	r0, r3
 8003aca:	f7fd f90b 	bl	8000ce4 <__aeabi_fmul>
 8003ace:	4603      	mov	r3, r0
 8003ad0:	4619      	mov	r1, r3
 8003ad2:	6a38      	ldr	r0, [r7, #32]
 8003ad4:	f7fd faae 	bl	8001034 <__aeabi_fcmple>
 8003ad8:	4603      	mov	r3, r0
 8003ada:	2b00      	cmp	r3, #0
 8003adc:	d01d      	beq.n	8003b1a <qFIS_SMF+0xb8>
        tmp = ( x - a )/( b - a );
 8003ade:	69f9      	ldr	r1, [r7, #28]
 8003ae0:	6a38      	ldr	r0, [r7, #32]
 8003ae2:	f7fc fff5 	bl	8000ad0 <__aeabi_fsub>
 8003ae6:	4603      	mov	r3, r0
 8003ae8:	461c      	mov	r4, r3
 8003aea:	69f9      	ldr	r1, [r7, #28]
 8003aec:	69b8      	ldr	r0, [r7, #24]
 8003aee:	f7fc ffef 	bl	8000ad0 <__aeabi_fsub>
 8003af2:	4603      	mov	r3, r0
 8003af4:	4619      	mov	r1, r3
 8003af6:	4620      	mov	r0, r4
 8003af8:	f7fd f9a8 	bl	8000e4c <__aeabi_fdiv>
 8003afc:	4603      	mov	r3, r0
 8003afe:	617b      	str	r3, [r7, #20]
        y = 2.0f*tmp*tmp;
 8003b00:	697b      	ldr	r3, [r7, #20]
 8003b02:	4619      	mov	r1, r3
 8003b04:	4618      	mov	r0, r3
 8003b06:	f7fc ffe5 	bl	8000ad4 <__addsf3>
 8003b0a:	4603      	mov	r3, r0
 8003b0c:	4619      	mov	r1, r3
 8003b0e:	6978      	ldr	r0, [r7, #20]
 8003b10:	f7fd f8e8 	bl	8000ce4 <__aeabi_fmul>
 8003b14:	4603      	mov	r3, r0
 8003b16:	627b      	str	r3, [r7, #36]	; 0x24
 8003b18:	e03f      	b.n	8003b9a <qFIS_SMF+0x138>
    }
    else if ( ( x <= b ) && ( x >= ( ( a + b )*0.5f ) ) ) {
 8003b1a:	69b9      	ldr	r1, [r7, #24]
 8003b1c:	6a38      	ldr	r0, [r7, #32]
 8003b1e:	f7fd fa89 	bl	8001034 <__aeabi_fcmple>
 8003b22:	4603      	mov	r3, r0
 8003b24:	2b00      	cmp	r3, #0
 8003b26:	d035      	beq.n	8003b94 <qFIS_SMF+0x132>
 8003b28:	69b9      	ldr	r1, [r7, #24]
 8003b2a:	69f8      	ldr	r0, [r7, #28]
 8003b2c:	f7fc ffd2 	bl	8000ad4 <__addsf3>
 8003b30:	4603      	mov	r3, r0
 8003b32:	f04f 517c 	mov.w	r1, #1056964608	; 0x3f000000
 8003b36:	4618      	mov	r0, r3
 8003b38:	f7fd f8d4 	bl	8000ce4 <__aeabi_fmul>
 8003b3c:	4603      	mov	r3, r0
 8003b3e:	4619      	mov	r1, r3
 8003b40:	6a38      	ldr	r0, [r7, #32]
 8003b42:	f7fd fa81 	bl	8001048 <__aeabi_fcmpge>
 8003b46:	4603      	mov	r3, r0
 8003b48:	2b00      	cmp	r3, #0
 8003b4a:	d023      	beq.n	8003b94 <qFIS_SMF+0x132>
        tmp = ( x - b )/( b - a );
 8003b4c:	69b9      	ldr	r1, [r7, #24]
 8003b4e:	6a38      	ldr	r0, [r7, #32]
 8003b50:	f7fc ffbe 	bl	8000ad0 <__aeabi_fsub>
 8003b54:	4603      	mov	r3, r0
 8003b56:	461c      	mov	r4, r3
 8003b58:	69f9      	ldr	r1, [r7, #28]
 8003b5a:	69b8      	ldr	r0, [r7, #24]
 8003b5c:	f7fc ffb8 	bl	8000ad0 <__aeabi_fsub>
 8003b60:	4603      	mov	r3, r0
 8003b62:	4619      	mov	r1, r3
 8003b64:	4620      	mov	r0, r4
 8003b66:	f7fd f971 	bl	8000e4c <__aeabi_fdiv>
 8003b6a:	4603      	mov	r3, r0
 8003b6c:	617b      	str	r3, [r7, #20]
        y = ( 1.0f - ( 2.0f*tmp*tmp ) );
 8003b6e:	697b      	ldr	r3, [r7, #20]
 8003b70:	4619      	mov	r1, r3
 8003b72:	4618      	mov	r0, r3
 8003b74:	f7fc ffae 	bl	8000ad4 <__addsf3>
 8003b78:	4603      	mov	r3, r0
 8003b7a:	6979      	ldr	r1, [r7, #20]
 8003b7c:	4618      	mov	r0, r3
 8003b7e:	f7fd f8b1 	bl	8000ce4 <__aeabi_fmul>
 8003b82:	4603      	mov	r3, r0
 8003b84:	4619      	mov	r1, r3
 8003b86:	f04f 507e 	mov.w	r0, #1065353216	; 0x3f800000
 8003b8a:	f7fc ffa1 	bl	8000ad0 <__aeabi_fsub>
 8003b8e:	4603      	mov	r3, r0
 8003b90:	627b      	str	r3, [r7, #36]	; 0x24
 8003b92:	e002      	b.n	8003b9a <qFIS_SMF+0x138>
    }
    else {
        y = 0.0f;
 8003b94:	f04f 0300 	mov.w	r3, #0
 8003b98:	627b      	str	r3, [r7, #36]	; 0x24
    }

    return y;
 8003b9a:	6a7b      	ldr	r3, [r7, #36]	; 0x24
}
 8003b9c:	4618      	mov	r0, r3
 8003b9e:	372c      	adds	r7, #44	; 0x2c
 8003ba0:	46bd      	mov	sp, r7
 8003ba2:	bd90      	pop	{r4, r7, pc}

08003ba4 <qFIS_TSMF>:
/*============================================================================*/
static float qFIS_TSMF( const qFIS_IO_Base_t * const in,
                        const float *p,
                        const size_t n )
{
 8003ba4:	b590      	push	{r4, r7, lr}
 8003ba6:	b091      	sub	sp, #68	; 0x44
 8003ba8:	af00      	add	r7, sp, #0
 8003baa:	60f8      	str	r0, [r7, #12]
 8003bac:	60b9      	str	r1, [r7, #8]
 8003bae:	607a      	str	r2, [r7, #4]
    float diff, a, b, ta, tb, ma, mb;
    float x = in[ 0 ].value;
 8003bb0:	68fb      	ldr	r3, [r7, #12]
 8003bb2:	689b      	ldr	r3, [r3, #8]
 8003bb4:	63fb      	str	r3, [r7, #60]	; 0x3c
    (void)n;
    qFIS_IO_Base_t tmp;

    a = p[ 0 ]; /*start*/
 8003bb6:	68bb      	ldr	r3, [r7, #8]
 8003bb8:	681b      	ldr	r3, [r3, #0]
 8003bba:	63bb      	str	r3, [r7, #56]	; 0x38
    b = p[ 1 ]; /*end*/
 8003bbc:	68bb      	ldr	r3, [r7, #8]
 8003bbe:	685b      	ldr	r3, [r3, #4]
 8003bc0:	637b      	str	r3, [r7, #52]	; 0x34
    diff = b - a;
 8003bc2:	6bb9      	ldr	r1, [r7, #56]	; 0x38
 8003bc4:	6b78      	ldr	r0, [r7, #52]	; 0x34
 8003bc6:	f7fc ff83 	bl	8000ad0 <__aeabi_fsub>
 8003bca:	4603      	mov	r3, r0
 8003bcc:	633b      	str	r3, [r7, #48]	; 0x30
    diff = 0.5f*diff*diff;
 8003bce:	f04f 517c 	mov.w	r1, #1056964608	; 0x3f000000
 8003bd2:	6b38      	ldr	r0, [r7, #48]	; 0x30
 8003bd4:	f7fd f886 	bl	8000ce4 <__aeabi_fmul>
 8003bd8:	4603      	mov	r3, r0
 8003bda:	4619      	mov	r1, r3
 8003bdc:	6b38      	ldr	r0, [r7, #48]	; 0x30
 8003bde:	f7fd f881 	bl	8000ce4 <__aeabi_fmul>
 8003be2:	4603      	mov	r3, r0
 8003be4:	633b      	str	r3, [r7, #48]	; 0x30
    /*cstat -MISRAC2012-Dir-4.11_a -MISRAC2012-Dir-4.11_b*/
    ta = a + QLIB_SQRT( x*diff );
 8003be6:	6b39      	ldr	r1, [r7, #48]	; 0x30
 8003be8:	6bf8      	ldr	r0, [r7, #60]	; 0x3c
 8003bea:	f7fd f87b 	bl	8000ce4 <__aeabi_fmul>
 8003bee:	4603      	mov	r3, r0
 8003bf0:	4618      	mov	r0, r3
 8003bf2:	f7fe fbda 	bl	80023aa <qFFMath_Sqrt>
 8003bf6:	4603      	mov	r3, r0
 8003bf8:	4619      	mov	r1, r3
 8003bfa:	6bb8      	ldr	r0, [r7, #56]	; 0x38
 8003bfc:	f7fc ff6a 	bl	8000ad4 <__addsf3>
 8003c00:	4603      	mov	r3, r0
 8003c02:	62fb      	str	r3, [r7, #44]	; 0x2c
    tmp.value = ta;
 8003c04:	6afb      	ldr	r3, [r7, #44]	; 0x2c
 8003c06:	61fb      	str	r3, [r7, #28]
    ma = qFIS_SMF( &tmp, p, n );
 8003c08:	f107 0314 	add.w	r3, r7, #20
 8003c0c:	687a      	ldr	r2, [r7, #4]
 8003c0e:	68b9      	ldr	r1, [r7, #8]
 8003c10:	4618      	mov	r0, r3
 8003c12:	f7ff ff26 	bl	8003a62 <qFIS_SMF>
 8003c16:	62b8      	str	r0, [r7, #40]	; 0x28
    tb = b + QLIB_SQRT( -( x - 1.0f )*diff );
 8003c18:	f04f 517e 	mov.w	r1, #1065353216	; 0x3f800000
 8003c1c:	6bf8      	ldr	r0, [r7, #60]	; 0x3c
 8003c1e:	f7fc ff57 	bl	8000ad0 <__aeabi_fsub>
 8003c22:	4603      	mov	r3, r0
 8003c24:	f083 4300 	eor.w	r3, r3, #2147483648	; 0x80000000
 8003c28:	6b39      	ldr	r1, [r7, #48]	; 0x30
 8003c2a:	4618      	mov	r0, r3
 8003c2c:	f7fd f85a 	bl	8000ce4 <__aeabi_fmul>
 8003c30:	4603      	mov	r3, r0
 8003c32:	4618      	mov	r0, r3
 8003c34:	f7fe fbb9 	bl	80023aa <qFFMath_Sqrt>
 8003c38:	4603      	mov	r3, r0
 8003c3a:	4619      	mov	r1, r3
 8003c3c:	6b78      	ldr	r0, [r7, #52]	; 0x34
 8003c3e:	f7fc ff49 	bl	8000ad4 <__addsf3>
 8003c42:	4603      	mov	r3, r0
 8003c44:	627b      	str	r3, [r7, #36]	; 0x24
    tmp.value = tb;
 8003c46:	6a7b      	ldr	r3, [r7, #36]	; 0x24
 8003c48:	61fb      	str	r3, [r7, #28]
    mb = qFIS_SMF( &tmp, p, n );
 8003c4a:	f107 0314 	add.w	r3, r7, #20
 8003c4e:	687a      	ldr	r2, [r7, #4]
 8003c50:	68b9      	ldr	r1, [r7, #8]
 8003c52:	4618      	mov	r0, r3
 8003c54:	f7ff ff05 	bl	8003a62 <qFIS_SMF>
 8003c58:	6238      	str	r0, [r7, #32]
    /*cstat +MISRAC2012-Dir-4.11_a +MISRAC2012-Dir-4.11_b*/
    return  ( QLIB_ABS( x - ma ) < QLIB_ABS( x - mb ) ) ? ta : tb;
 8003c5a:	6ab9      	ldr	r1, [r7, #40]	; 0x28
 8003c5c:	6bf8      	ldr	r0, [r7, #60]	; 0x3c
 8003c5e:	f7fc ff37 	bl	8000ad0 <__aeabi_fsub>
 8003c62:	4603      	mov	r3, r0
 8003c64:	4618      	mov	r0, r3
 8003c66:	f7fe fb8b 	bl	8002380 <qFFMath_Abs>
 8003c6a:	4604      	mov	r4, r0
 8003c6c:	6a39      	ldr	r1, [r7, #32]
 8003c6e:	6bf8      	ldr	r0, [r7, #60]	; 0x3c
 8003c70:	f7fc ff2e 	bl	8000ad0 <__aeabi_fsub>
 8003c74:	4603      	mov	r3, r0
 8003c76:	4618      	mov	r0, r3
 8003c78:	f7fe fb82 	bl	8002380 <qFFMath_Abs>
 8003c7c:	4603      	mov	r3, r0
 8003c7e:	4619      	mov	r1, r3
 8003c80:	4620      	mov	r0, r4
 8003c82:	f7fd f9cd 	bl	8001020 <__aeabi_fcmplt>
 8003c86:	4603      	mov	r3, r0
 8003c88:	2b00      	cmp	r3, #0
 8003c8a:	d001      	beq.n	8003c90 <qFIS_TSMF+0xec>
 8003c8c:	6afb      	ldr	r3, [r7, #44]	; 0x2c
 8003c8e:	e000      	b.n	8003c92 <qFIS_TSMF+0xee>
 8003c90:	6a7b      	ldr	r3, [r7, #36]	; 0x24
}
 8003c92:	4618      	mov	r0, r3
 8003c94:	3744      	adds	r7, #68	; 0x44
 8003c96:	46bd      	mov	sp, r7
 8003c98:	bd90      	pop	{r4, r7, pc}

08003c9a <qFIS_ZMF>:
/*============================================================================*/
static float qFIS_ZMF( const qFIS_IO_Base_t * const in,
                       const float *p,
                       const size_t n )
{
 8003c9a:	b590      	push	{r4, r7, lr}
 8003c9c:	b08b      	sub	sp, #44	; 0x2c
 8003c9e:	af00      	add	r7, sp, #0
 8003ca0:	60f8      	str	r0, [r7, #12]
 8003ca2:	60b9      	str	r1, [r7, #8]
 8003ca4:	607a      	str	r2, [r7, #4]
    float a, b, tmp, y;
    float x = in[ 0 ].value;
 8003ca6:	68fb      	ldr	r3, [r7, #12]
 8003ca8:	689b      	ldr	r3, [r3, #8]
 8003caa:	623b      	str	r3, [r7, #32]
    (void)n;

    a = p[ 0 ];
 8003cac:	68bb      	ldr	r3, [r7, #8]
 8003cae:	681b      	ldr	r3, [r3, #0]
 8003cb0:	61fb      	str	r3, [r7, #28]
    b = p[ 1 ];
 8003cb2:	68bb      	ldr	r3, [r7, #8]
 8003cb4:	685b      	ldr	r3, [r3, #4]
 8003cb6:	61bb      	str	r3, [r7, #24]
    if ( x <= a ) {
 8003cb8:	69f9      	ldr	r1, [r7, #28]
 8003cba:	6a38      	ldr	r0, [r7, #32]
 8003cbc:	f7fd f9ba 	bl	8001034 <__aeabi_fcmple>
 8003cc0:	4603      	mov	r3, r0
 8003cc2:	2b00      	cmp	r3, #0
 8003cc4:	d003      	beq.n	8003cce <qFIS_ZMF+0x34>
        y = 1.0f;
 8003cc6:	f04f 537e 	mov.w	r3, #1065353216	; 0x3f800000
 8003cca:	627b      	str	r3, [r7, #36]	; 0x24
 8003ccc:	e081      	b.n	8003dd2 <qFIS_ZMF+0x138>
    }
    else if ( x >= b ) {
 8003cce:	69b9      	ldr	r1, [r7, #24]
 8003cd0:	6a38      	ldr	r0, [r7, #32]
 8003cd2:	f7fd f9b9 	bl	8001048 <__aeabi_fcmpge>
 8003cd6:	4603      	mov	r3, r0
 8003cd8:	2b00      	cmp	r3, #0
 8003cda:	d003      	beq.n	8003ce4 <qFIS_ZMF+0x4a>
        y = 0.0f;
 8003cdc:	f04f 0300 	mov.w	r3, #0
 8003ce0:	627b      	str	r3, [r7, #36]	; 0x24
 8003ce2:	e076      	b.n	8003dd2 <qFIS_ZMF+0x138>
    }
    else if ( ( x >= a ) && ( x <= ( ( a + b )*0.5f ) ) ) {
 8003ce4:	69f9      	ldr	r1, [r7, #28]
 8003ce6:	6a38      	ldr	r0, [r7, #32]
 8003ce8:	f7fd f9ae 	bl	8001048 <__aeabi_fcmpge>
 8003cec:	4603      	mov	r3, r0
 8003cee:	2b00      	cmp	r3, #0
 8003cf0:	d035      	beq.n	8003d5e <qFIS_ZMF+0xc4>
 8003cf2:	69b9      	ldr	r1, [r7, #24]
 8003cf4:	69f8      	ldr	r0, [r7, #28]
 8003cf6:	f7fc feed 	bl	8000ad4 <__addsf3>
 8003cfa:	4603      	mov	r3, r0
 8003cfc:	f04f 517c 	mov.w	r1, #1056964608	; 0x3f000000
 8003d00:	4618      	mov	r0, r3
 8003d02:	f7fc ffef 	bl	8000ce4 <__aeabi_fmul>
 8003d06:	4603      	mov	r3, r0
 8003d08:	4619      	mov	r1, r3
 8003d0a:	6a38      	ldr	r0, [r7, #32]
 8003d0c:	f7fd f992 	bl	8001034 <__aeabi_fcmple>
 8003d10:	4603      	mov	r3, r0
 8003d12:	2b00      	cmp	r3, #0
 8003d14:	d023      	beq.n	8003d5e <qFIS_ZMF+0xc4>
        tmp = ( x - a )/( b - a );
 8003d16:	69f9      	ldr	r1, [r7, #28]
 8003d18:	6a38      	ldr	r0, [r7, #32]
 8003d1a:	f7fc fed9 	bl	8000ad0 <__aeabi_fsub>
 8003d1e:	4603      	mov	r3, r0
 8003d20:	461c      	mov	r4, r3
 8003d22:	69f9      	ldr	r1, [r7, #28]
 8003d24:	69b8      	ldr	r0, [r7, #24]
 8003d26:	f7fc fed3 	bl	8000ad0 <__aeabi_fsub>
 8003d2a:	4603      	mov	r3, r0
 8003d2c:	4619      	mov	r1, r3
 8003d2e:	4620      	mov	r0, r4
 8003d30:	f7fd f88c 	bl	8000e4c <__aeabi_fdiv>
 8003d34:	4603      	mov	r3, r0
 8003d36:	617b      	str	r3, [r7, #20]
        y = 1.0f - ( 2.0f*tmp*tmp );
 8003d38:	697b      	ldr	r3, [r7, #20]
 8003d3a:	4619      	mov	r1, r3
 8003d3c:	4618      	mov	r0, r3
 8003d3e:	f7fc fec9 	bl	8000ad4 <__addsf3>
 8003d42:	4603      	mov	r3, r0
 8003d44:	6979      	ldr	r1, [r7, #20]
 8003d46:	4618      	mov	r0, r3
 8003d48:	f7fc ffcc 	bl	8000ce4 <__aeabi_fmul>
 8003d4c:	4603      	mov	r3, r0
 8003d4e:	4619      	mov	r1, r3
 8003d50:	f04f 507e 	mov.w	r0, #1065353216	; 0x3f800000
 8003d54:	f7fc febc 	bl	8000ad0 <__aeabi_fsub>
 8003d58:	4603      	mov	r3, r0
 8003d5a:	627b      	str	r3, [r7, #36]	; 0x24
 8003d5c:	e039      	b.n	8003dd2 <qFIS_ZMF+0x138>
    }
    else if ( ( x <= b ) && ( x >= ( ( a + b )*0.5f ) ) ) {
 8003d5e:	69b9      	ldr	r1, [r7, #24]
 8003d60:	6a38      	ldr	r0, [r7, #32]
 8003d62:	f7fd f967 	bl	8001034 <__aeabi_fcmple>
 8003d66:	4603      	mov	r3, r0
 8003d68:	2b00      	cmp	r3, #0
 8003d6a:	d02f      	beq.n	8003dcc <qFIS_ZMF+0x132>
 8003d6c:	69b9      	ldr	r1, [r7, #24]
 8003d6e:	69f8      	ldr	r0, [r7, #28]
 8003d70:	f7fc feb0 	bl	8000ad4 <__addsf3>
 8003d74:	4603      	mov	r3, r0
 8003d76:	f04f 517c 	mov.w	r1, #1056964608	; 0x3f000000
 8003d7a:	4618      	mov	r0, r3
 8003d7c:	f7fc ffb2 	bl	8000ce4 <__aeabi_fmul>
 8003d80:	4603      	mov	r3, r0
 8003d82:	4619      	mov	r1, r3
 8003d84:	6a38      	ldr	r0, [r7, #32]
 8003d86:	f7fd f95f 	bl	8001048 <__aeabi_fcmpge>
 8003d8a:	4603      	mov	r3, r0
 8003d8c:	2b00      	cmp	r3, #0
 8003d8e:	d01d      	beq.n	8003dcc <qFIS_ZMF+0x132>
        tmp = ( x - b )/( b - a );
 8003d90:	69b9      	ldr	r1, [r7, #24]
 8003d92:	6a38      	ldr	r0, [r7, #32]
 8003d94:	f7fc fe9c 	bl	8000ad0 <__aeabi_fsub>
 8003d98:	4603      	mov	r3, r0
 8003d9a:	461c      	mov	r4, r3
 8003d9c:	69f9      	ldr	r1, [r7, #28]
 8003d9e:	69b8      	ldr	r0, [r7, #24]
 8003da0:	f7fc fe96 	bl	8000ad0 <__aeabi_fsub>
 8003da4:	4603      	mov	r3, r0
 8003da6:	4619      	mov	r1, r3
 8003da8:	4620      	mov	r0, r4
 8003daa:	f7fd f84f 	bl	8000e4c <__aeabi_fdiv>
 8003dae:	4603      	mov	r3, r0
 8003db0:	617b      	str	r3, [r7, #20]
        y = 2.0f*tmp*tmp;
 8003db2:	697b      	ldr	r3, [r7, #20]
 8003db4:	4619      	mov	r1, r3
 8003db6:	4618      	mov	r0, r3
 8003db8:	f7fc fe8c 	bl	8000ad4 <__addsf3>
 8003dbc:	4603      	mov	r3, r0
 8003dbe:	4619      	mov	r1, r3
 8003dc0:	6978      	ldr	r0, [r7, #20]
 8003dc2:	f7fc ff8f 	bl	8000ce4 <__aeabi_fmul>
 8003dc6:	4603      	mov	r3, r0
 8003dc8:	627b      	str	r3, [r7, #36]	; 0x24
 8003dca:	e002      	b.n	8003dd2 <qFIS_ZMF+0x138>
    }
    else {
        y = 0.0f;
 8003dcc:	f04f 0300 	mov.w	r3, #0
 8003dd0:	627b      	str	r3, [r7, #36]	; 0x24
    }

    return y;
 8003dd2:	6a7b      	ldr	r3, [r7, #36]	; 0x24
}
 8003dd4:	4618      	mov	r0, r3
 8003dd6:	372c      	adds	r7, #44	; 0x2c
 8003dd8:	46bd      	mov	sp, r7
 8003dda:	bd90      	pop	{r4, r7, pc}

08003ddc <qFIS_LinSMF>:
/*============================================================================*/
static float qFIS_LinSMF( const qFIS_IO_Base_t * const in,
                          const float *p,
                          const size_t n )
{
 8003ddc:	b590      	push	{r4, r7, lr}
 8003dde:	b089      	sub	sp, #36	; 0x24
 8003de0:	af00      	add	r7, sp, #0
 8003de2:	60f8      	str	r0, [r7, #12]
 8003de4:	60b9      	str	r1, [r7, #8]
 8003de6:	607a      	str	r2, [r7, #4]
    float a, b, y;
    float x = in[ 0 ].value;
 8003de8:	68fb      	ldr	r3, [r7, #12]
 8003dea:	689b      	ldr	r3, [r3, #8]
 8003dec:	61bb      	str	r3, [r7, #24]
    (void)n;

    a = p[ 0 ];
 8003dee:	68bb      	ldr	r3, [r7, #8]
 8003df0:	681b      	ldr	r3, [r3, #0]
 8003df2:	617b      	str	r3, [r7, #20]
    b = p[ 1 ];
 8003df4:	68bb      	ldr	r3, [r7, #8]
 8003df6:	685b      	ldr	r3, [r3, #4]
 8003df8:	613b      	str	r3, [r7, #16]
    if ( a < b ) {
 8003dfa:	6939      	ldr	r1, [r7, #16]
 8003dfc:	6978      	ldr	r0, [r7, #20]
 8003dfe:	f7fd f90f 	bl	8001020 <__aeabi_fcmplt>
 8003e02:	4603      	mov	r3, r0
 8003e04:	2b00      	cmp	r3, #0
 8003e06:	d027      	beq.n	8003e58 <qFIS_LinSMF+0x7c>
        if ( x < a ) {
 8003e08:	6979      	ldr	r1, [r7, #20]
 8003e0a:	69b8      	ldr	r0, [r7, #24]
 8003e0c:	f7fd f908 	bl	8001020 <__aeabi_fcmplt>
 8003e10:	4603      	mov	r3, r0
 8003e12:	2b00      	cmp	r3, #0
 8003e14:	d003      	beq.n	8003e1e <qFIS_LinSMF+0x42>
            y = 0.0f;
 8003e16:	f04f 0300 	mov.w	r3, #0
 8003e1a:	61fb      	str	r3, [r7, #28]
 8003e1c:	e034      	b.n	8003e88 <qFIS_LinSMF+0xac>
        }
        else if ( x > b ) {
 8003e1e:	6939      	ldr	r1, [r7, #16]
 8003e20:	69b8      	ldr	r0, [r7, #24]
 8003e22:	f7fd f91b 	bl	800105c <__aeabi_fcmpgt>
 8003e26:	4603      	mov	r3, r0
 8003e28:	2b00      	cmp	r3, #0
 8003e2a:	d003      	beq.n	8003e34 <qFIS_LinSMF+0x58>
            y = 1.0f;
 8003e2c:	f04f 537e 	mov.w	r3, #1065353216	; 0x3f800000
 8003e30:	61fb      	str	r3, [r7, #28]
 8003e32:	e029      	b.n	8003e88 <qFIS_LinSMF+0xac>
        }
        else {
            y = ( x - a )/( b - a );
 8003e34:	6979      	ldr	r1, [r7, #20]
 8003e36:	69b8      	ldr	r0, [r7, #24]
 8003e38:	f7fc fe4a 	bl	8000ad0 <__aeabi_fsub>
 8003e3c:	4603      	mov	r3, r0
 8003e3e:	461c      	mov	r4, r3
 8003e40:	6979      	ldr	r1, [r7, #20]
 8003e42:	6938      	ldr	r0, [r7, #16]
 8003e44:	f7fc fe44 	bl	8000ad0 <__aeabi_fsub>
 8003e48:	4603      	mov	r3, r0
 8003e4a:	4619      	mov	r1, r3
 8003e4c:	4620      	mov	r0, r4
 8003e4e:	f7fc fffd 	bl	8000e4c <__aeabi_fdiv>
 8003e52:	4603      	mov	r3, r0
 8003e54:	61fb      	str	r3, [r7, #28]
 8003e56:	e017      	b.n	8003e88 <qFIS_LinSMF+0xac>
        }
    }
    else if ( qFMathEx_Equal( a, b ) ) {
 8003e58:	6939      	ldr	r1, [r7, #16]
 8003e5a:	6978      	ldr	r0, [r7, #20]
 8003e5c:	f000 fc11 	bl	8004682 <qFMathEx_Equal>
 8003e60:	4603      	mov	r3, r0
 8003e62:	2b00      	cmp	r3, #0
 8003e64:	d00d      	beq.n	8003e82 <qFIS_LinSMF+0xa6>
        y = ( x < a ) ? 0.0f : 1.0f;
 8003e66:	6979      	ldr	r1, [r7, #20]
 8003e68:	69b8      	ldr	r0, [r7, #24]
 8003e6a:	f7fd f8d9 	bl	8001020 <__aeabi_fcmplt>
 8003e6e:	4603      	mov	r3, r0
 8003e70:	2b00      	cmp	r3, #0
 8003e72:	d002      	beq.n	8003e7a <qFIS_LinSMF+0x9e>
 8003e74:	f04f 0300 	mov.w	r3, #0
 8003e78:	e001      	b.n	8003e7e <qFIS_LinSMF+0xa2>
 8003e7a:	f04f 537e 	mov.w	r3, #1065353216	; 0x3f800000
 8003e7e:	61fb      	str	r3, [r7, #28]
 8003e80:	e002      	b.n	8003e88 <qFIS_LinSMF+0xac>
    }
    else {
        y = 0.0f;
 8003e82:	f04f 0300 	mov.w	r3, #0
 8003e86:	61fb      	str	r3, [r7, #28]
    }

    return y;
 8003e88:	69fb      	ldr	r3, [r7, #28]
}
 8003e8a:	4618      	mov	r0, r3
 8003e8c:	3724      	adds	r7, #36	; 0x24
 8003e8e:	46bd      	mov	sp, r7
 8003e90:	bd90      	pop	{r4, r7, pc}

08003e92 <qFIS_LinZMF>:
/*============================================================================*/
static float qFIS_LinZMF( const qFIS_IO_Base_t * const in,
                          const float *p,
                          const size_t n )
{
 8003e92:	b590      	push	{r4, r7, lr}
 8003e94:	b089      	sub	sp, #36	; 0x24
 8003e96:	af00      	add	r7, sp, #0
 8003e98:	60f8      	str	r0, [r7, #12]
 8003e9a:	60b9      	str	r1, [r7, #8]
 8003e9c:	607a      	str	r2, [r7, #4]
    float a, b, y;
    float x = in[ 0 ].value;
 8003e9e:	68fb      	ldr	r3, [r7, #12]
 8003ea0:	689b      	ldr	r3, [r3, #8]
 8003ea2:	61bb      	str	r3, [r7, #24]
    (void)n;

    a = p[ 0 ];
 8003ea4:	68bb      	ldr	r3, [r7, #8]
 8003ea6:	681b      	ldr	r3, [r3, #0]
 8003ea8:	617b      	str	r3, [r7, #20]
    b = p[ 1 ];
 8003eaa:	68bb      	ldr	r3, [r7, #8]
 8003eac:	685b      	ldr	r3, [r3, #4]
 8003eae:	613b      	str	r3, [r7, #16]
    if ( a < b ) {
 8003eb0:	6939      	ldr	r1, [r7, #16]
 8003eb2:	6978      	ldr	r0, [r7, #20]
 8003eb4:	f7fd f8b4 	bl	8001020 <__aeabi_fcmplt>
 8003eb8:	4603      	mov	r3, r0
 8003eba:	2b00      	cmp	r3, #0
 8003ebc:	d027      	beq.n	8003f0e <qFIS_LinZMF+0x7c>
        if ( x < a ) {
 8003ebe:	6979      	ldr	r1, [r7, #20]
 8003ec0:	69b8      	ldr	r0, [r7, #24]
 8003ec2:	f7fd f8ad 	bl	8001020 <__aeabi_fcmplt>
 8003ec6:	4603      	mov	r3, r0
 8003ec8:	2b00      	cmp	r3, #0
 8003eca:	d003      	beq.n	8003ed4 <qFIS_LinZMF+0x42>
            y = 1.0f;
 8003ecc:	f04f 537e 	mov.w	r3, #1065353216	; 0x3f800000
 8003ed0:	61fb      	str	r3, [r7, #28]
 8003ed2:	e034      	b.n	8003f3e <qFIS_LinZMF+0xac>
        }
        else if ( x > b ) {
 8003ed4:	6939      	ldr	r1, [r7, #16]
 8003ed6:	69b8      	ldr	r0, [r7, #24]
 8003ed8:	f7fd f8c0 	bl	800105c <__aeabi_fcmpgt>
 8003edc:	4603      	mov	r3, r0
 8003ede:	2b00      	cmp	r3, #0
 8003ee0:	d003      	beq.n	8003eea <qFIS_LinZMF+0x58>
            y = 0.0f;
 8003ee2:	f04f 0300 	mov.w	r3, #0
 8003ee6:	61fb      	str	r3, [r7, #28]
 8003ee8:	e029      	b.n	8003f3e <qFIS_LinZMF+0xac>
        }
        else {
            y = ( a - x )/( a - b );
 8003eea:	69b9      	ldr	r1, [r7, #24]
 8003eec:	6978      	ldr	r0, [r7, #20]
 8003eee:	f7fc fdef 	bl	8000ad0 <__aeabi_fsub>
 8003ef2:	4603      	mov	r3, r0
 8003ef4:	461c      	mov	r4, r3
 8003ef6:	6939      	ldr	r1, [r7, #16]
 8003ef8:	6978      	ldr	r0, [r7, #20]
 8003efa:	f7fc fde9 	bl	8000ad0 <__aeabi_fsub>
 8003efe:	4603      	mov	r3, r0
 8003f00:	4619      	mov	r1, r3
 8003f02:	4620      	mov	r0, r4
 8003f04:	f7fc ffa2 	bl	8000e4c <__aeabi_fdiv>
 8003f08:	4603      	mov	r3, r0
 8003f0a:	61fb      	str	r3, [r7, #28]
 8003f0c:	e017      	b.n	8003f3e <qFIS_LinZMF+0xac>
        }
    }
    else if ( qFMathEx_Equal( a, b ) ) {
 8003f0e:	6939      	ldr	r1, [r7, #16]
 8003f10:	6978      	ldr	r0, [r7, #20]
 8003f12:	f000 fbb6 	bl	8004682 <qFMathEx_Equal>
 8003f16:	4603      	mov	r3, r0
 8003f18:	2b00      	cmp	r3, #0
 8003f1a:	d00d      	beq.n	8003f38 <qFIS_LinZMF+0xa6>
        y = ( x < a ) ? 1.0f : 0.0f;
 8003f1c:	6979      	ldr	r1, [r7, #20]
 8003f1e:	69b8      	ldr	r0, [r7, #24]
 8003f20:	f7fd f87e 	bl	8001020 <__aeabi_fcmplt>
 8003f24:	4603      	mov	r3, r0
 8003f26:	2b00      	cmp	r3, #0
 8003f28:	d002      	beq.n	8003f30 <qFIS_LinZMF+0x9e>
 8003f2a:	f04f 537e 	mov.w	r3, #1065353216	; 0x3f800000
 8003f2e:	e001      	b.n	8003f34 <qFIS_LinZMF+0xa2>
 8003f30:	f04f 0300 	mov.w	r3, #0
 8003f34:	61fb      	str	r3, [r7, #28]
 8003f36:	e002      	b.n	8003f3e <qFIS_LinZMF+0xac>
    }
    else {
        y = 0.0f;
 8003f38:	f04f 0300 	mov.w	r3, #0
 8003f3c:	61fb      	str	r3, [r7, #28]
    }

    return y;
 8003f3e:	69fb      	ldr	r3, [r7, #28]
}
 8003f40:	4618      	mov	r0, r3
 8003f42:	3724      	adds	r7, #36	; 0x24
 8003f44:	46bd      	mov	sp, r7
 8003f46:	bd90      	pop	{r4, r7, pc}

08003f48 <qFIS_TZMF>:
/*============================================================================*/
static float qFIS_TZMF( const qFIS_IO_Base_t * const in,
                        const float *p,
                        const size_t n )
{
 8003f48:	b590      	push	{r4, r7, lr}
 8003f4a:	b091      	sub	sp, #68	; 0x44
 8003f4c:	af00      	add	r7, sp, #0
 8003f4e:	60f8      	str	r0, [r7, #12]
 8003f50:	60b9      	str	r1, [r7, #8]
 8003f52:	607a      	str	r2, [r7, #4]
    float diff, a, b, ta, tb, ma, mb;
    float x = in[ 0 ].value;
 8003f54:	68fb      	ldr	r3, [r7, #12]
 8003f56:	689b      	ldr	r3, [r3, #8]
 8003f58:	63fb      	str	r3, [r7, #60]	; 0x3c
    (void)n;
    qFIS_IO_Base_t tmp;

    a = p[ 0 ]; /*start*/
 8003f5a:	68bb      	ldr	r3, [r7, #8]
 8003f5c:	681b      	ldr	r3, [r3, #0]
 8003f5e:	63bb      	str	r3, [r7, #56]	; 0x38
    b = p[ 1 ]; /*end*/
 8003f60:	68bb      	ldr	r3, [r7, #8]
 8003f62:	685b      	ldr	r3, [r3, #4]
 8003f64:	637b      	str	r3, [r7, #52]	; 0x34
    diff = b - a;
 8003f66:	6bb9      	ldr	r1, [r7, #56]	; 0x38
 8003f68:	6b78      	ldr	r0, [r7, #52]	; 0x34
 8003f6a:	f7fc fdb1 	bl	8000ad0 <__aeabi_fsub>
 8003f6e:	4603      	mov	r3, r0
 8003f70:	633b      	str	r3, [r7, #48]	; 0x30
    diff = 0.5f*diff*diff;
 8003f72:	f04f 517c 	mov.w	r1, #1056964608	; 0x3f000000
 8003f76:	6b38      	ldr	r0, [r7, #48]	; 0x30
 8003f78:	f7fc feb4 	bl	8000ce4 <__aeabi_fmul>
 8003f7c:	4603      	mov	r3, r0
 8003f7e:	4619      	mov	r1, r3
 8003f80:	6b38      	ldr	r0, [r7, #48]	; 0x30
 8003f82:	f7fc feaf 	bl	8000ce4 <__aeabi_fmul>
 8003f86:	4603      	mov	r3, r0
 8003f88:	633b      	str	r3, [r7, #48]	; 0x30
    /*cstat -MISRAC2012-Dir-4.11_a -MISRAC2012-Dir-4.11_b*/
    ta = a + QLIB_SQRT( -( x - 1.0f )*diff );
 8003f8a:	f04f 517e 	mov.w	r1, #1065353216	; 0x3f800000
 8003f8e:	6bf8      	ldr	r0, [r7, #60]	; 0x3c
 8003f90:	f7fc fd9e 	bl	8000ad0 <__aeabi_fsub>
 8003f94:	4603      	mov	r3, r0
 8003f96:	f083 4300 	eor.w	r3, r3, #2147483648	; 0x80000000
 8003f9a:	6b39      	ldr	r1, [r7, #48]	; 0x30
 8003f9c:	4618      	mov	r0, r3
 8003f9e:	f7fc fea1 	bl	8000ce4 <__aeabi_fmul>
 8003fa2:	4603      	mov	r3, r0
 8003fa4:	4618      	mov	r0, r3
 8003fa6:	f7fe fa00 	bl	80023aa <qFFMath_Sqrt>
 8003faa:	4603      	mov	r3, r0
 8003fac:	4619      	mov	r1, r3
 8003fae:	6bb8      	ldr	r0, [r7, #56]	; 0x38
 8003fb0:	f7fc fd90 	bl	8000ad4 <__addsf3>
 8003fb4:	4603      	mov	r3, r0
 8003fb6:	62fb      	str	r3, [r7, #44]	; 0x2c
    tmp.value = ta;
 8003fb8:	6afb      	ldr	r3, [r7, #44]	; 0x2c
 8003fba:	61fb      	str	r3, [r7, #28]
    ma = qFIS_SMF( &tmp, p, n );
 8003fbc:	f107 0314 	add.w	r3, r7, #20
 8003fc0:	687a      	ldr	r2, [r7, #4]
 8003fc2:	68b9      	ldr	r1, [r7, #8]
 8003fc4:	4618      	mov	r0, r3
 8003fc6:	f7ff fd4c 	bl	8003a62 <qFIS_SMF>
 8003fca:	62b8      	str	r0, [r7, #40]	; 0x28
    tb = b + QLIB_SQRT( x*diff );
 8003fcc:	6b39      	ldr	r1, [r7, #48]	; 0x30
 8003fce:	6bf8      	ldr	r0, [r7, #60]	; 0x3c
 8003fd0:	f7fc fe88 	bl	8000ce4 <__aeabi_fmul>
 8003fd4:	4603      	mov	r3, r0
 8003fd6:	4618      	mov	r0, r3
 8003fd8:	f7fe f9e7 	bl	80023aa <qFFMath_Sqrt>
 8003fdc:	4603      	mov	r3, r0
 8003fde:	4619      	mov	r1, r3
 8003fe0:	6b78      	ldr	r0, [r7, #52]	; 0x34
 8003fe2:	f7fc fd77 	bl	8000ad4 <__addsf3>
 8003fe6:	4603      	mov	r3, r0
 8003fe8:	627b      	str	r3, [r7, #36]	; 0x24
    tmp.value = tb;
 8003fea:	6a7b      	ldr	r3, [r7, #36]	; 0x24
 8003fec:	61fb      	str	r3, [r7, #28]
    mb = qFIS_SMF( &tmp, p, n );
 8003fee:	f107 0314 	add.w	r3, r7, #20
 8003ff2:	687a      	ldr	r2, [r7, #4]
 8003ff4:	68b9      	ldr	r1, [r7, #8]
 8003ff6:	4618      	mov	r0, r3
 8003ff8:	f7ff fd33 	bl	8003a62 <qFIS_SMF>
 8003ffc:	6238      	str	r0, [r7, #32]
    /*cstat +MISRAC2012-Dir-4.11_a +MISRAC2012-Dir-4.11_b*/
    return  ( QLIB_ABS( x - ma ) < QLIB_ABS( x - mb ) ) ? ta : tb;
 8003ffe:	6ab9      	ldr	r1, [r7, #40]	; 0x28
 8004000:	6bf8      	ldr	r0, [r7, #60]	; 0x3c
 8004002:	f7fc fd65 	bl	8000ad0 <__aeabi_fsub>
 8004006:	4603      	mov	r3, r0
 8004008:	4618      	mov	r0, r3
 800400a:	f7fe f9b9 	bl	8002380 <qFFMath_Abs>
 800400e:	4604      	mov	r4, r0
 8004010:	6a39      	ldr	r1, [r7, #32]
 8004012:	6bf8      	ldr	r0, [r7, #60]	; 0x3c
 8004014:	f7fc fd5c 	bl	8000ad0 <__aeabi_fsub>
 8004018:	4603      	mov	r3, r0
 800401a:	4618      	mov	r0, r3
 800401c:	f7fe f9b0 	bl	8002380 <qFFMath_Abs>
 8004020:	4603      	mov	r3, r0
 8004022:	4619      	mov	r1, r3
 8004024:	4620      	mov	r0, r4
 8004026:	f7fc fffb 	bl	8001020 <__aeabi_fcmplt>
 800402a:	4603      	mov	r3, r0
 800402c:	2b00      	cmp	r3, #0
 800402e:	d001      	beq.n	8004034 <qFIS_TZMF+0xec>
 8004030:	6afb      	ldr	r3, [r7, #44]	; 0x2c
 8004032:	e000      	b.n	8004036 <qFIS_TZMF+0xee>
 8004034:	6a7b      	ldr	r3, [r7, #36]	; 0x24
}
 8004036:	4618      	mov	r0, r3
 8004038:	3744      	adds	r7, #68	; 0x44
 800403a:	46bd      	mov	sp, r7
 800403c:	bd90      	pop	{r4, r7, pc}

0800403e <qFIS_PiMF>:
/*============================================================================*/
static float qFIS_PiMF( const qFIS_IO_Base_t * const in,
                        const float *p,
                        const size_t n )
{
 800403e:	b590      	push	{r4, r7, lr}
 8004040:	b085      	sub	sp, #20
 8004042:	af00      	add	r7, sp, #0
 8004044:	60f8      	str	r0, [r7, #12]
 8004046:	60b9      	str	r1, [r7, #8]
 8004048:	607a      	str	r2, [r7, #4]
    return QLIB_ABS( qFIS_SMF( in , p, n )*qFIS_ZMF( in , &p[ 2 ], n ) );
 800404a:	687a      	ldr	r2, [r7, #4]
 800404c:	68b9      	ldr	r1, [r7, #8]
 800404e:	68f8      	ldr	r0, [r7, #12]
 8004050:	f7ff fd07 	bl	8003a62 <qFIS_SMF>
 8004054:	4604      	mov	r4, r0
 8004056:	68bb      	ldr	r3, [r7, #8]
 8004058:	3308      	adds	r3, #8
 800405a:	687a      	ldr	r2, [r7, #4]
 800405c:	4619      	mov	r1, r3
 800405e:	68f8      	ldr	r0, [r7, #12]
 8004060:	f7ff fe1b 	bl	8003c9a <qFIS_ZMF>
 8004064:	4603      	mov	r3, r0
 8004066:	4619      	mov	r1, r3
 8004068:	4620      	mov	r0, r4
 800406a:	f7fc fe3b 	bl	8000ce4 <__aeabi_fmul>
 800406e:	4603      	mov	r3, r0
 8004070:	4618      	mov	r0, r3
 8004072:	f7fe f985 	bl	8002380 <qFFMath_Abs>
 8004076:	4603      	mov	r3, r0
}
 8004078:	4618      	mov	r0, r3
 800407a:	3714      	adds	r7, #20
 800407c:	46bd      	mov	sp, r7
 800407e:	bd90      	pop	{r4, r7, pc}

08004080 <qFIS_SingletonMF>:
/*============================================================================*/
static float qFIS_SingletonMF( const qFIS_IO_Base_t * const in,
                               const float *p,
                               const size_t n )
{
 8004080:	b580      	push	{r7, lr}
 8004082:	b086      	sub	sp, #24
 8004084:	af00      	add	r7, sp, #0
 8004086:	60f8      	str	r0, [r7, #12]
 8004088:	60b9      	str	r1, [r7, #8]
 800408a:	607a      	str	r2, [r7, #4]
    float x = in[ 0 ].value;
 800408c:	68fb      	ldr	r3, [r7, #12]
 800408e:	689b      	ldr	r3, [r3, #8]
 8004090:	617b      	str	r3, [r7, #20]
    (void)n;

    return ( qFMathEx_Equal( x, p[ 0 ] ) ) ? 1.0f : 0.0f;
 8004092:	68bb      	ldr	r3, [r7, #8]
 8004094:	681b      	ldr	r3, [r3, #0]
 8004096:	4619      	mov	r1, r3
 8004098:	6978      	ldr	r0, [r7, #20]
 800409a:	f000 faf2 	bl	8004682 <qFMathEx_Equal>
 800409e:	4603      	mov	r3, r0
 80040a0:	2b00      	cmp	r3, #0
 80040a2:	d002      	beq.n	80040aa <qFIS_SingletonMF+0x2a>
 80040a4:	f04f 537e 	mov.w	r3, #1065353216	; 0x3f800000
 80040a8:	e001      	b.n	80040ae <qFIS_SingletonMF+0x2e>
 80040aa:	f04f 0300 	mov.w	r3, #0
}
 80040ae:	4618      	mov	r0, r3
 80040b0:	3718      	adds	r7, #24
 80040b2:	46bd      	mov	sp, r7
 80040b4:	bd80      	pop	{r7, pc}

080040b6 <qFIS_ConcaveMF>:
/*============================================================================*/
static float qFIS_ConcaveMF( const qFIS_IO_Base_t * const in,
                             const float *p,
                             const size_t n )
{
 80040b6:	b590      	push	{r4, r7, lr}
 80040b8:	b089      	sub	sp, #36	; 0x24
 80040ba:	af00      	add	r7, sp, #0
 80040bc:	60f8      	str	r0, [r7, #12]
 80040be:	60b9      	str	r1, [r7, #8]
 80040c0:	607a      	str	r2, [r7, #4]
    float x = in[ 0 ].value;
 80040c2:	68fb      	ldr	r3, [r7, #12]
 80040c4:	689b      	ldr	r3, [r3, #8]
 80040c6:	61bb      	str	r3, [r7, #24]
    float i, e, y;
    (void)n;

    i = p[ 0 ];
 80040c8:	68bb      	ldr	r3, [r7, #8]
 80040ca:	681b      	ldr	r3, [r3, #0]
 80040cc:	617b      	str	r3, [r7, #20]
    e = p[ 1 ];
 80040ce:	68bb      	ldr	r3, [r7, #8]
 80040d0:	685b      	ldr	r3, [r3, #4]
 80040d2:	613b      	str	r3, [r7, #16]
    if ( ( i <= e ) && ( x < e ) ) {
 80040d4:	6939      	ldr	r1, [r7, #16]
 80040d6:	6978      	ldr	r0, [r7, #20]
 80040d8:	f7fc ffac 	bl	8001034 <__aeabi_fcmple>
 80040dc:	4603      	mov	r3, r0
 80040de:	2b00      	cmp	r3, #0
 80040e0:	d023      	beq.n	800412a <qFIS_ConcaveMF+0x74>
 80040e2:	6939      	ldr	r1, [r7, #16]
 80040e4:	69b8      	ldr	r0, [r7, #24]
 80040e6:	f7fc ff9b 	bl	8001020 <__aeabi_fcmplt>
 80040ea:	4603      	mov	r3, r0
 80040ec:	2b00      	cmp	r3, #0
 80040ee:	d01c      	beq.n	800412a <qFIS_ConcaveMF+0x74>
        y = ( e - i )/( ( 2.0f*e ) - i -x );
 80040f0:	6979      	ldr	r1, [r7, #20]
 80040f2:	6938      	ldr	r0, [r7, #16]
 80040f4:	f7fc fcec 	bl	8000ad0 <__aeabi_fsub>
 80040f8:	4603      	mov	r3, r0
 80040fa:	461c      	mov	r4, r3
 80040fc:	693b      	ldr	r3, [r7, #16]
 80040fe:	4619      	mov	r1, r3
 8004100:	4618      	mov	r0, r3
 8004102:	f7fc fce7 	bl	8000ad4 <__addsf3>
 8004106:	4603      	mov	r3, r0
 8004108:	6979      	ldr	r1, [r7, #20]
 800410a:	4618      	mov	r0, r3
 800410c:	f7fc fce0 	bl	8000ad0 <__aeabi_fsub>
 8004110:	4603      	mov	r3, r0
 8004112:	69b9      	ldr	r1, [r7, #24]
 8004114:	4618      	mov	r0, r3
 8004116:	f7fc fcdb 	bl	8000ad0 <__aeabi_fsub>
 800411a:	4603      	mov	r3, r0
 800411c:	4619      	mov	r1, r3
 800411e:	4620      	mov	r0, r4
 8004120:	f7fc fe94 	bl	8000e4c <__aeabi_fdiv>
 8004124:	4603      	mov	r3, r0
 8004126:	61fb      	str	r3, [r7, #28]
 8004128:	e02d      	b.n	8004186 <qFIS_ConcaveMF+0xd0>
    }
    else if ( ( i > e ) && ( x > e ) ) {
 800412a:	6939      	ldr	r1, [r7, #16]
 800412c:	6978      	ldr	r0, [r7, #20]
 800412e:	f7fc ff95 	bl	800105c <__aeabi_fcmpgt>
 8004132:	4603      	mov	r3, r0
 8004134:	2b00      	cmp	r3, #0
 8004136:	d023      	beq.n	8004180 <qFIS_ConcaveMF+0xca>
 8004138:	6939      	ldr	r1, [r7, #16]
 800413a:	69b8      	ldr	r0, [r7, #24]
 800413c:	f7fc ff8e 	bl	800105c <__aeabi_fcmpgt>
 8004140:	4603      	mov	r3, r0
 8004142:	2b00      	cmp	r3, #0
 8004144:	d01c      	beq.n	8004180 <qFIS_ConcaveMF+0xca>
        y = ( i - e )/( -( 2.0f*e ) + i +x );
 8004146:	6939      	ldr	r1, [r7, #16]
 8004148:	6978      	ldr	r0, [r7, #20]
 800414a:	f7fc fcc1 	bl	8000ad0 <__aeabi_fsub>
 800414e:	4603      	mov	r3, r0
 8004150:	461c      	mov	r4, r3
 8004152:	693b      	ldr	r3, [r7, #16]
 8004154:	4619      	mov	r1, r3
 8004156:	4618      	mov	r0, r3
 8004158:	f7fc fcbc 	bl	8000ad4 <__addsf3>
 800415c:	4603      	mov	r3, r0
 800415e:	4619      	mov	r1, r3
 8004160:	6978      	ldr	r0, [r7, #20]
 8004162:	f7fc fcb5 	bl	8000ad0 <__aeabi_fsub>
 8004166:	4603      	mov	r3, r0
 8004168:	69b9      	ldr	r1, [r7, #24]
 800416a:	4618      	mov	r0, r3
 800416c:	f7fc fcb2 	bl	8000ad4 <__addsf3>
 8004170:	4603      	mov	r3, r0
 8004172:	4619      	mov	r1, r3
 8004174:	4620      	mov	r0, r4
 8004176:	f7fc fe69 	bl	8000e4c <__aeabi_fdiv>
 800417a:	4603      	mov	r3, r0
 800417c:	61fb      	str	r3, [r7, #28]
 800417e:	e002      	b.n	8004186 <qFIS_ConcaveMF+0xd0>
    }
    else {
        y = 1.0f;
 8004180:	f04f 537e 	mov.w	r3, #1065353216	; 0x3f800000
 8004184:	61fb      	str	r3, [r7, #28]
    }

    return y;
 8004186:	69fb      	ldr	r3, [r7, #28]
}
 8004188:	4618      	mov	r0, r3
 800418a:	3724      	adds	r7, #36	; 0x24
 800418c:	46bd      	mov	sp, r7
 800418e:	bd90      	pop	{r4, r7, pc}

08004190 <qFIS_TConcaveMF>:
/*============================================================================*/
static float qFIS_TConcaveMF( const qFIS_IO_Base_t * const in,
                              const float *p,
                              const size_t n )
{
 8004190:	b590      	push	{r4, r7, lr}
 8004192:	b087      	sub	sp, #28
 8004194:	af00      	add	r7, sp, #0
 8004196:	60f8      	str	r0, [r7, #12]
 8004198:	60b9      	str	r1, [r7, #8]
 800419a:	607a      	str	r2, [r7, #4]
    float i, e;

    i = p[ 0 ];
 800419c:	68bb      	ldr	r3, [r7, #8]
 800419e:	681b      	ldr	r3, [r3, #0]
 80041a0:	617b      	str	r3, [r7, #20]
    e = p[ 1 ];
 80041a2:	68bb      	ldr	r3, [r7, #8]
 80041a4:	685b      	ldr	r3, [r3, #4]
 80041a6:	613b      	str	r3, [r7, #16]

    return ( ( i - e )/qFIS_ConcaveMF( in, p, n ) ) + ( 2.0f*e ) - i;
 80041a8:	6939      	ldr	r1, [r7, #16]
 80041aa:	6978      	ldr	r0, [r7, #20]
 80041ac:	f7fc fc90 	bl	8000ad0 <__aeabi_fsub>
 80041b0:	4603      	mov	r3, r0
 80041b2:	461c      	mov	r4, r3
 80041b4:	687a      	ldr	r2, [r7, #4]
 80041b6:	68b9      	ldr	r1, [r7, #8]
 80041b8:	68f8      	ldr	r0, [r7, #12]
 80041ba:	f7ff ff7c 	bl	80040b6 <qFIS_ConcaveMF>
 80041be:	4603      	mov	r3, r0
 80041c0:	4619      	mov	r1, r3
 80041c2:	4620      	mov	r0, r4
 80041c4:	f7fc fe42 	bl	8000e4c <__aeabi_fdiv>
 80041c8:	4603      	mov	r3, r0
 80041ca:	461c      	mov	r4, r3
 80041cc:	693b      	ldr	r3, [r7, #16]
 80041ce:	4619      	mov	r1, r3
 80041d0:	4618      	mov	r0, r3
 80041d2:	f7fc fc7f 	bl	8000ad4 <__addsf3>
 80041d6:	4603      	mov	r3, r0
 80041d8:	4619      	mov	r1, r3
 80041da:	4620      	mov	r0, r4
 80041dc:	f7fc fc7a 	bl	8000ad4 <__addsf3>
 80041e0:	4603      	mov	r3, r0
 80041e2:	6979      	ldr	r1, [r7, #20]
 80041e4:	4618      	mov	r0, r3
 80041e6:	f7fc fc73 	bl	8000ad0 <__aeabi_fsub>
 80041ea:	4603      	mov	r3, r0
}
 80041ec:	4618      	mov	r0, r3
 80041ee:	371c      	adds	r7, #28
 80041f0:	46bd      	mov	sp, r7
 80041f2:	bd90      	pop	{r4, r7, pc}

080041f4 <qFIS_SpikeMF>:
/*============================================================================*/
static float qFIS_SpikeMF( const qFIS_IO_Base_t * const in,
                           const float *p,
                           const size_t n )
{
 80041f4:	b580      	push	{r7, lr}
 80041f6:	b088      	sub	sp, #32
 80041f8:	af00      	add	r7, sp, #0
 80041fa:	60f8      	str	r0, [r7, #12]
 80041fc:	60b9      	str	r1, [r7, #8]
 80041fe:	607a      	str	r2, [r7, #4]
    float x = in[ 0 ].value;
 8004200:	68fb      	ldr	r3, [r7, #12]
 8004202:	689b      	ldr	r3, [r3, #8]
 8004204:	61fb      	str	r3, [r7, #28]
    float w, c;
    (void)n;

    w = p[ 0 ];
 8004206:	68bb      	ldr	r3, [r7, #8]
 8004208:	681b      	ldr	r3, [r3, #0]
 800420a:	61bb      	str	r3, [r7, #24]
    c = p[ 1 ];
 800420c:	68bb      	ldr	r3, [r7, #8]
 800420e:	685b      	ldr	r3, [r3, #4]
 8004210:	617b      	str	r3, [r7, #20]

    return QLIB_EXP( -QLIB_ABS( 10.0f*( x - c )/w ) );
 8004212:	6979      	ldr	r1, [r7, #20]
 8004214:	69f8      	ldr	r0, [r7, #28]
 8004216:	f7fc fc5b 	bl	8000ad0 <__aeabi_fsub>
 800421a:	4603      	mov	r3, r0
 800421c:	490b      	ldr	r1, [pc, #44]	; (800424c <qFIS_SpikeMF+0x58>)
 800421e:	4618      	mov	r0, r3
 8004220:	f7fc fd60 	bl	8000ce4 <__aeabi_fmul>
 8004224:	4603      	mov	r3, r0
 8004226:	69b9      	ldr	r1, [r7, #24]
 8004228:	4618      	mov	r0, r3
 800422a:	f7fc fe0f 	bl	8000e4c <__aeabi_fdiv>
 800422e:	4603      	mov	r3, r0
 8004230:	4618      	mov	r0, r3
 8004232:	f7fe f8a5 	bl	8002380 <qFFMath_Abs>
 8004236:	4603      	mov	r3, r0
 8004238:	f083 4300 	eor.w	r3, r3, #2147483648	; 0x80000000
 800423c:	4618      	mov	r0, r3
 800423e:	f7fe fa29 	bl	8002694 <qFFMath_Exp>
 8004242:	4603      	mov	r3, r0
}
 8004244:	4618      	mov	r0, r3
 8004246:	3720      	adds	r7, #32
 8004248:	46bd      	mov	sp, r7
 800424a:	bd80      	pop	{r7, pc}
 800424c:	41200000 	.word	0x41200000

08004250 <qFIS_TLinSMF>:
/*============================================================================*/
static float qFIS_TLinSMF( const qFIS_IO_Base_t * const in,
                           const float *p,
                           const size_t n )
{
 8004250:	b580      	push	{r7, lr}
 8004252:	b088      	sub	sp, #32
 8004254:	af00      	add	r7, sp, #0
 8004256:	60f8      	str	r0, [r7, #12]
 8004258:	60b9      	str	r1, [r7, #8]
 800425a:	607a      	str	r2, [r7, #4]
    float x = in[ 0 ].value;
 800425c:	68fb      	ldr	r3, [r7, #12]
 800425e:	689b      	ldr	r3, [r3, #8]
 8004260:	61fb      	str	r3, [r7, #28]
    float a, b;
    (void)n;

    a = p[ 0 ];
 8004262:	68bb      	ldr	r3, [r7, #8]
 8004264:	681b      	ldr	r3, [r3, #0]
 8004266:	61bb      	str	r3, [r7, #24]
    b = p[ 1 ];
 8004268:	68bb      	ldr	r3, [r7, #8]
 800426a:	685b      	ldr	r3, [r3, #4]
 800426c:	617b      	str	r3, [r7, #20]

    return ( ( b - a )*x ) + a;
 800426e:	69b9      	ldr	r1, [r7, #24]
 8004270:	6978      	ldr	r0, [r7, #20]
 8004272:	f7fc fc2d 	bl	8000ad0 <__aeabi_fsub>
 8004276:	4603      	mov	r3, r0
 8004278:	69f9      	ldr	r1, [r7, #28]
 800427a:	4618      	mov	r0, r3
 800427c:	f7fc fd32 	bl	8000ce4 <__aeabi_fmul>
 8004280:	4603      	mov	r3, r0
 8004282:	69b9      	ldr	r1, [r7, #24]
 8004284:	4618      	mov	r0, r3
 8004286:	f7fc fc25 	bl	8000ad4 <__addsf3>
 800428a:	4603      	mov	r3, r0
}
 800428c:	4618      	mov	r0, r3
 800428e:	3720      	adds	r7, #32
 8004290:	46bd      	mov	sp, r7
 8004292:	bd80      	pop	{r7, pc}

08004294 <qFIS_TLinZMF>:
/*============================================================================*/
static float qFIS_TLinZMF( const qFIS_IO_Base_t * const in,
                           const float *p,
                           const size_t n )
{
 8004294:	b580      	push	{r7, lr}
 8004296:	b088      	sub	sp, #32
 8004298:	af00      	add	r7, sp, #0
 800429a:	60f8      	str	r0, [r7, #12]
 800429c:	60b9      	str	r1, [r7, #8]
 800429e:	607a      	str	r2, [r7, #4]
    float x = in[ 0 ].value;
 80042a0:	68fb      	ldr	r3, [r7, #12]
 80042a2:	689b      	ldr	r3, [r3, #8]
 80042a4:	61fb      	str	r3, [r7, #28]
    float a, b;
    (void)n;

    a = p[ 0 ];
 80042a6:	68bb      	ldr	r3, [r7, #8]
 80042a8:	681b      	ldr	r3, [r3, #0]
 80042aa:	61bb      	str	r3, [r7, #24]
    b = p[ 1 ];
 80042ac:	68bb      	ldr	r3, [r7, #8]
 80042ae:	685b      	ldr	r3, [r3, #4]
 80042b0:	617b      	str	r3, [r7, #20]

    return + a - ( ( a - b )*x );
 80042b2:	6979      	ldr	r1, [r7, #20]
 80042b4:	69b8      	ldr	r0, [r7, #24]
 80042b6:	f7fc fc0b 	bl	8000ad0 <__aeabi_fsub>
 80042ba:	4603      	mov	r3, r0
 80042bc:	69f9      	ldr	r1, [r7, #28]
 80042be:	4618      	mov	r0, r3
 80042c0:	f7fc fd10 	bl	8000ce4 <__aeabi_fmul>
 80042c4:	4603      	mov	r3, r0
 80042c6:	4619      	mov	r1, r3
 80042c8:	69b8      	ldr	r0, [r7, #24]
 80042ca:	f7fc fc01 	bl	8000ad0 <__aeabi_fsub>
 80042ce:	4603      	mov	r3, r0
}
 80042d0:	4618      	mov	r0, r3
 80042d2:	3720      	adds	r7, #32
 80042d4:	46bd      	mov	sp, r7
 80042d6:	bd80      	pop	{r7, pc}

080042d8 <qFIS_RectangleMF>:
/*============================================================================*/
static float qFIS_RectangleMF( const qFIS_IO_Base_t * const in,
                               const float *p,
                               const size_t n )
{
 80042d8:	b580      	push	{r7, lr}
 80042da:	b088      	sub	sp, #32
 80042dc:	af00      	add	r7, sp, #0
 80042de:	60f8      	str	r0, [r7, #12]
 80042e0:	60b9      	str	r1, [r7, #8]
 80042e2:	607a      	str	r2, [r7, #4]
    float x = in[ 0 ].value;
 80042e4:	68fb      	ldr	r3, [r7, #12]
 80042e6:	689b      	ldr	r3, [r3, #8]
 80042e8:	61fb      	str	r3, [r7, #28]
    float s, e;
    (void)n;

    s = p[ 0 ];
 80042ea:	68bb      	ldr	r3, [r7, #8]
 80042ec:	681b      	ldr	r3, [r3, #0]
 80042ee:	61bb      	str	r3, [r7, #24]
    e = p[ 1 ];
 80042f0:	68bb      	ldr	r3, [r7, #8]
 80042f2:	685b      	ldr	r3, [r3, #4]
 80042f4:	617b      	str	r3, [r7, #20]

    return ( ( x >= s ) && ( x <= e ) ) ? 1.0f : 0.0f;
 80042f6:	69b9      	ldr	r1, [r7, #24]
 80042f8:	69f8      	ldr	r0, [r7, #28]
 80042fa:	f7fc fea5 	bl	8001048 <__aeabi_fcmpge>
 80042fe:	4603      	mov	r3, r0
 8004300:	2b00      	cmp	r3, #0
 8004302:	d009      	beq.n	8004318 <qFIS_RectangleMF+0x40>
 8004304:	6979      	ldr	r1, [r7, #20]
 8004306:	69f8      	ldr	r0, [r7, #28]
 8004308:	f7fc fe94 	bl	8001034 <__aeabi_fcmple>
 800430c:	4603      	mov	r3, r0
 800430e:	2b00      	cmp	r3, #0
 8004310:	d002      	beq.n	8004318 <qFIS_RectangleMF+0x40>
 8004312:	f04f 537e 	mov.w	r3, #1065353216	; 0x3f800000
 8004316:	e001      	b.n	800431c <qFIS_RectangleMF+0x44>
 8004318:	f04f 0300 	mov.w	r3, #0
}
 800431c:	4618      	mov	r0, r3
 800431e:	3720      	adds	r7, #32
 8004320:	46bd      	mov	sp, r7
 8004322:	bd80      	pop	{r7, pc}

08004324 <qFIS_CosineMF>:
/*============================================================================*/
static float qFIS_CosineMF( const qFIS_IO_Base_t * const in,
                            const float *p,
                            const size_t n )
{
 8004324:	e92d 43b0 	stmdb	sp!, {r4, r5, r7, r8, r9, lr}
 8004328:	b08a      	sub	sp, #40	; 0x28
 800432a:	af00      	add	r7, sp, #0
 800432c:	60f8      	str	r0, [r7, #12]
 800432e:	60b9      	str	r1, [r7, #8]
 8004330:	607a      	str	r2, [r7, #4]
    float x = in[ 0 ].value;
 8004332:	68fb      	ldr	r3, [r7, #12]
 8004334:	689b      	ldr	r3, [r3, #8]
 8004336:	623b      	str	r3, [r7, #32]
    float c, w, y;
    const float pi = 3.14159265358979323846f;
 8004338:	4b35      	ldr	r3, [pc, #212]	; (8004410 <qFIS_CosineMF+0xec>)
 800433a:	61fb      	str	r3, [r7, #28]
    (void)n;

    c = p[ 0 ];
 800433c:	68bb      	ldr	r3, [r7, #8]
 800433e:	681b      	ldr	r3, [r3, #0]
 8004340:	61bb      	str	r3, [r7, #24]
    w = p[ 1 ];
 8004342:	68bb      	ldr	r3, [r7, #8]
 8004344:	685b      	ldr	r3, [r3, #4]
 8004346:	617b      	str	r3, [r7, #20]
    if ( ( x < ( c - ( 0.5*w ) ) ) || ( x > ( c + ( 0.5f*w ) ) ) ) {
 8004348:	6a38      	ldr	r0, [r7, #32]
 800434a:	f7fc f865 	bl	8000418 <__aeabi_f2d>
 800434e:	4604      	mov	r4, r0
 8004350:	460d      	mov	r5, r1
 8004352:	69b8      	ldr	r0, [r7, #24]
 8004354:	f7fc f860 	bl	8000418 <__aeabi_f2d>
 8004358:	4680      	mov	r8, r0
 800435a:	4689      	mov	r9, r1
 800435c:	6978      	ldr	r0, [r7, #20]
 800435e:	f7fc f85b 	bl	8000418 <__aeabi_f2d>
 8004362:	f04f 0200 	mov.w	r2, #0
 8004366:	4b2b      	ldr	r3, [pc, #172]	; (8004414 <qFIS_CosineMF+0xf0>)
 8004368:	f7fc f8ae 	bl	80004c8 <__aeabi_dmul>
 800436c:	4602      	mov	r2, r0
 800436e:	460b      	mov	r3, r1
 8004370:	4640      	mov	r0, r8
 8004372:	4649      	mov	r1, r9
 8004374:	f7fb fef0 	bl	8000158 <__aeabi_dsub>
 8004378:	4602      	mov	r2, r0
 800437a:	460b      	mov	r3, r1
 800437c:	4620      	mov	r0, r4
 800437e:	4629      	mov	r1, r5
 8004380:	f7fc fb14 	bl	80009ac <__aeabi_dcmplt>
 8004384:	4603      	mov	r3, r0
 8004386:	2b00      	cmp	r3, #0
 8004388:	d111      	bne.n	80043ae <qFIS_CosineMF+0x8a>
 800438a:	f04f 517c 	mov.w	r1, #1056964608	; 0x3f000000
 800438e:	6978      	ldr	r0, [r7, #20]
 8004390:	f7fc fca8 	bl	8000ce4 <__aeabi_fmul>
 8004394:	4603      	mov	r3, r0
 8004396:	69b9      	ldr	r1, [r7, #24]
 8004398:	4618      	mov	r0, r3
 800439a:	f7fc fb9b 	bl	8000ad4 <__addsf3>
 800439e:	4603      	mov	r3, r0
 80043a0:	4619      	mov	r1, r3
 80043a2:	6a38      	ldr	r0, [r7, #32]
 80043a4:	f7fc fe5a 	bl	800105c <__aeabi_fcmpgt>
 80043a8:	4603      	mov	r3, r0
 80043aa:	2b00      	cmp	r3, #0
 80043ac:	d003      	beq.n	80043b6 <qFIS_CosineMF+0x92>
        y = 0.0f;
 80043ae:	f04f 0300 	mov.w	r3, #0
 80043b2:	627b      	str	r3, [r7, #36]	; 0x24
 80043b4:	e026      	b.n	8004404 <qFIS_CosineMF+0xe0>
    }
    else {
        y = 0.5f*( 1.0f + QLIB_COS( 2.0f/w*pi*( x - c) ) );
 80043b6:	6979      	ldr	r1, [r7, #20]
 80043b8:	f04f 4080 	mov.w	r0, #1073741824	; 0x40000000
 80043bc:	f7fc fd46 	bl	8000e4c <__aeabi_fdiv>
 80043c0:	4603      	mov	r3, r0
 80043c2:	69f9      	ldr	r1, [r7, #28]
 80043c4:	4618      	mov	r0, r3
 80043c6:	f7fc fc8d 	bl	8000ce4 <__aeabi_fmul>
 80043ca:	4603      	mov	r3, r0
 80043cc:	461c      	mov	r4, r3
 80043ce:	69b9      	ldr	r1, [r7, #24]
 80043d0:	6a38      	ldr	r0, [r7, #32]
 80043d2:	f7fc fb7d 	bl	8000ad0 <__aeabi_fsub>
 80043d6:	4603      	mov	r3, r0
 80043d8:	4619      	mov	r1, r3
 80043da:	4620      	mov	r0, r4
 80043dc:	f7fc fc82 	bl	8000ce4 <__aeabi_fmul>
 80043e0:	4603      	mov	r3, r0
 80043e2:	4618      	mov	r0, r3
 80043e4:	f7fe f872 	bl	80024cc <qFFMath_Cos>
 80043e8:	4603      	mov	r3, r0
 80043ea:	f04f 517e 	mov.w	r1, #1065353216	; 0x3f800000
 80043ee:	4618      	mov	r0, r3
 80043f0:	f7fc fb70 	bl	8000ad4 <__addsf3>
 80043f4:	4603      	mov	r3, r0
 80043f6:	f04f 517c 	mov.w	r1, #1056964608	; 0x3f000000
 80043fa:	4618      	mov	r0, r3
 80043fc:	f7fc fc72 	bl	8000ce4 <__aeabi_fmul>
 8004400:	4603      	mov	r3, r0
 8004402:	627b      	str	r3, [r7, #36]	; 0x24
    }

    return y;
 8004404:	6a7b      	ldr	r3, [r7, #36]	; 0x24
}
 8004406:	4618      	mov	r0, r3
 8004408:	3728      	adds	r7, #40	; 0x28
 800440a:	46bd      	mov	sp, r7
 800440c:	e8bd 83b0 	ldmia.w	sp!, {r4, r5, r7, r8, r9, pc}
 8004410:	40490fdb 	.word	0x40490fdb
 8004414:	3fe00000 	.word	0x3fe00000

08004418 <qFIS_ConstantMF>:
/*============================================================================*/
static float qFIS_ConstantMF( const qFIS_IO_Base_t * const in,
                              const float *p,
                              const size_t n )
{
 8004418:	b480      	push	{r7}
 800441a:	b085      	sub	sp, #20
 800441c:	af00      	add	r7, sp, #0
 800441e:	60f8      	str	r0, [r7, #12]
 8004420:	60b9      	str	r1, [r7, #8]
 8004422:	607a      	str	r2, [r7, #4]
    (void)in;
    (void)n;
    return p[ 0 ];
 8004424:	68bb      	ldr	r3, [r7, #8]
 8004426:	681b      	ldr	r3, [r3, #0]
}
 8004428:	4618      	mov	r0, r3
 800442a:	3714      	adds	r7, #20
 800442c:	46bd      	mov	sp, r7
 800442e:	bc80      	pop	{r7}
 8004430:	4770      	bx	lr

08004432 <qFIS_LinearMF>:
/*============================================================================*/
static float qFIS_LinearMF( const qFIS_IO_Base_t * const in,
                            const float *p,
                            const size_t n )
{
 8004432:	b580      	push	{r7, lr}
 8004434:	b086      	sub	sp, #24
 8004436:	af00      	add	r7, sp, #0
 8004438:	60f8      	str	r0, [r7, #12]
 800443a:	60b9      	str	r1, [r7, #8]
 800443c:	607a      	str	r2, [r7, #4]
    float px = 0.0f;
 800443e:	f04f 0300 	mov.w	r3, #0
 8004442:	617b      	str	r3, [r7, #20]
    size_t i;

    for ( i = 0u ; i < n ; ++i ) {
 8004444:	2300      	movs	r3, #0
 8004446:	613b      	str	r3, [r7, #16]
 8004448:	e01a      	b.n	8004480 <qFIS_LinearMF+0x4e>
        px += in[ i ].value*p[ i ];
 800444a:	693a      	ldr	r2, [r7, #16]
 800444c:	4613      	mov	r3, r2
 800444e:	005b      	lsls	r3, r3, #1
 8004450:	4413      	add	r3, r2
 8004452:	009b      	lsls	r3, r3, #2
 8004454:	461a      	mov	r2, r3
 8004456:	68fb      	ldr	r3, [r7, #12]
 8004458:	4413      	add	r3, r2
 800445a:	6898      	ldr	r0, [r3, #8]
 800445c:	693b      	ldr	r3, [r7, #16]
 800445e:	009b      	lsls	r3, r3, #2
 8004460:	68ba      	ldr	r2, [r7, #8]
 8004462:	4413      	add	r3, r2
 8004464:	681b      	ldr	r3, [r3, #0]
 8004466:	4619      	mov	r1, r3
 8004468:	f7fc fc3c 	bl	8000ce4 <__aeabi_fmul>
 800446c:	4603      	mov	r3, r0
 800446e:	4619      	mov	r1, r3
 8004470:	6978      	ldr	r0, [r7, #20]
 8004472:	f7fc fb2f 	bl	8000ad4 <__addsf3>
 8004476:	4603      	mov	r3, r0
 8004478:	617b      	str	r3, [r7, #20]
    for ( i = 0u ; i < n ; ++i ) {
 800447a:	693b      	ldr	r3, [r7, #16]
 800447c:	3301      	adds	r3, #1
 800447e:	613b      	str	r3, [r7, #16]
 8004480:	693a      	ldr	r2, [r7, #16]
 8004482:	687b      	ldr	r3, [r7, #4]
 8004484:	429a      	cmp	r2, r3
 8004486:	d3e0      	bcc.n	800444a <qFIS_LinearMF+0x18>
    }
    px += p[ i ];
 8004488:	693b      	ldr	r3, [r7, #16]
 800448a:	009b      	lsls	r3, r3, #2
 800448c:	68ba      	ldr	r2, [r7, #8]
 800448e:	4413      	add	r3, r2
 8004490:	681b      	ldr	r3, [r3, #0]
 8004492:	4619      	mov	r1, r3
 8004494:	6978      	ldr	r0, [r7, #20]
 8004496:	f7fc fb1d 	bl	8000ad4 <__addsf3>
 800449a:	4603      	mov	r3, r0
 800449c:	617b      	str	r3, [r7, #20]

    return px;
 800449e:	697b      	ldr	r3, [r7, #20]
}
 80044a0:	4618      	mov	r0, r3
 80044a2:	3718      	adds	r7, #24
 80044a4:	46bd      	mov	sp, r7
 80044a6:	bd80      	pop	{r7, pc}

080044a8 <qFIS_Min>:
/*============================================================================*/
static float qFIS_Min( const float a,
                       const float b )
{
 80044a8:	b580      	push	{r7, lr}
 80044aa:	b082      	sub	sp, #8
 80044ac:	af00      	add	r7, sp, #0
 80044ae:	6078      	str	r0, [r7, #4]
 80044b0:	6039      	str	r1, [r7, #0]
    return qFIS_Bound( ( a < b ) ? a : b, 0.0f, 1.0f );
 80044b2:	6839      	ldr	r1, [r7, #0]
 80044b4:	6878      	ldr	r0, [r7, #4]
 80044b6:	f7fc fdb3 	bl	8001020 <__aeabi_fcmplt>
 80044ba:	4603      	mov	r3, r0
 80044bc:	2b00      	cmp	r3, #0
 80044be:	d001      	beq.n	80044c4 <qFIS_Min+0x1c>
 80044c0:	687b      	ldr	r3, [r7, #4]
 80044c2:	e000      	b.n	80044c6 <qFIS_Min+0x1e>
 80044c4:	683b      	ldr	r3, [r7, #0]
 80044c6:	f04f 527e 	mov.w	r2, #1065353216	; 0x3f800000
 80044ca:	f04f 0100 	mov.w	r1, #0
 80044ce:	4618      	mov	r0, r3
 80044d0:	f000 f86d 	bl	80045ae <qFIS_Bound>
 80044d4:	4603      	mov	r3, r0
}
 80044d6:	4618      	mov	r0, r3
 80044d8:	3708      	adds	r7, #8
 80044da:	46bd      	mov	sp, r7
 80044dc:	bd80      	pop	{r7, pc}

080044de <qFIS_Max>:
/*============================================================================*/
static float qFIS_Max( const float a,
                       const float b )
{
 80044de:	b580      	push	{r7, lr}
 80044e0:	b082      	sub	sp, #8
 80044e2:	af00      	add	r7, sp, #0
 80044e4:	6078      	str	r0, [r7, #4]
 80044e6:	6039      	str	r1, [r7, #0]
    return qFIS_Bound( ( a > b ) ? a : b, 0.0f, 1.0f );
 80044e8:	6839      	ldr	r1, [r7, #0]
 80044ea:	6878      	ldr	r0, [r7, #4]
 80044ec:	f7fc fdb6 	bl	800105c <__aeabi_fcmpgt>
 80044f0:	4603      	mov	r3, r0
 80044f2:	2b00      	cmp	r3, #0
 80044f4:	d001      	beq.n	80044fa <qFIS_Max+0x1c>
 80044f6:	687b      	ldr	r3, [r7, #4]
 80044f8:	e000      	b.n	80044fc <qFIS_Max+0x1e>
 80044fa:	683b      	ldr	r3, [r7, #0]
 80044fc:	f04f 527e 	mov.w	r2, #1065353216	; 0x3f800000
 8004500:	f04f 0100 	mov.w	r1, #0
 8004504:	4618      	mov	r0, r3
 8004506:	f000 f852 	bl	80045ae <qFIS_Bound>
 800450a:	4603      	mov	r3, r0
}
 800450c:	4618      	mov	r0, r3
 800450e:	3708      	adds	r7, #8
 8004510:	46bd      	mov	sp, r7
 8004512:	bd80      	pop	{r7, pc}

08004514 <qFIS_Prod>:
/*============================================================================*/
static float qFIS_Prod( const float a,
                        const float b )
{
 8004514:	b580      	push	{r7, lr}
 8004516:	b082      	sub	sp, #8
 8004518:	af00      	add	r7, sp, #0
 800451a:	6078      	str	r0, [r7, #4]
 800451c:	6039      	str	r1, [r7, #0]
    return qFIS_Bound( a*b, 0.0f, 1.0f );
 800451e:	6839      	ldr	r1, [r7, #0]
 8004520:	6878      	ldr	r0, [r7, #4]
 8004522:	f7fc fbdf 	bl	8000ce4 <__aeabi_fmul>
 8004526:	4603      	mov	r3, r0
 8004528:	f04f 527e 	mov.w	r2, #1065353216	; 0x3f800000
 800452c:	f04f 0100 	mov.w	r1, #0
 8004530:	4618      	mov	r0, r3
 8004532:	f000 f83c 	bl	80045ae <qFIS_Bound>
 8004536:	4603      	mov	r3, r0
}
 8004538:	4618      	mov	r0, r3
 800453a:	3708      	adds	r7, #8
 800453c:	46bd      	mov	sp, r7
 800453e:	bd80      	pop	{r7, pc}

08004540 <qFIS_ProbOR>:
/*============================================================================*/
static float qFIS_ProbOR( const float a,
                          const float b )
{
 8004540:	b590      	push	{r4, r7, lr}
 8004542:	b083      	sub	sp, #12
 8004544:	af00      	add	r7, sp, #0
 8004546:	6078      	str	r0, [r7, #4]
 8004548:	6039      	str	r1, [r7, #0]
    return qFIS_Bound( a + b - ( a*b ), 0.0f, 1.0f );
 800454a:	6839      	ldr	r1, [r7, #0]
 800454c:	6878      	ldr	r0, [r7, #4]
 800454e:	f7fc fac1 	bl	8000ad4 <__addsf3>
 8004552:	4603      	mov	r3, r0
 8004554:	461c      	mov	r4, r3
 8004556:	6839      	ldr	r1, [r7, #0]
 8004558:	6878      	ldr	r0, [r7, #4]
 800455a:	f7fc fbc3 	bl	8000ce4 <__aeabi_fmul>
 800455e:	4603      	mov	r3, r0
 8004560:	4619      	mov	r1, r3
 8004562:	4620      	mov	r0, r4
 8004564:	f7fc fab4 	bl	8000ad0 <__aeabi_fsub>
 8004568:	4603      	mov	r3, r0
 800456a:	f04f 527e 	mov.w	r2, #1065353216	; 0x3f800000
 800456e:	f04f 0100 	mov.w	r1, #0
 8004572:	4618      	mov	r0, r3
 8004574:	f000 f81b 	bl	80045ae <qFIS_Bound>
 8004578:	4603      	mov	r3, r0
}
 800457a:	4618      	mov	r0, r3
 800457c:	370c      	adds	r7, #12
 800457e:	46bd      	mov	sp, r7
 8004580:	bd90      	pop	{r4, r7, pc}

08004582 <qFIS_Sum>:
/*============================================================================*/
static float qFIS_Sum( const float a,
                       const float b )
{
 8004582:	b580      	push	{r7, lr}
 8004584:	b082      	sub	sp, #8
 8004586:	af00      	add	r7, sp, #0
 8004588:	6078      	str	r0, [r7, #4]
 800458a:	6039      	str	r1, [r7, #0]
    return qFIS_Bound( a + b, 0.0f, 1.0f );
 800458c:	6839      	ldr	r1, [r7, #0]
 800458e:	6878      	ldr	r0, [r7, #4]
 8004590:	f7fc faa0 	bl	8000ad4 <__addsf3>
 8004594:	4603      	mov	r3, r0
 8004596:	f04f 527e 	mov.w	r2, #1065353216	; 0x3f800000
 800459a:	f04f 0100 	mov.w	r1, #0
 800459e:	4618      	mov	r0, r3
 80045a0:	f000 f805 	bl	80045ae <qFIS_Bound>
 80045a4:	4603      	mov	r3, r0
}
 80045a6:	4618      	mov	r0, r3
 80045a8:	3708      	adds	r7, #8
 80045aa:	46bd      	mov	sp, r7
 80045ac:	bd80      	pop	{r7, pc}

080045ae <qFIS_Bound>:
/*============================================================================*/
static float qFIS_Bound( float y,
                         const float yMin,
                         const float yMax )
{
 80045ae:	b580      	push	{r7, lr}
 80045b0:	b084      	sub	sp, #16
 80045b2:	af00      	add	r7, sp, #0
 80045b4:	60f8      	str	r0, [r7, #12]
 80045b6:	60b9      	str	r1, [r7, #8]
 80045b8:	607a      	str	r2, [r7, #4]
    (void)qFMathEx_InRangeCoerce( &y, yMin, yMax );
 80045ba:	f107 030c 	add.w	r3, r7, #12
 80045be:	687a      	ldr	r2, [r7, #4]
 80045c0:	68b9      	ldr	r1, [r7, #8]
 80045c2:	4618      	mov	r0, r3
 80045c4:	f000 f805 	bl	80045d2 <qFMathEx_InRangeCoerce>

    return y;
 80045c8:	68fb      	ldr	r3, [r7, #12]
}
 80045ca:	4618      	mov	r0, r3
 80045cc:	3710      	adds	r7, #16
 80045ce:	46bd      	mov	sp, r7
 80045d0:	bd80      	pop	{r7, pc}

080045d2 <qFMathEx_InRangeCoerce>:
}
/*============================================================================*/
bool qFMathEx_InRangeCoerce( float * const x,
                             const float lowerL,
                             const float upperL )
{
 80045d2:	b580      	push	{r7, lr}
 80045d4:	b086      	sub	sp, #24
 80045d6:	af00      	add	r7, sp, #0
 80045d8:	60f8      	str	r0, [r7, #12]
 80045da:	60b9      	str	r1, [r7, #8]
 80045dc:	607a      	str	r2, [r7, #4]
    bool retVal = false;
 80045de:	2300      	movs	r3, #0
 80045e0:	75fb      	strb	r3, [r7, #23]

    if ( 1 == (int)QLIB_ISNAN( x[ 0 ] ) ) {
 80045e2:	68fb      	ldr	r3, [r7, #12]
 80045e4:	681b      	ldr	r3, [r3, #0]
 80045e6:	4618      	mov	r0, r3
 80045e8:	f7fd feb9 	bl	800235e <qFFMath_IsNaN>
 80045ec:	4603      	mov	r3, r0
 80045ee:	2b00      	cmp	r3, #0
 80045f0:	d003      	beq.n	80045fa <qFMathEx_InRangeCoerce+0x28>
        x[ 0 ] = lowerL;
 80045f2:	68fb      	ldr	r3, [r7, #12]
 80045f4:	68ba      	ldr	r2, [r7, #8]
 80045f6:	601a      	str	r2, [r3, #0]
 80045f8:	e01b      	b.n	8004632 <qFMathEx_InRangeCoerce+0x60>
    }
    else {
        if ( x[ 0 ] < lowerL ) {
 80045fa:	68fb      	ldr	r3, [r7, #12]
 80045fc:	681b      	ldr	r3, [r3, #0]
 80045fe:	4619      	mov	r1, r3
 8004600:	68b8      	ldr	r0, [r7, #8]
 8004602:	f7fc fd2b 	bl	800105c <__aeabi_fcmpgt>
 8004606:	4603      	mov	r3, r0
 8004608:	2b00      	cmp	r3, #0
 800460a:	d003      	beq.n	8004614 <qFMathEx_InRangeCoerce+0x42>
            x[ 0 ] = lowerL;
 800460c:	68fb      	ldr	r3, [r7, #12]
 800460e:	68ba      	ldr	r2, [r7, #8]
 8004610:	601a      	str	r2, [r3, #0]
 8004612:	e00e      	b.n	8004632 <qFMathEx_InRangeCoerce+0x60>
        }
        else if ( x[ 0 ] > upperL ) {
 8004614:	68fb      	ldr	r3, [r7, #12]
 8004616:	681b      	ldr	r3, [r3, #0]
 8004618:	4619      	mov	r1, r3
 800461a:	6878      	ldr	r0, [r7, #4]
 800461c:	f7fc fd00 	bl	8001020 <__aeabi_fcmplt>
 8004620:	4603      	mov	r3, r0
 8004622:	2b00      	cmp	r3, #0
 8004624:	d003      	beq.n	800462e <qFMathEx_InRangeCoerce+0x5c>
            x[ 0 ] = upperL;
 8004626:	68fb      	ldr	r3, [r7, #12]
 8004628:	687a      	ldr	r2, [r7, #4]
 800462a:	601a      	str	r2, [r3, #0]
 800462c:	e001      	b.n	8004632 <qFMathEx_InRangeCoerce+0x60>
        }
        else {
            retVal = true;
 800462e:	2301      	movs	r3, #1
 8004630:	75fb      	strb	r3, [r7, #23]
        }
    }

    return retVal;
 8004632:	7dfb      	ldrb	r3, [r7, #23]
}
 8004634:	4618      	mov	r0, r3
 8004636:	3718      	adds	r7, #24
 8004638:	46bd      	mov	sp, r7
 800463a:	bd80      	pop	{r7, pc}

0800463c <qFMathEx_AlmostEqual>:
/*============================================================================*/
bool qFMathEx_AlmostEqual( const float a,
                           const float b,
                           const float tol )
{
 800463c:	b5b0      	push	{r4, r5, r7, lr}
 800463e:	b084      	sub	sp, #16
 8004640:	af00      	add	r7, sp, #0
 8004642:	60f8      	str	r0, [r7, #12]
 8004644:	60b9      	str	r1, [r7, #8]
 8004646:	607a      	str	r2, [r7, #4]
    return ( QLIB_ABS( a - b ) <= QLIB_ABS( tol ) );
 8004648:	68b9      	ldr	r1, [r7, #8]
 800464a:	68f8      	ldr	r0, [r7, #12]
 800464c:	f7fc fa40 	bl	8000ad0 <__aeabi_fsub>
 8004650:	4603      	mov	r3, r0
 8004652:	4618      	mov	r0, r3
 8004654:	f7fd fe94 	bl	8002380 <qFFMath_Abs>
 8004658:	4605      	mov	r5, r0
 800465a:	6878      	ldr	r0, [r7, #4]
 800465c:	f7fd fe90 	bl	8002380 <qFFMath_Abs>
 8004660:	4602      	mov	r2, r0
 8004662:	2301      	movs	r3, #1
 8004664:	461c      	mov	r4, r3
 8004666:	4611      	mov	r1, r2
 8004668:	4628      	mov	r0, r5
 800466a:	f7fc fce3 	bl	8001034 <__aeabi_fcmple>
 800466e:	4603      	mov	r3, r0
 8004670:	2b00      	cmp	r3, #0
 8004672:	d101      	bne.n	8004678 <qFMathEx_AlmostEqual+0x3c>
 8004674:	2300      	movs	r3, #0
 8004676:	461c      	mov	r4, r3
 8004678:	b2e3      	uxtb	r3, r4
}
 800467a:	4618      	mov	r0, r3
 800467c:	3710      	adds	r7, #16
 800467e:	46bd      	mov	sp, r7
 8004680:	bdb0      	pop	{r4, r5, r7, pc}

08004682 <qFMathEx_Equal>:
/*============================================================================*/
bool qFMathEx_Equal( const float a,
                     const float b )
{
 8004682:	b580      	push	{r7, lr}
 8004684:	b082      	sub	sp, #8
 8004686:	af00      	add	r7, sp, #0
 8004688:	6078      	str	r0, [r7, #4]
 800468a:	6039      	str	r1, [r7, #0]
    return qFMathEx_AlmostEqual( a, b, FLT_MIN );
 800468c:	f44f 0200 	mov.w	r2, #8388608	; 0x800000
 8004690:	6839      	ldr	r1, [r7, #0]
 8004692:	6878      	ldr	r0, [r7, #4]
 8004694:	f7ff ffd2 	bl	800463c <qFMathEx_AlmostEqual>
 8004698:	4603      	mov	r3, r0
}
 800469a:	4618      	mov	r0, r3
 800469c:	3708      	adds	r7, #8
 800469e:	46bd      	mov	sp, r7
 80046a0:	bd80      	pop	{r7, pc}
	...

080046a4 <HAL_MspInit>:
void HAL_TIM_MspPostInit(TIM_HandleTypeDef *htim);
                                        /**
  * Initializes the Global MSP.
  */
void HAL_MspInit(void)
{
 80046a4:	b480      	push	{r7}
 80046a6:	b085      	sub	sp, #20
 80046a8:	af00      	add	r7, sp, #0
  /* USER CODE BEGIN MspInit 0 */

  /* USER CODE END MspInit 0 */

  __HAL_RCC_AFIO_CLK_ENABLE();
 80046aa:	4b15      	ldr	r3, [pc, #84]	; (8004700 <HAL_MspInit+0x5c>)
 80046ac:	699b      	ldr	r3, [r3, #24]
 80046ae:	4a14      	ldr	r2, [pc, #80]	; (8004700 <HAL_MspInit+0x5c>)
 80046b0:	f043 0301 	orr.w	r3, r3, #1
 80046b4:	6193      	str	r3, [r2, #24]
 80046b6:	4b12      	ldr	r3, [pc, #72]	; (8004700 <HAL_MspInit+0x5c>)
 80046b8:	699b      	ldr	r3, [r3, #24]
 80046ba:	f003 0301 	and.w	r3, r3, #1
 80046be:	60bb      	str	r3, [r7, #8]
 80046c0:	68bb      	ldr	r3, [r7, #8]
  __HAL_RCC_PWR_CLK_ENABLE();
 80046c2:	4b0f      	ldr	r3, [pc, #60]	; (8004700 <HAL_MspInit+0x5c>)
 80046c4:	69db      	ldr	r3, [r3, #28]
 80046c6:	4a0e      	ldr	r2, [pc, #56]	; (8004700 <HAL_MspInit+0x5c>)
 80046c8:	f043 5380 	orr.w	r3, r3, #268435456	; 0x10000000
 80046cc:	61d3      	str	r3, [r2, #28]
 80046ce:	4b0c      	ldr	r3, [pc, #48]	; (8004700 <HAL_MspInit+0x5c>)
 80046d0:	69db      	ldr	r3, [r3, #28]
 80046d2:	f003 5380 	and.w	r3, r3, #268435456	; 0x10000000
 80046d6:	607b      	str	r3, [r7, #4]
 80046d8:	687b      	ldr	r3, [r7, #4]

  /* System interrupt init*/

  /** NOJTAG: JTAG-DP Disabled and SW-DP Enabled
  */
  __HAL_AFIO_REMAP_SWJ_NOJTAG();
 80046da:	4b0a      	ldr	r3, [pc, #40]	; (8004704 <HAL_MspInit+0x60>)
 80046dc:	685b      	ldr	r3, [r3, #4]
 80046de:	60fb      	str	r3, [r7, #12]
 80046e0:	68fb      	ldr	r3, [r7, #12]
 80046e2:	f023 63e0 	bic.w	r3, r3, #117440512	; 0x7000000
 80046e6:	60fb      	str	r3, [r7, #12]
 80046e8:	68fb      	ldr	r3, [r7, #12]
 80046ea:	f043 7300 	orr.w	r3, r3, #33554432	; 0x2000000
 80046ee:	60fb      	str	r3, [r7, #12]
 80046f0:	4a04      	ldr	r2, [pc, #16]	; (8004704 <HAL_MspInit+0x60>)
 80046f2:	68fb      	ldr	r3, [r7, #12]
 80046f4:	6053      	str	r3, [r2, #4]

  /* USER CODE BEGIN MspInit 1 */

  /* USER CODE END MspInit 1 */
}
 80046f6:	bf00      	nop
 80046f8:	3714      	adds	r7, #20
 80046fa:	46bd      	mov	sp, r7
 80046fc:	bc80      	pop	{r7}
 80046fe:	4770      	bx	lr
 8004700:	40021000 	.word	0x40021000
 8004704:	40010000 	.word	0x40010000

08004708 <HAL_I2C_MspInit>:
* This function configures the hardware resources used in this example
* @param hi2c: I2C handle pointer
* @retval None
*/
void HAL_I2C_MspInit(I2C_HandleTypeDef* hi2c)
{
 8004708:	b580      	push	{r7, lr}
 800470a:	b08a      	sub	sp, #40	; 0x28
 800470c:	af00      	add	r7, sp, #0
 800470e:	6078      	str	r0, [r7, #4]
  GPIO_InitTypeDef GPIO_InitStruct = {0};
 8004710:	f107 0314 	add.w	r3, r7, #20
 8004714:	2200      	movs	r2, #0
 8004716:	601a      	str	r2, [r3, #0]
 8004718:	605a      	str	r2, [r3, #4]
 800471a:	609a      	str	r2, [r3, #8]
 800471c:	60da      	str	r2, [r3, #12]
  if(hi2c->Instance==I2C1)
 800471e:	687b      	ldr	r3, [r7, #4]
 8004720:	681b      	ldr	r3, [r3, #0]
 8004722:	4a1d      	ldr	r2, [pc, #116]	; (8004798 <HAL_I2C_MspInit+0x90>)
 8004724:	4293      	cmp	r3, r2
 8004726:	d132      	bne.n	800478e <HAL_I2C_MspInit+0x86>
  {
  /* USER CODE BEGIN I2C1_MspInit 0 */

  /* USER CODE END I2C1_MspInit 0 */

    __HAL_RCC_GPIOB_CLK_ENABLE();
 8004728:	4b1c      	ldr	r3, [pc, #112]	; (800479c <HAL_I2C_MspInit+0x94>)
 800472a:	699b      	ldr	r3, [r3, #24]
 800472c:	4a1b      	ldr	r2, [pc, #108]	; (800479c <HAL_I2C_MspInit+0x94>)
 800472e:	f043 0308 	orr.w	r3, r3, #8
 8004732:	6193      	str	r3, [r2, #24]
 8004734:	4b19      	ldr	r3, [pc, #100]	; (800479c <HAL_I2C_MspInit+0x94>)
 8004736:	699b      	ldr	r3, [r3, #24]
 8004738:	f003 0308 	and.w	r3, r3, #8
 800473c:	613b      	str	r3, [r7, #16]
 800473e:	693b      	ldr	r3, [r7, #16]
    /**I2C1 GPIO Configuration
    PB8     ------> I2C1_SCL
    PB9     ------> I2C1_SDA
    */
    GPIO_InitStruct.Pin = GPIO_PIN_8|GPIO_PIN_9;
 8004740:	f44f 7340 	mov.w	r3, #768	; 0x300
 8004744:	617b      	str	r3, [r7, #20]
    GPIO_InitStruct.Mode = GPIO_MODE_AF_OD;
 8004746:	2312      	movs	r3, #18
 8004748:	61bb      	str	r3, [r7, #24]
    GPIO_InitStruct.Speed = GPIO_SPEED_FREQ_HIGH;
 800474a:	2303      	movs	r3, #3
 800474c:	623b      	str	r3, [r7, #32]
    HAL_GPIO_Init(GPIOB, &GPIO_InitStruct);
 800474e:	f107 0314 	add.w	r3, r7, #20
 8004752:	4619      	mov	r1, r3
 8004754:	4812      	ldr	r0, [pc, #72]	; (80047a0 <HAL_I2C_MspInit+0x98>)
 8004756:	f000 fbc1 	bl	8004edc <HAL_GPIO_Init>

    __HAL_AFIO_REMAP_I2C1_ENABLE();
 800475a:	4b12      	ldr	r3, [pc, #72]	; (80047a4 <HAL_I2C_MspInit+0x9c>)
 800475c:	685b      	ldr	r3, [r3, #4]
 800475e:	627b      	str	r3, [r7, #36]	; 0x24
 8004760:	6a7b      	ldr	r3, [r7, #36]	; 0x24
 8004762:	f043 63e0 	orr.w	r3, r3, #117440512	; 0x7000000
 8004766:	627b      	str	r3, [r7, #36]	; 0x24
 8004768:	6a7b      	ldr	r3, [r7, #36]	; 0x24
 800476a:	f043 0302 	orr.w	r3, r3, #2
 800476e:	627b      	str	r3, [r7, #36]	; 0x24
 8004770:	4a0c      	ldr	r2, [pc, #48]	; (80047a4 <HAL_I2C_MspInit+0x9c>)
 8004772:	6a7b      	ldr	r3, [r7, #36]	; 0x24
 8004774:	6053      	str	r3, [r2, #4]

    /* Peripheral clock enable */
    __HAL_RCC_I2C1_CLK_ENABLE();
 8004776:	4b09      	ldr	r3, [pc, #36]	; (800479c <HAL_I2C_MspInit+0x94>)
 8004778:	69db      	ldr	r3, [r3, #28]
 800477a:	4a08      	ldr	r2, [pc, #32]	; (800479c <HAL_I2C_MspInit+0x94>)
 800477c:	f443 1300 	orr.w	r3, r3, #2097152	; 0x200000
 8004780:	61d3      	str	r3, [r2, #28]
 8004782:	4b06      	ldr	r3, [pc, #24]	; (800479c <HAL_I2C_MspInit+0x94>)
 8004784:	69db      	ldr	r3, [r3, #28]
 8004786:	f403 1300 	and.w	r3, r3, #2097152	; 0x200000
 800478a:	60fb      	str	r3, [r7, #12]
 800478c:	68fb      	ldr	r3, [r7, #12]
  /* USER CODE BEGIN I2C1_MspInit 1 */

  /* USER CODE END I2C1_MspInit 1 */
  }

}
 800478e:	bf00      	nop
 8004790:	3728      	adds	r7, #40	; 0x28
 8004792:	46bd      	mov	sp, r7
 8004794:	bd80      	pop	{r7, pc}
 8004796:	bf00      	nop
 8004798:	40005400 	.word	0x40005400
 800479c:	40021000 	.word	0x40021000
 80047a0:	40010c00 	.word	0x40010c00
 80047a4:	40010000 	.word	0x40010000

080047a8 <HAL_TIM_Base_MspInit>:
* This function configures the hardware resources used in this example
* @param htim_base: TIM_Base handle pointer
* @retval None
*/
void HAL_TIM_Base_MspInit(TIM_HandleTypeDef* htim_base)
{
 80047a8:	b580      	push	{r7, lr}
 80047aa:	b084      	sub	sp, #16
 80047ac:	af00      	add	r7, sp, #0
 80047ae:	6078      	str	r0, [r7, #4]
  if(htim_base->Instance==TIM1)
 80047b0:	687b      	ldr	r3, [r7, #4]
 80047b2:	681b      	ldr	r3, [r3, #0]
 80047b4:	4a0d      	ldr	r2, [pc, #52]	; (80047ec <HAL_TIM_Base_MspInit+0x44>)
 80047b6:	4293      	cmp	r3, r2
 80047b8:	d113      	bne.n	80047e2 <HAL_TIM_Base_MspInit+0x3a>
  {
  /* USER CODE BEGIN TIM1_MspInit 0 */

  /* USER CODE END TIM1_MspInit 0 */
    /* Peripheral clock enable */
    __HAL_RCC_TIM1_CLK_ENABLE();
 80047ba:	4b0d      	ldr	r3, [pc, #52]	; (80047f0 <HAL_TIM_Base_MspInit+0x48>)
 80047bc:	699b      	ldr	r3, [r3, #24]
 80047be:	4a0c      	ldr	r2, [pc, #48]	; (80047f0 <HAL_TIM_Base_MspInit+0x48>)
 80047c0:	f443 6300 	orr.w	r3, r3, #2048	; 0x800
 80047c4:	6193      	str	r3, [r2, #24]
 80047c6:	4b0a      	ldr	r3, [pc, #40]	; (80047f0 <HAL_TIM_Base_MspInit+0x48>)
 80047c8:	699b      	ldr	r3, [r3, #24]
 80047ca:	f403 6300 	and.w	r3, r3, #2048	; 0x800
 80047ce:	60fb      	str	r3, [r7, #12]
 80047d0:	68fb      	ldr	r3, [r7, #12]
    /* TIM1 interrupt Init */
    HAL_NVIC_SetPriority(TIM1_UP_IRQn, 0, 0);
 80047d2:	2200      	movs	r2, #0
 80047d4:	2100      	movs	r1, #0
 80047d6:	2019      	movs	r0, #25
 80047d8:	f000 fa99 	bl	8004d0e <HAL_NVIC_SetPriority>
    HAL_NVIC_EnableIRQ(TIM1_UP_IRQn);
 80047dc:	2019      	movs	r0, #25
 80047de:	f000 fab2 	bl	8004d46 <HAL_NVIC_EnableIRQ>
  /* USER CODE BEGIN TIM1_MspInit 1 */

  /* USER CODE END TIM1_MspInit 1 */
  }

}
 80047e2:	bf00      	nop
 80047e4:	3710      	adds	r7, #16
 80047e6:	46bd      	mov	sp, r7
 80047e8:	bd80      	pop	{r7, pc}
 80047ea:	bf00      	nop
 80047ec:	40012c00 	.word	0x40012c00
 80047f0:	40021000 	.word	0x40021000

080047f4 <HAL_TIM_PWM_MspInit>:
* This function configures the hardware resources used in this example
* @param htim_pwm: TIM_PWM handle pointer
* @retval None
*/
void HAL_TIM_PWM_MspInit(TIM_HandleTypeDef* htim_pwm)
{
 80047f4:	b480      	push	{r7}
 80047f6:	b085      	sub	sp, #20
 80047f8:	af00      	add	r7, sp, #0
 80047fa:	6078      	str	r0, [r7, #4]
  if(htim_pwm->Instance==TIM3)
 80047fc:	687b      	ldr	r3, [r7, #4]
 80047fe:	681b      	ldr	r3, [r3, #0]
 8004800:	4a12      	ldr	r2, [pc, #72]	; (800484c <HAL_TIM_PWM_MspInit+0x58>)
 8004802:	4293      	cmp	r3, r2
 8004804:	d10c      	bne.n	8004820 <HAL_TIM_PWM_MspInit+0x2c>
  {
  /* USER CODE BEGIN TIM3_MspInit 0 */

  /* USER CODE END TIM3_MspInit 0 */
    /* Peripheral clock enable */
    __HAL_RCC_TIM3_CLK_ENABLE();
 8004806:	4b12      	ldr	r3, [pc, #72]	; (8004850 <HAL_TIM_PWM_MspInit+0x5c>)
 8004808:	69db      	ldr	r3, [r3, #28]
 800480a:	4a11      	ldr	r2, [pc, #68]	; (8004850 <HAL_TIM_PWM_MspInit+0x5c>)
 800480c:	f043 0302 	orr.w	r3, r3, #2
 8004810:	61d3      	str	r3, [r2, #28]
 8004812:	4b0f      	ldr	r3, [pc, #60]	; (8004850 <HAL_TIM_PWM_MspInit+0x5c>)
 8004814:	69db      	ldr	r3, [r3, #28]
 8004816:	f003 0302 	and.w	r3, r3, #2
 800481a:	60fb      	str	r3, [r7, #12]
 800481c:	68fb      	ldr	r3, [r7, #12]
  /* USER CODE BEGIN TIM4_MspInit 1 */

  /* USER CODE END TIM4_MspInit 1 */
  }

}
 800481e:	e010      	b.n	8004842 <HAL_TIM_PWM_MspInit+0x4e>
  else if(htim_pwm->Instance==TIM4)
 8004820:	687b      	ldr	r3, [r7, #4]
 8004822:	681b      	ldr	r3, [r3, #0]
 8004824:	4a0b      	ldr	r2, [pc, #44]	; (8004854 <HAL_TIM_PWM_MspInit+0x60>)
 8004826:	4293      	cmp	r3, r2
 8004828:	d10b      	bne.n	8004842 <HAL_TIM_PWM_MspInit+0x4e>
    __HAL_RCC_TIM4_CLK_ENABLE();
 800482a:	4b09      	ldr	r3, [pc, #36]	; (8004850 <HAL_TIM_PWM_MspInit+0x5c>)
 800482c:	69db      	ldr	r3, [r3, #28]
 800482e:	4a08      	ldr	r2, [pc, #32]	; (8004850 <HAL_TIM_PWM_MspInit+0x5c>)
 8004830:	f043 0304 	orr.w	r3, r3, #4
 8004834:	61d3      	str	r3, [r2, #28]
 8004836:	4b06      	ldr	r3, [pc, #24]	; (8004850 <HAL_TIM_PWM_MspInit+0x5c>)
 8004838:	69db      	ldr	r3, [r3, #28]
 800483a:	f003 0304 	and.w	r3, r3, #4
 800483e:	60bb      	str	r3, [r7, #8]
 8004840:	68bb      	ldr	r3, [r7, #8]
}
 8004842:	bf00      	nop
 8004844:	3714      	adds	r7, #20
 8004846:	46bd      	mov	sp, r7
 8004848:	bc80      	pop	{r7}
 800484a:	4770      	bx	lr
 800484c:	40000400 	.word	0x40000400
 8004850:	40021000 	.word	0x40021000
 8004854:	40000800 	.word	0x40000800

08004858 <HAL_TIM_MspPostInit>:

void HAL_TIM_MspPostInit(TIM_HandleTypeDef* htim)
{
 8004858:	b580      	push	{r7, lr}
 800485a:	b08a      	sub	sp, #40	; 0x28
 800485c:	af00      	add	r7, sp, #0
 800485e:	6078      	str	r0, [r7, #4]
  GPIO_InitTypeDef GPIO_InitStruct = {0};
 8004860:	f107 0314 	add.w	r3, r7, #20
 8004864:	2200      	movs	r2, #0
 8004866:	601a      	str	r2, [r3, #0]
 8004868:	605a      	str	r2, [r3, #4]
 800486a:	609a      	str	r2, [r3, #8]
 800486c:	60da      	str	r2, [r3, #12]
  if(htim->Instance==TIM3)
 800486e:	687b      	ldr	r3, [r7, #4]
 8004870:	681b      	ldr	r3, [r3, #0]
 8004872:	4a27      	ldr	r2, [pc, #156]	; (8004910 <HAL_TIM_MspPostInit+0xb8>)
 8004874:	4293      	cmp	r3, r2
 8004876:	d12a      	bne.n	80048ce <HAL_TIM_MspPostInit+0x76>
  {
  /* USER CODE BEGIN TIM3_MspPostInit 0 */

  /* USER CODE END TIM3_MspPostInit 0 */
    __HAL_RCC_GPIOB_CLK_ENABLE();
 8004878:	4b26      	ldr	r3, [pc, #152]	; (8004914 <HAL_TIM_MspPostInit+0xbc>)
 800487a:	699b      	ldr	r3, [r3, #24]
 800487c:	4a25      	ldr	r2, [pc, #148]	; (8004914 <HAL_TIM_MspPostInit+0xbc>)
 800487e:	f043 0308 	orr.w	r3, r3, #8
 8004882:	6193      	str	r3, [r2, #24]
 8004884:	4b23      	ldr	r3, [pc, #140]	; (8004914 <HAL_TIM_MspPostInit+0xbc>)
 8004886:	699b      	ldr	r3, [r3, #24]
 8004888:	f003 0308 	and.w	r3, r3, #8
 800488c:	613b      	str	r3, [r7, #16]
 800488e:	693b      	ldr	r3, [r7, #16]
    /**TIM3 GPIO Configuration
    PB4     ------> TIM3_CH1
    PB5     ------> TIM3_CH2
    */
    GPIO_InitStruct.Pin = GPIO_PIN_4|GPIO_PIN_5;
 8004890:	2330      	movs	r3, #48	; 0x30
 8004892:	617b      	str	r3, [r7, #20]
    GPIO_InitStruct.Mode = GPIO_MODE_AF_PP;
 8004894:	2302      	movs	r3, #2
 8004896:	61bb      	str	r3, [r7, #24]
    GPIO_InitStruct.Speed = GPIO_SPEED_FREQ_LOW;
 8004898:	2302      	movs	r3, #2
 800489a:	623b      	str	r3, [r7, #32]
    HAL_GPIO_Init(GPIOB, &GPIO_InitStruct);
 800489c:	f107 0314 	add.w	r3, r7, #20
 80048a0:	4619      	mov	r1, r3
 80048a2:	481d      	ldr	r0, [pc, #116]	; (8004918 <HAL_TIM_MspPostInit+0xc0>)
 80048a4:	f000 fb1a 	bl	8004edc <HAL_GPIO_Init>

    __HAL_AFIO_REMAP_TIM3_PARTIAL();
 80048a8:	4b1c      	ldr	r3, [pc, #112]	; (800491c <HAL_TIM_MspPostInit+0xc4>)
 80048aa:	685b      	ldr	r3, [r3, #4]
 80048ac:	627b      	str	r3, [r7, #36]	; 0x24
 80048ae:	6a7b      	ldr	r3, [r7, #36]	; 0x24
 80048b0:	f423 6340 	bic.w	r3, r3, #3072	; 0xc00
 80048b4:	627b      	str	r3, [r7, #36]	; 0x24
 80048b6:	6a7b      	ldr	r3, [r7, #36]	; 0x24
 80048b8:	f043 63e0 	orr.w	r3, r3, #117440512	; 0x7000000
 80048bc:	627b      	str	r3, [r7, #36]	; 0x24
 80048be:	6a7b      	ldr	r3, [r7, #36]	; 0x24
 80048c0:	f443 6300 	orr.w	r3, r3, #2048	; 0x800
 80048c4:	627b      	str	r3, [r7, #36]	; 0x24
 80048c6:	4a15      	ldr	r2, [pc, #84]	; (800491c <HAL_TIM_MspPostInit+0xc4>)
 80048c8:	6a7b      	ldr	r3, [r7, #36]	; 0x24
 80048ca:	6053      	str	r3, [r2, #4]
  /* USER CODE BEGIN TIM4_MspPostInit 1 */

  /* USER CODE END TIM4_MspPostInit 1 */
  }

}
 80048cc:	e01c      	b.n	8004908 <HAL_TIM_MspPostInit+0xb0>
  else if(htim->Instance==TIM4)
 80048ce:	687b      	ldr	r3, [r7, #4]
 80048d0:	681b      	ldr	r3, [r3, #0]
 80048d2:	4a13      	ldr	r2, [pc, #76]	; (8004920 <HAL_TIM_MspPostInit+0xc8>)
 80048d4:	4293      	cmp	r3, r2
 80048d6:	d117      	bne.n	8004908 <HAL_TIM_MspPostInit+0xb0>
    __HAL_RCC_GPIOB_CLK_ENABLE();
 80048d8:	4b0e      	ldr	r3, [pc, #56]	; (8004914 <HAL_TIM_MspPostInit+0xbc>)
 80048da:	699b      	ldr	r3, [r3, #24]
 80048dc:	4a0d      	ldr	r2, [pc, #52]	; (8004914 <HAL_TIM_MspPostInit+0xbc>)
 80048de:	f043 0308 	orr.w	r3, r3, #8
 80048e2:	6193      	str	r3, [r2, #24]
 80048e4:	4b0b      	ldr	r3, [pc, #44]	; (8004914 <HAL_TIM_MspPostInit+0xbc>)
 80048e6:	699b      	ldr	r3, [r3, #24]
 80048e8:	f003 0308 	and.w	r3, r3, #8
 80048ec:	60fb      	str	r3, [r7, #12]
 80048ee:	68fb      	ldr	r3, [r7, #12]
    GPIO_InitStruct.Pin = GPIO_PIN_6|GPIO_PIN_7;
 80048f0:	23c0      	movs	r3, #192	; 0xc0
 80048f2:	617b      	str	r3, [r7, #20]
    GPIO_InitStruct.Mode = GPIO_MODE_AF_PP;
 80048f4:	2302      	movs	r3, #2
 80048f6:	61bb      	str	r3, [r7, #24]
    GPIO_InitStruct.Speed = GPIO_SPEED_FREQ_LOW;
 80048f8:	2302      	movs	r3, #2
 80048fa:	623b      	str	r3, [r7, #32]
    HAL_GPIO_Init(GPIOB, &GPIO_InitStruct);
 80048fc:	f107 0314 	add.w	r3, r7, #20
 8004900:	4619      	mov	r1, r3
 8004902:	4805      	ldr	r0, [pc, #20]	; (8004918 <HAL_TIM_MspPostInit+0xc0>)
 8004904:	f000 faea 	bl	8004edc <HAL_GPIO_Init>
}
 8004908:	bf00      	nop
 800490a:	3728      	adds	r7, #40	; 0x28
 800490c:	46bd      	mov	sp, r7
 800490e:	bd80      	pop	{r7, pc}
 8004910:	40000400 	.word	0x40000400
 8004914:	40021000 	.word	0x40021000
 8004918:	40010c00 	.word	0x40010c00
 800491c:	40010000 	.word	0x40010000
 8004920:	40000800 	.word	0x40000800

08004924 <HAL_UART_MspInit>:
* This function configures the hardware resources used in this example
* @param huart: UART handle pointer
* @retval None
*/
void HAL_UART_MspInit(UART_HandleTypeDef* huart)
{
 8004924:	b580      	push	{r7, lr}
 8004926:	b088      	sub	sp, #32
 8004928:	af00      	add	r7, sp, #0
 800492a:	6078      	str	r0, [r7, #4]
  GPIO_InitTypeDef GPIO_InitStruct = {0};
 800492c:	f107 0310 	add.w	r3, r7, #16
 8004930:	2200      	movs	r2, #0
 8004932:	601a      	str	r2, [r3, #0]
 8004934:	605a      	str	r2, [r3, #4]
 8004936:	609a      	str	r2, [r3, #8]
 8004938:	60da      	str	r2, [r3, #12]
  if(huart->Instance==USART1)
 800493a:	687b      	ldr	r3, [r7, #4]
 800493c:	681b      	ldr	r3, [r3, #0]
 800493e:	4a20      	ldr	r2, [pc, #128]	; (80049c0 <HAL_UART_MspInit+0x9c>)
 8004940:	4293      	cmp	r3, r2
 8004942:	d139      	bne.n	80049b8 <HAL_UART_MspInit+0x94>
  {
  /* USER CODE BEGIN USART1_MspInit 0 */

  /* USER CODE END USART1_MspInit 0 */
    /* Peripheral clock enable */
    __HAL_RCC_USART1_CLK_ENABLE();
 8004944:	4b1f      	ldr	r3, [pc, #124]	; (80049c4 <HAL_UART_MspInit+0xa0>)
 8004946:	699b      	ldr	r3, [r3, #24]
 8004948:	4a1e      	ldr	r2, [pc, #120]	; (80049c4 <HAL_UART_MspInit+0xa0>)
 800494a:	f443 4380 	orr.w	r3, r3, #16384	; 0x4000
 800494e:	6193      	str	r3, [r2, #24]
 8004950:	4b1c      	ldr	r3, [pc, #112]	; (80049c4 <HAL_UART_MspInit+0xa0>)
 8004952:	699b      	ldr	r3, [r3, #24]
 8004954:	f403 4380 	and.w	r3, r3, #16384	; 0x4000
 8004958:	60fb      	str	r3, [r7, #12]
 800495a:	68fb      	ldr	r3, [r7, #12]

    __HAL_RCC_GPIOA_CLK_ENABLE();
 800495c:	4b19      	ldr	r3, [pc, #100]	; (80049c4 <HAL_UART_MspInit+0xa0>)
 800495e:	699b      	ldr	r3, [r3, #24]
 8004960:	4a18      	ldr	r2, [pc, #96]	; (80049c4 <HAL_UART_MspInit+0xa0>)
 8004962:	f043 0304 	orr.w	r3, r3, #4
 8004966:	6193      	str	r3, [r2, #24]
 8004968:	4b16      	ldr	r3, [pc, #88]	; (80049c4 <HAL_UART_MspInit+0xa0>)
 800496a:	699b      	ldr	r3, [r3, #24]
 800496c:	f003 0304 	and.w	r3, r3, #4
 8004970:	60bb      	str	r3, [r7, #8]
 8004972:	68bb      	ldr	r3, [r7, #8]
    /**USART1 GPIO Configuration
    PA9     ------> USART1_TX
    PA10     ------> USART1_RX
    */
    GPIO_InitStruct.Pin = GPIO_PIN_9;
 8004974:	f44f 7300 	mov.w	r3, #512	; 0x200
 8004978:	613b      	str	r3, [r7, #16]
    GPIO_InitStruct.Mode = GPIO_MODE_AF_PP;
 800497a:	2302      	movs	r3, #2
 800497c:	617b      	str	r3, [r7, #20]
    GPIO_InitStruct.Speed = GPIO_SPEED_FREQ_HIGH;
 800497e:	2303      	movs	r3, #3
 8004980:	61fb      	str	r3, [r7, #28]
    HAL_GPIO_Init(GPIOA, &GPIO_InitStruct);
 8004982:	f107 0310 	add.w	r3, r7, #16
 8004986:	4619      	mov	r1, r3
 8004988:	480f      	ldr	r0, [pc, #60]	; (80049c8 <HAL_UART_MspInit+0xa4>)
 800498a:	f000 faa7 	bl	8004edc <HAL_GPIO_Init>

    GPIO_InitStruct.Pin = GPIO_PIN_10;
 800498e:	f44f 6380 	mov.w	r3, #1024	; 0x400
 8004992:	613b      	str	r3, [r7, #16]
    GPIO_InitStruct.Mode = GPIO_MODE_INPUT;
 8004994:	2300      	movs	r3, #0
 8004996:	617b      	str	r3, [r7, #20]
    GPIO_InitStruct.Pull = GPIO_NOPULL;
 8004998:	2300      	movs	r3, #0
 800499a:	61bb      	str	r3, [r7, #24]
    HAL_GPIO_Init(GPIOA, &GPIO_InitStruct);
 800499c:	f107 0310 	add.w	r3, r7, #16
 80049a0:	4619      	mov	r1, r3
 80049a2:	4809      	ldr	r0, [pc, #36]	; (80049c8 <HAL_UART_MspInit+0xa4>)
 80049a4:	f000 fa9a 	bl	8004edc <HAL_GPIO_Init>

    /* USART1 interrupt Init */
    HAL_NVIC_SetPriority(USART1_IRQn, 0, 0);
 80049a8:	2200      	movs	r2, #0
 80049aa:	2100      	movs	r1, #0
 80049ac:	2025      	movs	r0, #37	; 0x25
 80049ae:	f000 f9ae 	bl	8004d0e <HAL_NVIC_SetPriority>
    HAL_NVIC_EnableIRQ(USART1_IRQn);
 80049b2:	2025      	movs	r0, #37	; 0x25
 80049b4:	f000 f9c7 	bl	8004d46 <HAL_NVIC_EnableIRQ>
  /* USER CODE BEGIN USART1_MspInit 1 */

  /* USER CODE END USART1_MspInit 1 */
  }

}
 80049b8:	bf00      	nop
 80049ba:	3720      	adds	r7, #32
 80049bc:	46bd      	mov	sp, r7
 80049be:	bd80      	pop	{r7, pc}
 80049c0:	40013800 	.word	0x40013800
 80049c4:	40021000 	.word	0x40021000
 80049c8:	40010800 	.word	0x40010800

080049cc <NMI_Handler>:
/******************************************************************************/
/**
  * @brief This function handles Non maskable interrupt.
  */
void NMI_Handler(void)
{
 80049cc:	b480      	push	{r7}
 80049ce:	af00      	add	r7, sp, #0
  /* USER CODE BEGIN NonMaskableInt_IRQn 0 */

  /* USER CODE END NonMaskableInt_IRQn 0 */
  /* USER CODE BEGIN NonMaskableInt_IRQn 1 */
  while (1)
 80049d0:	e7fe      	b.n	80049d0 <NMI_Handler+0x4>

080049d2 <HardFault_Handler>:

/**
  * @brief This function handles Hard fault interrupt.
  */
void HardFault_Handler(void)
{
 80049d2:	b480      	push	{r7}
 80049d4:	af00      	add	r7, sp, #0
  /* USER CODE BEGIN HardFault_IRQn 0 */

  /* USER CODE END HardFault_IRQn 0 */
  while (1)
 80049d6:	e7fe      	b.n	80049d6 <HardFault_Handler+0x4>

080049d8 <MemManage_Handler>:

/**
  * @brief This function handles Memory management fault.
  */
void MemManage_Handler(void)
{
 80049d8:	b480      	push	{r7}
 80049da:	af00      	add	r7, sp, #0
  /* USER CODE BEGIN MemoryManagement_IRQn 0 */

  /* USER CODE END MemoryManagement_IRQn 0 */
  while (1)
 80049dc:	e7fe      	b.n	80049dc <MemManage_Handler+0x4>

080049de <BusFault_Handler>:

/**
  * @brief This function handles Prefetch fault, memory access fault.
  */
void BusFault_Handler(void)
{
 80049de:	b480      	push	{r7}
 80049e0:	af00      	add	r7, sp, #0
  /* USER CODE BEGIN BusFault_IRQn 0 */

  /* USER CODE END BusFault_IRQn 0 */
  while (1)
 80049e2:	e7fe      	b.n	80049e2 <BusFault_Handler+0x4>

080049e4 <UsageFault_Handler>:

/**
  * @brief This function handles Undefined instruction or illegal state.
  */
void UsageFault_Handler(void)
{
 80049e4:	b480      	push	{r7}
 80049e6:	af00      	add	r7, sp, #0
  /* USER CODE BEGIN UsageFault_IRQn 0 */

  /* USER CODE END UsageFault_IRQn 0 */
  while (1)
 80049e8:	e7fe      	b.n	80049e8 <UsageFault_Handler+0x4>

080049ea <SVC_Handler>:

/**
  * @brief This function handles System service call via SWI instruction.
  */
void SVC_Handler(void)
{
 80049ea:	b480      	push	{r7}
 80049ec:	af00      	add	r7, sp, #0

  /* USER CODE END SVCall_IRQn 0 */
  /* USER CODE BEGIN SVCall_IRQn 1 */

  /* USER CODE END SVCall_IRQn 1 */
}
 80049ee:	bf00      	nop
 80049f0:	46bd      	mov	sp, r7
 80049f2:	bc80      	pop	{r7}
 80049f4:	4770      	bx	lr

080049f6 <DebugMon_Handler>:

/**
  * @brief This function handles Debug monitor.
  */
void DebugMon_Handler(void)
{
 80049f6:	b480      	push	{r7}
 80049f8:	af00      	add	r7, sp, #0

  /* USER CODE END DebugMonitor_IRQn 0 */
  /* USER CODE BEGIN DebugMonitor_IRQn 1 */

  /* USER CODE END DebugMonitor_IRQn 1 */
}
 80049fa:	bf00      	nop
 80049fc:	46bd      	mov	sp, r7
 80049fe:	bc80      	pop	{r7}
 8004a00:	4770      	bx	lr

08004a02 <PendSV_Handler>:

/**
  * @brief This function handles Pendable request for system service.
  */
void PendSV_Handler(void)
{
 8004a02:	b480      	push	{r7}
 8004a04:	af00      	add	r7, sp, #0

  /* USER CODE END PendSV_IRQn 0 */
  /* USER CODE BEGIN PendSV_IRQn 1 */

  /* USER CODE END PendSV_IRQn 1 */
}
 8004a06:	bf00      	nop
 8004a08:	46bd      	mov	sp, r7
 8004a0a:	bc80      	pop	{r7}
 8004a0c:	4770      	bx	lr

08004a0e <SysTick_Handler>:

/**
  * @brief This function handles System tick timer.
  */
void SysTick_Handler(void)
{
 8004a0e:	b580      	push	{r7, lr}
 8004a10:	af00      	add	r7, sp, #0
  /* USER CODE BEGIN SysTick_IRQn 0 */

  /* USER CODE END SysTick_IRQn 0 */
  HAL_IncTick();
 8004a12:	f000 f889 	bl	8004b28 <HAL_IncTick>
  /* USER CODE BEGIN SysTick_IRQn 1 */

  /* USER CODE END SysTick_IRQn 1 */
}
 8004a16:	bf00      	nop
 8004a18:	bd80      	pop	{r7, pc}
	...

08004a1c <TIM1_UP_IRQHandler>:

/**
  * @brief This function handles TIM1 update interrupt.
  */
void TIM1_UP_IRQHandler(void)
{
 8004a1c:	b580      	push	{r7, lr}
 8004a1e:	af00      	add	r7, sp, #0
  /* USER CODE BEGIN TIM1_UP_IRQn 0 */

  /* USER CODE END TIM1_UP_IRQn 0 */
  HAL_TIM_IRQHandler(&htim1);
 8004a20:	4802      	ldr	r0, [pc, #8]	; (8004a2c <TIM1_UP_IRQHandler+0x10>)
 8004a22:	f002 f96b 	bl	8006cfc <HAL_TIM_IRQHandler>
  /* USER CODE BEGIN TIM1_UP_IRQn 1 */

  /* USER CODE END TIM1_UP_IRQn 1 */
}
 8004a26:	bf00      	nop
 8004a28:	bd80      	pop	{r7, pc}
 8004a2a:	bf00      	nop
 8004a2c:	20000540 	.word	0x20000540

08004a30 <USART1_IRQHandler>:

/**
  * @brief This function handles USART1 global interrupt.
  */
void USART1_IRQHandler(void)
{
 8004a30:	b580      	push	{r7, lr}
 8004a32:	af00      	add	r7, sp, #0
  /* USER CODE BEGIN USART1_IRQn 0 */

  /* USER CODE END USART1_IRQn 0 */
  HAL_UART_IRQHandler(&huart1);
 8004a34:	4802      	ldr	r0, [pc, #8]	; (8004a40 <USART1_IRQHandler+0x10>)
 8004a36:	f002 ff95 	bl	8007964 <HAL_UART_IRQHandler>
  /* USER CODE BEGIN USART1_IRQn 1 */

  /* USER CODE END USART1_IRQn 1 */
}
 8004a3a:	bf00      	nop
 8004a3c:	bd80      	pop	{r7, pc}
 8004a3e:	bf00      	nop
 8004a40:	200004f0 	.word	0x200004f0

08004a44 <SystemInit>:
  * @note   This function should be used only after reset.
  * @param  None
  * @retval None
  */
void SystemInit (void)
{
 8004a44:	b480      	push	{r7}
 8004a46:	af00      	add	r7, sp, #0

  /* Configure the Vector Table location -------------------------------------*/
#if defined(USER_VECT_TAB_ADDRESS)
  SCB->VTOR = VECT_TAB_BASE_ADDRESS | VECT_TAB_OFFSET; /* Vector Table Relocation in Internal SRAM. */
#endif /* USER_VECT_TAB_ADDRESS */
}
 8004a48:	bf00      	nop
 8004a4a:	46bd      	mov	sp, r7
 8004a4c:	bc80      	pop	{r7}
 8004a4e:	4770      	bx	lr

08004a50 <Reset_Handler>:
  .weak Reset_Handler
  .type Reset_Handler, %function
Reset_Handler:

/* Copy the data segment initializers from flash to SRAM */
  ldr r0, =_sdata
 8004a50:	480c      	ldr	r0, [pc, #48]	; (8004a84 <LoopFillZerobss+0x12>)
  ldr r1, =_edata
 8004a52:	490d      	ldr	r1, [pc, #52]	; (8004a88 <LoopFillZerobss+0x16>)
  ldr r2, =_sidata
 8004a54:	4a0d      	ldr	r2, [pc, #52]	; (8004a8c <LoopFillZerobss+0x1a>)
  movs r3, #0
 8004a56:	2300      	movs	r3, #0
  b LoopCopyDataInit
 8004a58:	e002      	b.n	8004a60 <LoopCopyDataInit>

08004a5a <CopyDataInit>:

CopyDataInit:
  ldr r4, [r2, r3]
 8004a5a:	58d4      	ldr	r4, [r2, r3]
  str r4, [r0, r3]
 8004a5c:	50c4      	str	r4, [r0, r3]
  adds r3, r3, #4
 8004a5e:	3304      	adds	r3, #4

08004a60 <LoopCopyDataInit>:

LoopCopyDataInit:
  adds r4, r0, r3
 8004a60:	18c4      	adds	r4, r0, r3
  cmp r4, r1
 8004a62:	428c      	cmp	r4, r1
  bcc CopyDataInit
 8004a64:	d3f9      	bcc.n	8004a5a <CopyDataInit>
  
/* Zero fill the bss segment. */
  ldr r2, =_sbss
 8004a66:	4a0a      	ldr	r2, [pc, #40]	; (8004a90 <LoopFillZerobss+0x1e>)
  ldr r4, =_ebss
 8004a68:	4c0a      	ldr	r4, [pc, #40]	; (8004a94 <LoopFillZerobss+0x22>)
  movs r3, #0
 8004a6a:	2300      	movs	r3, #0
  b LoopFillZerobss
 8004a6c:	e001      	b.n	8004a72 <LoopFillZerobss>

08004a6e <FillZerobss>:

FillZerobss:
  str  r3, [r2]
 8004a6e:	6013      	str	r3, [r2, #0]
  adds r2, r2, #4
 8004a70:	3204      	adds	r2, #4

08004a72 <LoopFillZerobss>:

LoopFillZerobss:
  cmp r2, r4
 8004a72:	42a2      	cmp	r2, r4
  bcc FillZerobss
 8004a74:	d3fb      	bcc.n	8004a6e <FillZerobss>

/* Call the clock system intitialization function.*/
    bl  SystemInit
 8004a76:	f7ff ffe5 	bl	8004a44 <SystemInit>
/* Call static constructors */
    bl __libc_init_array
 8004a7a:	f003 fb59 	bl	8008130 <__libc_init_array>
/* Call the application's entry point.*/
  bl main
 8004a7e:	f7fc fcbb 	bl	80013f8 <main>
  bx lr
 8004a82:	4770      	bx	lr
  ldr r0, =_sdata
 8004a84:	20000000 	.word	0x20000000
  ldr r1, =_edata
 8004a88:	20000120 	.word	0x20000120
  ldr r2, =_sidata
 8004a8c:	08008bc0 	.word	0x08008bc0
  ldr r2, =_sbss
 8004a90:	20000120 	.word	0x20000120
  ldr r4, =_ebss
 8004a94:	20000590 	.word	0x20000590

08004a98 <ADC1_2_IRQHandler>:
 * @retval : None
*/
    .section .text.Default_Handler,"ax",%progbits
Default_Handler:
Infinite_Loop:
  b Infinite_Loop
 8004a98:	e7fe      	b.n	8004a98 <ADC1_2_IRQHandler>
	...

08004a9c <HAL_Init>:
  *         need to ensure that the SysTick time base is always set to 1 millisecond
  *         to have correct HAL operation.
  * @retval HAL status
  */
HAL_StatusTypeDef HAL_Init(void)
{
 8004a9c:	b580      	push	{r7, lr}
 8004a9e:	af00      	add	r7, sp, #0
    defined(STM32F102x6) || defined(STM32F102xB) || \
    defined(STM32F103x6) || defined(STM32F103xB) || defined(STM32F103xE) || defined(STM32F103xG) || \
    defined(STM32F105xC) || defined(STM32F107xC)

  /* Prefetch buffer is not available on value line devices */
  __HAL_FLASH_PREFETCH_BUFFER_ENABLE();
 8004aa0:	4b08      	ldr	r3, [pc, #32]	; (8004ac4 <HAL_Init+0x28>)
 8004aa2:	681b      	ldr	r3, [r3, #0]
 8004aa4:	4a07      	ldr	r2, [pc, #28]	; (8004ac4 <HAL_Init+0x28>)
 8004aa6:	f043 0310 	orr.w	r3, r3, #16
 8004aaa:	6013      	str	r3, [r2, #0]
#endif
#endif /* PREFETCH_ENABLE */

  /* Set Interrupt Group Priority */
  HAL_NVIC_SetPriorityGrouping(NVIC_PRIORITYGROUP_4);
 8004aac:	2003      	movs	r0, #3
 8004aae:	f000 f923 	bl	8004cf8 <HAL_NVIC_SetPriorityGrouping>

  /* Use systick as time base source and configure 1ms tick (default clock after Reset is HSI) */
  HAL_InitTick(TICK_INT_PRIORITY);
 8004ab2:	2000      	movs	r0, #0
 8004ab4:	f000 f808 	bl	8004ac8 <HAL_InitTick>

  /* Init the low level hardware */
  HAL_MspInit();
 8004ab8:	f7ff fdf4 	bl	80046a4 <HAL_MspInit>

  /* Return function status */
  return HAL_OK;
 8004abc:	2300      	movs	r3, #0
}
 8004abe:	4618      	mov	r0, r3
 8004ac0:	bd80      	pop	{r7, pc}
 8004ac2:	bf00      	nop
 8004ac4:	40022000 	.word	0x40022000

08004ac8 <HAL_InitTick>:
  *       implementation  in user file.
  * @param TickPriority Tick interrupt priority.
  * @retval HAL status
  */
__weak HAL_StatusTypeDef HAL_InitTick(uint32_t TickPriority)
{
 8004ac8:	b580      	push	{r7, lr}
 8004aca:	b082      	sub	sp, #8
 8004acc:	af00      	add	r7, sp, #0
 8004ace:	6078      	str	r0, [r7, #4]
  /* Configure the SysTick to have interrupt in 1ms time basis*/
  if (HAL_SYSTICK_Config(SystemCoreClock / (1000U / uwTickFreq)) > 0U)
 8004ad0:	4b12      	ldr	r3, [pc, #72]	; (8004b1c <HAL_InitTick+0x54>)
 8004ad2:	681a      	ldr	r2, [r3, #0]
 8004ad4:	4b12      	ldr	r3, [pc, #72]	; (8004b20 <HAL_InitTick+0x58>)
 8004ad6:	781b      	ldrb	r3, [r3, #0]
 8004ad8:	4619      	mov	r1, r3
 8004ada:	f44f 737a 	mov.w	r3, #1000	; 0x3e8
 8004ade:	fbb3 f3f1 	udiv	r3, r3, r1
 8004ae2:	fbb2 f3f3 	udiv	r3, r2, r3
 8004ae6:	4618      	mov	r0, r3
 8004ae8:	f000 f93b 	bl	8004d62 <HAL_SYSTICK_Config>
 8004aec:	4603      	mov	r3, r0
 8004aee:	2b00      	cmp	r3, #0
 8004af0:	d001      	beq.n	8004af6 <HAL_InitTick+0x2e>
  {
    return HAL_ERROR;
 8004af2:	2301      	movs	r3, #1
 8004af4:	e00e      	b.n	8004b14 <HAL_InitTick+0x4c>
  }

  /* Configure the SysTick IRQ priority */
  if (TickPriority < (1UL << __NVIC_PRIO_BITS))
 8004af6:	687b      	ldr	r3, [r7, #4]
 8004af8:	2b0f      	cmp	r3, #15
 8004afa:	d80a      	bhi.n	8004b12 <HAL_InitTick+0x4a>
  {
    HAL_NVIC_SetPriority(SysTick_IRQn, TickPriority, 0U);
 8004afc:	2200      	movs	r2, #0
 8004afe:	6879      	ldr	r1, [r7, #4]
 8004b00:	f04f 30ff 	mov.w	r0, #4294967295
 8004b04:	f000 f903 	bl	8004d0e <HAL_NVIC_SetPriority>
    uwTickPrio = TickPriority;
 8004b08:	4a06      	ldr	r2, [pc, #24]	; (8004b24 <HAL_InitTick+0x5c>)
 8004b0a:	687b      	ldr	r3, [r7, #4]
 8004b0c:	6013      	str	r3, [r2, #0]
  {
    return HAL_ERROR;
  }

  /* Return function status */
  return HAL_OK;
 8004b0e:	2300      	movs	r3, #0
 8004b10:	e000      	b.n	8004b14 <HAL_InitTick+0x4c>
    return HAL_ERROR;
 8004b12:	2301      	movs	r3, #1
}
 8004b14:	4618      	mov	r0, r3
 8004b16:	3708      	adds	r7, #8
 8004b18:	46bd      	mov	sp, r7
 8004b1a:	bd80      	pop	{r7, pc}
 8004b1c:	200000ac 	.word	0x200000ac
 8004b20:	200000b4 	.word	0x200000b4
 8004b24:	200000b0 	.word	0x200000b0

08004b28 <HAL_IncTick>:
  * @note This function is declared as __weak to be overwritten in case of other
  *      implementations in user file.
  * @retval None
  */
__weak void HAL_IncTick(void)
{
 8004b28:	b480      	push	{r7}
 8004b2a:	af00      	add	r7, sp, #0
  uwTick += uwTickFreq;
 8004b2c:	4b05      	ldr	r3, [pc, #20]	; (8004b44 <HAL_IncTick+0x1c>)
 8004b2e:	781b      	ldrb	r3, [r3, #0]
 8004b30:	461a      	mov	r2, r3
 8004b32:	4b05      	ldr	r3, [pc, #20]	; (8004b48 <HAL_IncTick+0x20>)
 8004b34:	681b      	ldr	r3, [r3, #0]
 8004b36:	4413      	add	r3, r2
 8004b38:	4a03      	ldr	r2, [pc, #12]	; (8004b48 <HAL_IncTick+0x20>)
 8004b3a:	6013      	str	r3, [r2, #0]
}
 8004b3c:	bf00      	nop
 8004b3e:	46bd      	mov	sp, r7
 8004b40:	bc80      	pop	{r7}
 8004b42:	4770      	bx	lr
 8004b44:	200000b4 	.word	0x200000b4
 8004b48:	2000058c 	.word	0x2000058c

08004b4c <HAL_GetTick>:
  * @note  This function is declared as __weak to be overwritten in case of other
  *       implementations in user file.
  * @retval tick value
  */
__weak uint32_t HAL_GetTick(void)
{
 8004b4c:	b480      	push	{r7}
 8004b4e:	af00      	add	r7, sp, #0
  return uwTick;
 8004b50:	4b02      	ldr	r3, [pc, #8]	; (8004b5c <HAL_GetTick+0x10>)
 8004b52:	681b      	ldr	r3, [r3, #0]
}
 8004b54:	4618      	mov	r0, r3
 8004b56:	46bd      	mov	sp, r7
 8004b58:	bc80      	pop	{r7}
 8004b5a:	4770      	bx	lr
 8004b5c:	2000058c 	.word	0x2000058c

08004b60 <__NVIC_SetPriorityGrouping>:
           In case of a conflict between priority grouping and available
           priority bits (__NVIC_PRIO_BITS), the smallest possible priority group is set.
  \param [in]      PriorityGroup  Priority grouping field.
 */
__STATIC_INLINE void __NVIC_SetPriorityGrouping(uint32_t PriorityGroup)
{
 8004b60:	b480      	push	{r7}
 8004b62:	b085      	sub	sp, #20
 8004b64:	af00      	add	r7, sp, #0
 8004b66:	6078      	str	r0, [r7, #4]
  uint32_t reg_value;
  uint32_t PriorityGroupTmp = (PriorityGroup & (uint32_t)0x07UL);             /* only values 0..7 are used          */
 8004b68:	687b      	ldr	r3, [r7, #4]
 8004b6a:	f003 0307 	and.w	r3, r3, #7
 8004b6e:	60fb      	str	r3, [r7, #12]

  reg_value  =  SCB->AIRCR;                                                   /* read old register configuration    */
 8004b70:	4b0c      	ldr	r3, [pc, #48]	; (8004ba4 <__NVIC_SetPriorityGrouping+0x44>)
 8004b72:	68db      	ldr	r3, [r3, #12]
 8004b74:	60bb      	str	r3, [r7, #8]
  reg_value &= ~((uint32_t)(SCB_AIRCR_VECTKEY_Msk | SCB_AIRCR_PRIGROUP_Msk)); /* clear bits to change               */
 8004b76:	68ba      	ldr	r2, [r7, #8]
 8004b78:	f64f 03ff 	movw	r3, #63743	; 0xf8ff
 8004b7c:	4013      	ands	r3, r2
 8004b7e:	60bb      	str	r3, [r7, #8]
  reg_value  =  (reg_value                                   |
                ((uint32_t)0x5FAUL << SCB_AIRCR_VECTKEY_Pos) |
                (PriorityGroupTmp << SCB_AIRCR_PRIGROUP_Pos) );               /* Insert write key and priority group */
 8004b80:	68fb      	ldr	r3, [r7, #12]
 8004b82:	021a      	lsls	r2, r3, #8
                ((uint32_t)0x5FAUL << SCB_AIRCR_VECTKEY_Pos) |
 8004b84:	68bb      	ldr	r3, [r7, #8]
 8004b86:	4313      	orrs	r3, r2
  reg_value  =  (reg_value                                   |
 8004b88:	f043 63bf 	orr.w	r3, r3, #100139008	; 0x5f80000
 8004b8c:	f443 3300 	orr.w	r3, r3, #131072	; 0x20000
 8004b90:	60bb      	str	r3, [r7, #8]
  SCB->AIRCR =  reg_value;
 8004b92:	4a04      	ldr	r2, [pc, #16]	; (8004ba4 <__NVIC_SetPriorityGrouping+0x44>)
 8004b94:	68bb      	ldr	r3, [r7, #8]
 8004b96:	60d3      	str	r3, [r2, #12]
}
 8004b98:	bf00      	nop
 8004b9a:	3714      	adds	r7, #20
 8004b9c:	46bd      	mov	sp, r7
 8004b9e:	bc80      	pop	{r7}
 8004ba0:	4770      	bx	lr
 8004ba2:	bf00      	nop
 8004ba4:	e000ed00 	.word	0xe000ed00

08004ba8 <__NVIC_GetPriorityGrouping>:
  \brief   Get Priority Grouping
  \details Reads the priority grouping field from the NVIC Interrupt Controller.
  \return                Priority grouping field (SCB->AIRCR [10:8] PRIGROUP field).
 */
__STATIC_INLINE uint32_t __NVIC_GetPriorityGrouping(void)
{
 8004ba8:	b480      	push	{r7}
 8004baa:	af00      	add	r7, sp, #0
  return ((uint32_t)((SCB->AIRCR & SCB_AIRCR_PRIGROUP_Msk) >> SCB_AIRCR_PRIGROUP_Pos));
 8004bac:	4b04      	ldr	r3, [pc, #16]	; (8004bc0 <__NVIC_GetPriorityGrouping+0x18>)
 8004bae:	68db      	ldr	r3, [r3, #12]
 8004bb0:	0a1b      	lsrs	r3, r3, #8
 8004bb2:	f003 0307 	and.w	r3, r3, #7
}
 8004bb6:	4618      	mov	r0, r3
 8004bb8:	46bd      	mov	sp, r7
 8004bba:	bc80      	pop	{r7}
 8004bbc:	4770      	bx	lr
 8004bbe:	bf00      	nop
 8004bc0:	e000ed00 	.word	0xe000ed00

08004bc4 <__NVIC_EnableIRQ>:
  \details Enables a device specific interrupt in the NVIC interrupt controller.
  \param [in]      IRQn  Device specific interrupt number.
  \note    IRQn must not be negative.
 */
__STATIC_INLINE void __NVIC_EnableIRQ(IRQn_Type IRQn)
{
 8004bc4:	b480      	push	{r7}
 8004bc6:	b083      	sub	sp, #12
 8004bc8:	af00      	add	r7, sp, #0
 8004bca:	4603      	mov	r3, r0
 8004bcc:	71fb      	strb	r3, [r7, #7]
  if ((int32_t)(IRQn) >= 0)
 8004bce:	f997 3007 	ldrsb.w	r3, [r7, #7]
 8004bd2:	2b00      	cmp	r3, #0
 8004bd4:	db0b      	blt.n	8004bee <__NVIC_EnableIRQ+0x2a>
  {
    NVIC->ISER[(((uint32_t)IRQn) >> 5UL)] = (uint32_t)(1UL << (((uint32_t)IRQn) & 0x1FUL));
 8004bd6:	79fb      	ldrb	r3, [r7, #7]
 8004bd8:	f003 021f 	and.w	r2, r3, #31
 8004bdc:	4906      	ldr	r1, [pc, #24]	; (8004bf8 <__NVIC_EnableIRQ+0x34>)
 8004bde:	f997 3007 	ldrsb.w	r3, [r7, #7]
 8004be2:	095b      	lsrs	r3, r3, #5
 8004be4:	2001      	movs	r0, #1
 8004be6:	fa00 f202 	lsl.w	r2, r0, r2
 8004bea:	f841 2023 	str.w	r2, [r1, r3, lsl #2]
  }
}
 8004bee:	bf00      	nop
 8004bf0:	370c      	adds	r7, #12
 8004bf2:	46bd      	mov	sp, r7
 8004bf4:	bc80      	pop	{r7}
 8004bf6:	4770      	bx	lr
 8004bf8:	e000e100 	.word	0xe000e100

08004bfc <__NVIC_SetPriority>:
  \param [in]      IRQn  Interrupt number.
  \param [in]  priority  Priority to set.
  \note    The priority cannot be set for every processor exception.
 */
__STATIC_INLINE void __NVIC_SetPriority(IRQn_Type IRQn, uint32_t priority)
{
 8004bfc:	b480      	push	{r7}
 8004bfe:	b083      	sub	sp, #12
 8004c00:	af00      	add	r7, sp, #0
 8004c02:	4603      	mov	r3, r0
 8004c04:	6039      	str	r1, [r7, #0]
 8004c06:	71fb      	strb	r3, [r7, #7]
  if ((int32_t)(IRQn) >= 0)
 8004c08:	f997 3007 	ldrsb.w	r3, [r7, #7]
 8004c0c:	2b00      	cmp	r3, #0
 8004c0e:	db0a      	blt.n	8004c26 <__NVIC_SetPriority+0x2a>
  {
    NVIC->IP[((uint32_t)IRQn)]               = (uint8_t)((priority << (8U - __NVIC_PRIO_BITS)) & (uint32_t)0xFFUL);
 8004c10:	683b      	ldr	r3, [r7, #0]
 8004c12:	b2da      	uxtb	r2, r3
 8004c14:	490c      	ldr	r1, [pc, #48]	; (8004c48 <__NVIC_SetPriority+0x4c>)
 8004c16:	f997 3007 	ldrsb.w	r3, [r7, #7]
 8004c1a:	0112      	lsls	r2, r2, #4
 8004c1c:	b2d2      	uxtb	r2, r2
 8004c1e:	440b      	add	r3, r1
 8004c20:	f883 2300 	strb.w	r2, [r3, #768]	; 0x300
  }
  else
  {
    SCB->SHP[(((uint32_t)IRQn) & 0xFUL)-4UL] = (uint8_t)((priority << (8U - __NVIC_PRIO_BITS)) & (uint32_t)0xFFUL);
  }
}
 8004c24:	e00a      	b.n	8004c3c <__NVIC_SetPriority+0x40>
    SCB->SHP[(((uint32_t)IRQn) & 0xFUL)-4UL] = (uint8_t)((priority << (8U - __NVIC_PRIO_BITS)) & (uint32_t)0xFFUL);
 8004c26:	683b      	ldr	r3, [r7, #0]
 8004c28:	b2da      	uxtb	r2, r3
 8004c2a:	4908      	ldr	r1, [pc, #32]	; (8004c4c <__NVIC_SetPriority+0x50>)
 8004c2c:	79fb      	ldrb	r3, [r7, #7]
 8004c2e:	f003 030f 	and.w	r3, r3, #15
 8004c32:	3b04      	subs	r3, #4
 8004c34:	0112      	lsls	r2, r2, #4
 8004c36:	b2d2      	uxtb	r2, r2
 8004c38:	440b      	add	r3, r1
 8004c3a:	761a      	strb	r2, [r3, #24]
}
 8004c3c:	bf00      	nop
 8004c3e:	370c      	adds	r7, #12
 8004c40:	46bd      	mov	sp, r7
 8004c42:	bc80      	pop	{r7}
 8004c44:	4770      	bx	lr
 8004c46:	bf00      	nop
 8004c48:	e000e100 	.word	0xe000e100
 8004c4c:	e000ed00 	.word	0xe000ed00

08004c50 <NVIC_EncodePriority>:
  \param [in]   PreemptPriority  Preemptive priority value (starting from 0).
  \param [in]       SubPriority  Subpriority value (starting from 0).
  \return                        Encoded priority. Value can be used in the function \ref NVIC_SetPriority().
 */
__STATIC_INLINE uint32_t NVIC_EncodePriority (uint32_t PriorityGroup, uint32_t PreemptPriority, uint32_t SubPriority)
{
 8004c50:	b480      	push	{r7}
 8004c52:	b089      	sub	sp, #36	; 0x24
 8004c54:	af00      	add	r7, sp, #0
 8004c56:	60f8      	str	r0, [r7, #12]
 8004c58:	60b9      	str	r1, [r7, #8]
 8004c5a:	607a      	str	r2, [r7, #4]
  uint32_t PriorityGroupTmp = (PriorityGroup & (uint32_t)0x07UL);   /* only values 0..7 are used          */
 8004c5c:	68fb      	ldr	r3, [r7, #12]
 8004c5e:	f003 0307 	and.w	r3, r3, #7
 8004c62:	61fb      	str	r3, [r7, #28]
  uint32_t PreemptPriorityBits;
  uint32_t SubPriorityBits;

  PreemptPriorityBits = ((7UL - PriorityGroupTmp) > (uint32_t)(__NVIC_PRIO_BITS)) ? (uint32_t)(__NVIC_PRIO_BITS) : (uint32_t)(7UL - PriorityGroupTmp);
 8004c64:	69fb      	ldr	r3, [r7, #28]
 8004c66:	f1c3 0307 	rsb	r3, r3, #7
 8004c6a:	2b04      	cmp	r3, #4
 8004c6c:	bf28      	it	cs
 8004c6e:	2304      	movcs	r3, #4
 8004c70:	61bb      	str	r3, [r7, #24]
  SubPriorityBits     = ((PriorityGroupTmp + (uint32_t)(__NVIC_PRIO_BITS)) < (uint32_t)7UL) ? (uint32_t)0UL : (uint32_t)((PriorityGroupTmp - 7UL) + (uint32_t)(__NVIC_PRIO_BITS));
 8004c72:	69fb      	ldr	r3, [r7, #28]
 8004c74:	3304      	adds	r3, #4
 8004c76:	2b06      	cmp	r3, #6
 8004c78:	d902      	bls.n	8004c80 <NVIC_EncodePriority+0x30>
 8004c7a:	69fb      	ldr	r3, [r7, #28]
 8004c7c:	3b03      	subs	r3, #3
 8004c7e:	e000      	b.n	8004c82 <NVIC_EncodePriority+0x32>
 8004c80:	2300      	movs	r3, #0
 8004c82:	617b      	str	r3, [r7, #20]

  return (
           ((PreemptPriority & (uint32_t)((1UL << (PreemptPriorityBits)) - 1UL)) << SubPriorityBits) |
 8004c84:	f04f 32ff 	mov.w	r2, #4294967295
 8004c88:	69bb      	ldr	r3, [r7, #24]
 8004c8a:	fa02 f303 	lsl.w	r3, r2, r3
 8004c8e:	43da      	mvns	r2, r3
 8004c90:	68bb      	ldr	r3, [r7, #8]
 8004c92:	401a      	ands	r2, r3
 8004c94:	697b      	ldr	r3, [r7, #20]
 8004c96:	409a      	lsls	r2, r3
           ((SubPriority     & (uint32_t)((1UL << (SubPriorityBits    )) - 1UL)))
 8004c98:	f04f 31ff 	mov.w	r1, #4294967295
 8004c9c:	697b      	ldr	r3, [r7, #20]
 8004c9e:	fa01 f303 	lsl.w	r3, r1, r3
 8004ca2:	43d9      	mvns	r1, r3
 8004ca4:	687b      	ldr	r3, [r7, #4]
 8004ca6:	400b      	ands	r3, r1
           ((PreemptPriority & (uint32_t)((1UL << (PreemptPriorityBits)) - 1UL)) << SubPriorityBits) |
 8004ca8:	4313      	orrs	r3, r2
         );
}
 8004caa:	4618      	mov	r0, r3
 8004cac:	3724      	adds	r7, #36	; 0x24
 8004cae:	46bd      	mov	sp, r7
 8004cb0:	bc80      	pop	{r7}
 8004cb2:	4770      	bx	lr

08004cb4 <SysTick_Config>:
  \note    When the variable <b>__Vendor_SysTickConfig</b> is set to 1, then the
           function <b>SysTick_Config</b> is not included. In this case, the file <b><i>device</i>.h</b>
           must contain a vendor-specific implementation of this function.
 */
__STATIC_INLINE uint32_t SysTick_Config(uint32_t ticks)
{
 8004cb4:	b580      	push	{r7, lr}
 8004cb6:	b082      	sub	sp, #8
 8004cb8:	af00      	add	r7, sp, #0
 8004cba:	6078      	str	r0, [r7, #4]
  if ((ticks - 1UL) > SysTick_LOAD_RELOAD_Msk)
 8004cbc:	687b      	ldr	r3, [r7, #4]
 8004cbe:	3b01      	subs	r3, #1
 8004cc0:	f1b3 7f80 	cmp.w	r3, #16777216	; 0x1000000
 8004cc4:	d301      	bcc.n	8004cca <SysTick_Config+0x16>
  {
    return (1UL);                                                   /* Reload value impossible */
 8004cc6:	2301      	movs	r3, #1
 8004cc8:	e00f      	b.n	8004cea <SysTick_Config+0x36>
  }

  SysTick->LOAD  = (uint32_t)(ticks - 1UL);                         /* set reload register */
 8004cca:	4a0a      	ldr	r2, [pc, #40]	; (8004cf4 <SysTick_Config+0x40>)
 8004ccc:	687b      	ldr	r3, [r7, #4]
 8004cce:	3b01      	subs	r3, #1
 8004cd0:	6053      	str	r3, [r2, #4]
  NVIC_SetPriority (SysTick_IRQn, (1UL << __NVIC_PRIO_BITS) - 1UL); /* set Priority for Systick Interrupt */
 8004cd2:	210f      	movs	r1, #15
 8004cd4:	f04f 30ff 	mov.w	r0, #4294967295
 8004cd8:	f7ff ff90 	bl	8004bfc <__NVIC_SetPriority>
  SysTick->VAL   = 0UL;                                             /* Load the SysTick Counter Value */
 8004cdc:	4b05      	ldr	r3, [pc, #20]	; (8004cf4 <SysTick_Config+0x40>)
 8004cde:	2200      	movs	r2, #0
 8004ce0:	609a      	str	r2, [r3, #8]
  SysTick->CTRL  = SysTick_CTRL_CLKSOURCE_Msk |
 8004ce2:	4b04      	ldr	r3, [pc, #16]	; (8004cf4 <SysTick_Config+0x40>)
 8004ce4:	2207      	movs	r2, #7
 8004ce6:	601a      	str	r2, [r3, #0]
                   SysTick_CTRL_TICKINT_Msk   |
                   SysTick_CTRL_ENABLE_Msk;                         /* Enable SysTick IRQ and SysTick Timer */
  return (0UL);                                                     /* Function successful */
 8004ce8:	2300      	movs	r3, #0
}
 8004cea:	4618      	mov	r0, r3
 8004cec:	3708      	adds	r7, #8
 8004cee:	46bd      	mov	sp, r7
 8004cf0:	bd80      	pop	{r7, pc}
 8004cf2:	bf00      	nop
 8004cf4:	e000e010 	.word	0xe000e010

08004cf8 <HAL_NVIC_SetPriorityGrouping>:
  * @note   When the NVIC_PriorityGroup_0 is selected, IRQ preemption is no more possible. 
  *         The pending IRQ priority will be managed only by the subpriority. 
  * @retval None
  */
void HAL_NVIC_SetPriorityGrouping(uint32_t PriorityGroup)
{
 8004cf8:	b580      	push	{r7, lr}
 8004cfa:	b082      	sub	sp, #8
 8004cfc:	af00      	add	r7, sp, #0
 8004cfe:	6078      	str	r0, [r7, #4]
  /* Check the parameters */
  assert_param(IS_NVIC_PRIORITY_GROUP(PriorityGroup));
  
  /* Set the PRIGROUP[10:8] bits according to the PriorityGroup parameter value */
  NVIC_SetPriorityGrouping(PriorityGroup);
 8004d00:	6878      	ldr	r0, [r7, #4]
 8004d02:	f7ff ff2d 	bl	8004b60 <__NVIC_SetPriorityGrouping>
}
 8004d06:	bf00      	nop
 8004d08:	3708      	adds	r7, #8
 8004d0a:	46bd      	mov	sp, r7
 8004d0c:	bd80      	pop	{r7, pc}

08004d0e <HAL_NVIC_SetPriority>:
  *         This parameter can be a value between 0 and 15
  *         A lower priority value indicates a higher priority.          
  * @retval None
  */
void HAL_NVIC_SetPriority(IRQn_Type IRQn, uint32_t PreemptPriority, uint32_t SubPriority)
{ 
 8004d0e:	b580      	push	{r7, lr}
 8004d10:	b086      	sub	sp, #24
 8004d12:	af00      	add	r7, sp, #0
 8004d14:	4603      	mov	r3, r0
 8004d16:	60b9      	str	r1, [r7, #8]
 8004d18:	607a      	str	r2, [r7, #4]
 8004d1a:	73fb      	strb	r3, [r7, #15]
  uint32_t prioritygroup = 0x00U;
 8004d1c:	2300      	movs	r3, #0
 8004d1e:	617b      	str	r3, [r7, #20]
  
  /* Check the parameters */
  assert_param(IS_NVIC_SUB_PRIORITY(SubPriority));
  assert_param(IS_NVIC_PREEMPTION_PRIORITY(PreemptPriority));
  
  prioritygroup = NVIC_GetPriorityGrouping();
 8004d20:	f7ff ff42 	bl	8004ba8 <__NVIC_GetPriorityGrouping>
 8004d24:	6178      	str	r0, [r7, #20]
  
  NVIC_SetPriority(IRQn, NVIC_EncodePriority(prioritygroup, PreemptPriority, SubPriority));
 8004d26:	687a      	ldr	r2, [r7, #4]
 8004d28:	68b9      	ldr	r1, [r7, #8]
 8004d2a:	6978      	ldr	r0, [r7, #20]
 8004d2c:	f7ff ff90 	bl	8004c50 <NVIC_EncodePriority>
 8004d30:	4602      	mov	r2, r0
 8004d32:	f997 300f 	ldrsb.w	r3, [r7, #15]
 8004d36:	4611      	mov	r1, r2
 8004d38:	4618      	mov	r0, r3
 8004d3a:	f7ff ff5f 	bl	8004bfc <__NVIC_SetPriority>
}
 8004d3e:	bf00      	nop
 8004d40:	3718      	adds	r7, #24
 8004d42:	46bd      	mov	sp, r7
 8004d44:	bd80      	pop	{r7, pc}

08004d46 <HAL_NVIC_EnableIRQ>:
  *         This parameter can be an enumerator of IRQn_Type enumeration
  *         (For the complete STM32 Devices IRQ Channels list, please refer to the appropriate CMSIS device file (stm32f10xxx.h))
  * @retval None
  */
void HAL_NVIC_EnableIRQ(IRQn_Type IRQn)
{
 8004d46:	b580      	push	{r7, lr}
 8004d48:	b082      	sub	sp, #8
 8004d4a:	af00      	add	r7, sp, #0
 8004d4c:	4603      	mov	r3, r0
 8004d4e:	71fb      	strb	r3, [r7, #7]
  /* Check the parameters */
  assert_param(IS_NVIC_DEVICE_IRQ(IRQn));

  /* Enable interrupt */
  NVIC_EnableIRQ(IRQn);
 8004d50:	f997 3007 	ldrsb.w	r3, [r7, #7]
 8004d54:	4618      	mov	r0, r3
 8004d56:	f7ff ff35 	bl	8004bc4 <__NVIC_EnableIRQ>
}
 8004d5a:	bf00      	nop
 8004d5c:	3708      	adds	r7, #8
 8004d5e:	46bd      	mov	sp, r7
 8004d60:	bd80      	pop	{r7, pc}

08004d62 <HAL_SYSTICK_Config>:
  * @param  TicksNumb: Specifies the ticks Number of ticks between two interrupts.
  * @retval status:  - 0  Function succeeded.
  *                  - 1  Function failed.
  */
uint32_t HAL_SYSTICK_Config(uint32_t TicksNumb)
{
 8004d62:	b580      	push	{r7, lr}
 8004d64:	b082      	sub	sp, #8
 8004d66:	af00      	add	r7, sp, #0
 8004d68:	6078      	str	r0, [r7, #4]
   return SysTick_Config(TicksNumb);
 8004d6a:	6878      	ldr	r0, [r7, #4]
 8004d6c:	f7ff ffa2 	bl	8004cb4 <SysTick_Config>
 8004d70:	4603      	mov	r3, r0
}
 8004d72:	4618      	mov	r0, r3
 8004d74:	3708      	adds	r7, #8
 8004d76:	46bd      	mov	sp, r7
 8004d78:	bd80      	pop	{r7, pc}

08004d7a <HAL_DMA_Abort>:
  * @param  hdma: pointer to a DMA_HandleTypeDef structure that contains
  *               the configuration information for the specified DMA Channel.
  * @retval HAL status
  */
HAL_StatusTypeDef HAL_DMA_Abort(DMA_HandleTypeDef *hdma)
{
 8004d7a:	b480      	push	{r7}
 8004d7c:	b085      	sub	sp, #20
 8004d7e:	af00      	add	r7, sp, #0
 8004d80:	6078      	str	r0, [r7, #4]
  HAL_StatusTypeDef status = HAL_OK;
 8004d82:	2300      	movs	r3, #0
 8004d84:	73fb      	strb	r3, [r7, #15]
  
  if(hdma->State != HAL_DMA_STATE_BUSY)
 8004d86:	687b      	ldr	r3, [r7, #4]
 8004d88:	f893 3021 	ldrb.w	r3, [r3, #33]	; 0x21
 8004d8c:	2b02      	cmp	r3, #2
 8004d8e:	d008      	beq.n	8004da2 <HAL_DMA_Abort+0x28>
  {
    /* no transfer ongoing */
    hdma->ErrorCode = HAL_DMA_ERROR_NO_XFER;
 8004d90:	687b      	ldr	r3, [r7, #4]
 8004d92:	2204      	movs	r2, #4
 8004d94:	639a      	str	r2, [r3, #56]	; 0x38
    
    /* Process Unlocked */
    __HAL_UNLOCK(hdma);
 8004d96:	687b      	ldr	r3, [r7, #4]
 8004d98:	2200      	movs	r2, #0
 8004d9a:	f883 2020 	strb.w	r2, [r3, #32]
    
    return HAL_ERROR;
 8004d9e:	2301      	movs	r3, #1
 8004da0:	e020      	b.n	8004de4 <HAL_DMA_Abort+0x6a>
  }
  else

  {
    /* Disable DMA IT */
    __HAL_DMA_DISABLE_IT(hdma, (DMA_IT_TC | DMA_IT_HT | DMA_IT_TE));
 8004da2:	687b      	ldr	r3, [r7, #4]
 8004da4:	681b      	ldr	r3, [r3, #0]
 8004da6:	681a      	ldr	r2, [r3, #0]
 8004da8:	687b      	ldr	r3, [r7, #4]
 8004daa:	681b      	ldr	r3, [r3, #0]
 8004dac:	f022 020e 	bic.w	r2, r2, #14
 8004db0:	601a      	str	r2, [r3, #0]
      
    /* Disable the channel */
    __HAL_DMA_DISABLE(hdma);
 8004db2:	687b      	ldr	r3, [r7, #4]
 8004db4:	681b      	ldr	r3, [r3, #0]
 8004db6:	681a      	ldr	r2, [r3, #0]
 8004db8:	687b      	ldr	r3, [r7, #4]
 8004dba:	681b      	ldr	r3, [r3, #0]
 8004dbc:	f022 0201 	bic.w	r2, r2, #1
 8004dc0:	601a      	str	r2, [r3, #0]
      
    /* Clear all flags */
    hdma->DmaBaseAddress->IFCR = (DMA_ISR_GIF1 << hdma->ChannelIndex);
 8004dc2:	687b      	ldr	r3, [r7, #4]
 8004dc4:	6c1a      	ldr	r2, [r3, #64]	; 0x40
 8004dc6:	687b      	ldr	r3, [r7, #4]
 8004dc8:	6bdb      	ldr	r3, [r3, #60]	; 0x3c
 8004dca:	2101      	movs	r1, #1
 8004dcc:	fa01 f202 	lsl.w	r2, r1, r2
 8004dd0:	605a      	str	r2, [r3, #4]
  }
  /* Change the DMA state */
  hdma->State = HAL_DMA_STATE_READY;
 8004dd2:	687b      	ldr	r3, [r7, #4]
 8004dd4:	2201      	movs	r2, #1
 8004dd6:	f883 2021 	strb.w	r2, [r3, #33]	; 0x21

  /* Process Unlocked */
  __HAL_UNLOCK(hdma);      
 8004dda:	687b      	ldr	r3, [r7, #4]
 8004ddc:	2200      	movs	r2, #0
 8004dde:	f883 2020 	strb.w	r2, [r3, #32]
  
  return status; 
 8004de2:	7bfb      	ldrb	r3, [r7, #15]
}
 8004de4:	4618      	mov	r0, r3
 8004de6:	3714      	adds	r7, #20
 8004de8:	46bd      	mov	sp, r7
 8004dea:	bc80      	pop	{r7}
 8004dec:	4770      	bx	lr
	...

08004df0 <HAL_DMA_Abort_IT>:
  * @param  hdma  : pointer to a DMA_HandleTypeDef structure that contains
  *                 the configuration information for the specified DMA Channel.
  * @retval HAL status
  */
HAL_StatusTypeDef HAL_DMA_Abort_IT(DMA_HandleTypeDef *hdma)
{  
 8004df0:	b580      	push	{r7, lr}
 8004df2:	b084      	sub	sp, #16
 8004df4:	af00      	add	r7, sp, #0
 8004df6:	6078      	str	r0, [r7, #4]
  HAL_StatusTypeDef status = HAL_OK;
 8004df8:	2300      	movs	r3, #0
 8004dfa:	73fb      	strb	r3, [r7, #15]
  
  if(HAL_DMA_STATE_BUSY != hdma->State)
 8004dfc:	687b      	ldr	r3, [r7, #4]
 8004dfe:	f893 3021 	ldrb.w	r3, [r3, #33]	; 0x21
 8004e02:	2b02      	cmp	r3, #2
 8004e04:	d005      	beq.n	8004e12 <HAL_DMA_Abort_IT+0x22>
  {
    /* no transfer ongoing */
    hdma->ErrorCode = HAL_DMA_ERROR_NO_XFER;
 8004e06:	687b      	ldr	r3, [r7, #4]
 8004e08:	2204      	movs	r2, #4
 8004e0a:	639a      	str	r2, [r3, #56]	; 0x38
        
    status = HAL_ERROR;
 8004e0c:	2301      	movs	r3, #1
 8004e0e:	73fb      	strb	r3, [r7, #15]
 8004e10:	e051      	b.n	8004eb6 <HAL_DMA_Abort_IT+0xc6>
  }
  else
  { 
    /* Disable DMA IT */
    __HAL_DMA_DISABLE_IT(hdma, (DMA_IT_TC | DMA_IT_HT | DMA_IT_TE));
 8004e12:	687b      	ldr	r3, [r7, #4]
 8004e14:	681b      	ldr	r3, [r3, #0]
 8004e16:	681a      	ldr	r2, [r3, #0]
 8004e18:	687b      	ldr	r3, [r7, #4]
 8004e1a:	681b      	ldr	r3, [r3, #0]
 8004e1c:	f022 020e 	bic.w	r2, r2, #14
 8004e20:	601a      	str	r2, [r3, #0]

    /* Disable the channel */
    __HAL_DMA_DISABLE(hdma);
 8004e22:	687b      	ldr	r3, [r7, #4]
 8004e24:	681b      	ldr	r3, [r3, #0]
 8004e26:	681a      	ldr	r2, [r3, #0]
 8004e28:	687b      	ldr	r3, [r7, #4]
 8004e2a:	681b      	ldr	r3, [r3, #0]
 8004e2c:	f022 0201 	bic.w	r2, r2, #1
 8004e30:	601a      	str	r2, [r3, #0]

    /* Clear all flags */
    __HAL_DMA_CLEAR_FLAG(hdma, __HAL_DMA_GET_GI_FLAG_INDEX(hdma));
 8004e32:	687b      	ldr	r3, [r7, #4]
 8004e34:	681b      	ldr	r3, [r3, #0]
 8004e36:	4a22      	ldr	r2, [pc, #136]	; (8004ec0 <HAL_DMA_Abort_IT+0xd0>)
 8004e38:	4293      	cmp	r3, r2
 8004e3a:	d029      	beq.n	8004e90 <HAL_DMA_Abort_IT+0xa0>
 8004e3c:	687b      	ldr	r3, [r7, #4]
 8004e3e:	681b      	ldr	r3, [r3, #0]
 8004e40:	4a20      	ldr	r2, [pc, #128]	; (8004ec4 <HAL_DMA_Abort_IT+0xd4>)
 8004e42:	4293      	cmp	r3, r2
 8004e44:	d022      	beq.n	8004e8c <HAL_DMA_Abort_IT+0x9c>
 8004e46:	687b      	ldr	r3, [r7, #4]
 8004e48:	681b      	ldr	r3, [r3, #0]
 8004e4a:	4a1f      	ldr	r2, [pc, #124]	; (8004ec8 <HAL_DMA_Abort_IT+0xd8>)
 8004e4c:	4293      	cmp	r3, r2
 8004e4e:	d01a      	beq.n	8004e86 <HAL_DMA_Abort_IT+0x96>
 8004e50:	687b      	ldr	r3, [r7, #4]
 8004e52:	681b      	ldr	r3, [r3, #0]
 8004e54:	4a1d      	ldr	r2, [pc, #116]	; (8004ecc <HAL_DMA_Abort_IT+0xdc>)
 8004e56:	4293      	cmp	r3, r2
 8004e58:	d012      	beq.n	8004e80 <HAL_DMA_Abort_IT+0x90>
 8004e5a:	687b      	ldr	r3, [r7, #4]
 8004e5c:	681b      	ldr	r3, [r3, #0]
 8004e5e:	4a1c      	ldr	r2, [pc, #112]	; (8004ed0 <HAL_DMA_Abort_IT+0xe0>)
 8004e60:	4293      	cmp	r3, r2
 8004e62:	d00a      	beq.n	8004e7a <HAL_DMA_Abort_IT+0x8a>
 8004e64:	687b      	ldr	r3, [r7, #4]
 8004e66:	681b      	ldr	r3, [r3, #0]
 8004e68:	4a1a      	ldr	r2, [pc, #104]	; (8004ed4 <HAL_DMA_Abort_IT+0xe4>)
 8004e6a:	4293      	cmp	r3, r2
 8004e6c:	d102      	bne.n	8004e74 <HAL_DMA_Abort_IT+0x84>
 8004e6e:	f44f 1380 	mov.w	r3, #1048576	; 0x100000
 8004e72:	e00e      	b.n	8004e92 <HAL_DMA_Abort_IT+0xa2>
 8004e74:	f04f 7380 	mov.w	r3, #16777216	; 0x1000000
 8004e78:	e00b      	b.n	8004e92 <HAL_DMA_Abort_IT+0xa2>
 8004e7a:	f44f 3380 	mov.w	r3, #65536	; 0x10000
 8004e7e:	e008      	b.n	8004e92 <HAL_DMA_Abort_IT+0xa2>
 8004e80:	f44f 5380 	mov.w	r3, #4096	; 0x1000
 8004e84:	e005      	b.n	8004e92 <HAL_DMA_Abort_IT+0xa2>
 8004e86:	f44f 7380 	mov.w	r3, #256	; 0x100
 8004e8a:	e002      	b.n	8004e92 <HAL_DMA_Abort_IT+0xa2>
 8004e8c:	2310      	movs	r3, #16
 8004e8e:	e000      	b.n	8004e92 <HAL_DMA_Abort_IT+0xa2>
 8004e90:	2301      	movs	r3, #1
 8004e92:	4a11      	ldr	r2, [pc, #68]	; (8004ed8 <HAL_DMA_Abort_IT+0xe8>)
 8004e94:	6053      	str	r3, [r2, #4]

    /* Change the DMA state */
    hdma->State = HAL_DMA_STATE_READY;
 8004e96:	687b      	ldr	r3, [r7, #4]
 8004e98:	2201      	movs	r2, #1
 8004e9a:	f883 2021 	strb.w	r2, [r3, #33]	; 0x21

    /* Process Unlocked */
    __HAL_UNLOCK(hdma);
 8004e9e:	687b      	ldr	r3, [r7, #4]
 8004ea0:	2200      	movs	r2, #0
 8004ea2:	f883 2020 	strb.w	r2, [r3, #32]

    /* Call User Abort callback */
    if(hdma->XferAbortCallback != NULL)
 8004ea6:	687b      	ldr	r3, [r7, #4]
 8004ea8:	6b5b      	ldr	r3, [r3, #52]	; 0x34
 8004eaa:	2b00      	cmp	r3, #0
 8004eac:	d003      	beq.n	8004eb6 <HAL_DMA_Abort_IT+0xc6>
    {
      hdma->XferAbortCallback(hdma);
 8004eae:	687b      	ldr	r3, [r7, #4]
 8004eb0:	6b5b      	ldr	r3, [r3, #52]	; 0x34
 8004eb2:	6878      	ldr	r0, [r7, #4]
 8004eb4:	4798      	blx	r3
    } 
  }
  return status;
 8004eb6:	7bfb      	ldrb	r3, [r7, #15]
}
 8004eb8:	4618      	mov	r0, r3
 8004eba:	3710      	adds	r7, #16
 8004ebc:	46bd      	mov	sp, r7
 8004ebe:	bd80      	pop	{r7, pc}
 8004ec0:	40020008 	.word	0x40020008
 8004ec4:	4002001c 	.word	0x4002001c
 8004ec8:	40020030 	.word	0x40020030
 8004ecc:	40020044 	.word	0x40020044
 8004ed0:	40020058 	.word	0x40020058
 8004ed4:	4002006c 	.word	0x4002006c
 8004ed8:	40020000 	.word	0x40020000

08004edc <HAL_GPIO_Init>:
  * @param  GPIO_Init: pointer to a GPIO_InitTypeDef structure that contains
  *         the configuration information for the specified GPIO peripheral.
  * @retval None
  */
void HAL_GPIO_Init(GPIO_TypeDef  *GPIOx, GPIO_InitTypeDef *GPIO_Init)
{
 8004edc:	b480      	push	{r7}
 8004ede:	b08b      	sub	sp, #44	; 0x2c
 8004ee0:	af00      	add	r7, sp, #0
 8004ee2:	6078      	str	r0, [r7, #4]
 8004ee4:	6039      	str	r1, [r7, #0]
  uint32_t position = 0x00u;
 8004ee6:	2300      	movs	r3, #0
 8004ee8:	627b      	str	r3, [r7, #36]	; 0x24
  uint32_t ioposition;
  uint32_t iocurrent;
  uint32_t temp;
  uint32_t config = 0x00u;
 8004eea:	2300      	movs	r3, #0
 8004eec:	623b      	str	r3, [r7, #32]
  assert_param(IS_GPIO_ALL_INSTANCE(GPIOx));
  assert_param(IS_GPIO_PIN(GPIO_Init->Pin));
  assert_param(IS_GPIO_MODE(GPIO_Init->Mode));

  /* Configure the port pins */
  while (((GPIO_Init->Pin) >> position) != 0x00u)
 8004eee:	e127      	b.n	8005140 <HAL_GPIO_Init+0x264>
  {
    /* Get the IO position */
    ioposition = (0x01uL << position);
 8004ef0:	2201      	movs	r2, #1
 8004ef2:	6a7b      	ldr	r3, [r7, #36]	; 0x24
 8004ef4:	fa02 f303 	lsl.w	r3, r2, r3
 8004ef8:	61fb      	str	r3, [r7, #28]

    /* Get the current IO position */
    iocurrent = (uint32_t)(GPIO_Init->Pin) & ioposition;
 8004efa:	683b      	ldr	r3, [r7, #0]
 8004efc:	681b      	ldr	r3, [r3, #0]
 8004efe:	69fa      	ldr	r2, [r7, #28]
 8004f00:	4013      	ands	r3, r2
 8004f02:	61bb      	str	r3, [r7, #24]

    if (iocurrent == ioposition)
 8004f04:	69ba      	ldr	r2, [r7, #24]
 8004f06:	69fb      	ldr	r3, [r7, #28]
 8004f08:	429a      	cmp	r2, r3
 8004f0a:	f040 8116 	bne.w	800513a <HAL_GPIO_Init+0x25e>
    {
      /* Check the Alternate function parameters */
      assert_param(IS_GPIO_AF_INSTANCE(GPIOx));

      /* Based on the required mode, filling config variable with MODEy[1:0] and CNFy[3:2] corresponding bits */
      switch (GPIO_Init->Mode)
 8004f0e:	683b      	ldr	r3, [r7, #0]
 8004f10:	685b      	ldr	r3, [r3, #4]
 8004f12:	2b12      	cmp	r3, #18
 8004f14:	d034      	beq.n	8004f80 <HAL_GPIO_Init+0xa4>
 8004f16:	2b12      	cmp	r3, #18
 8004f18:	d80d      	bhi.n	8004f36 <HAL_GPIO_Init+0x5a>
 8004f1a:	2b02      	cmp	r3, #2
 8004f1c:	d02b      	beq.n	8004f76 <HAL_GPIO_Init+0x9a>
 8004f1e:	2b02      	cmp	r3, #2
 8004f20:	d804      	bhi.n	8004f2c <HAL_GPIO_Init+0x50>
 8004f22:	2b00      	cmp	r3, #0
 8004f24:	d031      	beq.n	8004f8a <HAL_GPIO_Init+0xae>
 8004f26:	2b01      	cmp	r3, #1
 8004f28:	d01c      	beq.n	8004f64 <HAL_GPIO_Init+0x88>
          config = GPIO_CR_MODE_INPUT + GPIO_CR_CNF_ANALOG;
          break;

        /* Parameters are checked with assert_param */
        default:
          break;
 8004f2a:	e048      	b.n	8004fbe <HAL_GPIO_Init+0xe2>
      switch (GPIO_Init->Mode)
 8004f2c:	2b03      	cmp	r3, #3
 8004f2e:	d043      	beq.n	8004fb8 <HAL_GPIO_Init+0xdc>
 8004f30:	2b11      	cmp	r3, #17
 8004f32:	d01b      	beq.n	8004f6c <HAL_GPIO_Init+0x90>
          break;
 8004f34:	e043      	b.n	8004fbe <HAL_GPIO_Init+0xe2>
      switch (GPIO_Init->Mode)
 8004f36:	4a89      	ldr	r2, [pc, #548]	; (800515c <HAL_GPIO_Init+0x280>)
 8004f38:	4293      	cmp	r3, r2
 8004f3a:	d026      	beq.n	8004f8a <HAL_GPIO_Init+0xae>
 8004f3c:	4a87      	ldr	r2, [pc, #540]	; (800515c <HAL_GPIO_Init+0x280>)
 8004f3e:	4293      	cmp	r3, r2
 8004f40:	d806      	bhi.n	8004f50 <HAL_GPIO_Init+0x74>
 8004f42:	4a87      	ldr	r2, [pc, #540]	; (8005160 <HAL_GPIO_Init+0x284>)
 8004f44:	4293      	cmp	r3, r2
 8004f46:	d020      	beq.n	8004f8a <HAL_GPIO_Init+0xae>
 8004f48:	4a86      	ldr	r2, [pc, #536]	; (8005164 <HAL_GPIO_Init+0x288>)
 8004f4a:	4293      	cmp	r3, r2
 8004f4c:	d01d      	beq.n	8004f8a <HAL_GPIO_Init+0xae>
          break;
 8004f4e:	e036      	b.n	8004fbe <HAL_GPIO_Init+0xe2>
      switch (GPIO_Init->Mode)
 8004f50:	4a85      	ldr	r2, [pc, #532]	; (8005168 <HAL_GPIO_Init+0x28c>)
 8004f52:	4293      	cmp	r3, r2
 8004f54:	d019      	beq.n	8004f8a <HAL_GPIO_Init+0xae>
 8004f56:	4a85      	ldr	r2, [pc, #532]	; (800516c <HAL_GPIO_Init+0x290>)
 8004f58:	4293      	cmp	r3, r2
 8004f5a:	d016      	beq.n	8004f8a <HAL_GPIO_Init+0xae>
 8004f5c:	4a84      	ldr	r2, [pc, #528]	; (8005170 <HAL_GPIO_Init+0x294>)
 8004f5e:	4293      	cmp	r3, r2
 8004f60:	d013      	beq.n	8004f8a <HAL_GPIO_Init+0xae>
          break;
 8004f62:	e02c      	b.n	8004fbe <HAL_GPIO_Init+0xe2>
          config = GPIO_Init->Speed + GPIO_CR_CNF_GP_OUTPUT_PP;
 8004f64:	683b      	ldr	r3, [r7, #0]
 8004f66:	68db      	ldr	r3, [r3, #12]
 8004f68:	623b      	str	r3, [r7, #32]
          break;
 8004f6a:	e028      	b.n	8004fbe <HAL_GPIO_Init+0xe2>
          config = GPIO_Init->Speed + GPIO_CR_CNF_GP_OUTPUT_OD;
 8004f6c:	683b      	ldr	r3, [r7, #0]
 8004f6e:	68db      	ldr	r3, [r3, #12]
 8004f70:	3304      	adds	r3, #4
 8004f72:	623b      	str	r3, [r7, #32]
          break;
 8004f74:	e023      	b.n	8004fbe <HAL_GPIO_Init+0xe2>
          config = GPIO_Init->Speed + GPIO_CR_CNF_AF_OUTPUT_PP;
 8004f76:	683b      	ldr	r3, [r7, #0]
 8004f78:	68db      	ldr	r3, [r3, #12]
 8004f7a:	3308      	adds	r3, #8
 8004f7c:	623b      	str	r3, [r7, #32]
          break;
 8004f7e:	e01e      	b.n	8004fbe <HAL_GPIO_Init+0xe2>
          config = GPIO_Init->Speed + GPIO_CR_CNF_AF_OUTPUT_OD;
 8004f80:	683b      	ldr	r3, [r7, #0]
 8004f82:	68db      	ldr	r3, [r3, #12]
 8004f84:	330c      	adds	r3, #12
 8004f86:	623b      	str	r3, [r7, #32]
          break;
 8004f88:	e019      	b.n	8004fbe <HAL_GPIO_Init+0xe2>
          if (GPIO_Init->Pull == GPIO_NOPULL)
 8004f8a:	683b      	ldr	r3, [r7, #0]
 8004f8c:	689b      	ldr	r3, [r3, #8]
 8004f8e:	2b00      	cmp	r3, #0
 8004f90:	d102      	bne.n	8004f98 <HAL_GPIO_Init+0xbc>
            config = GPIO_CR_MODE_INPUT + GPIO_CR_CNF_INPUT_FLOATING;
 8004f92:	2304      	movs	r3, #4
 8004f94:	623b      	str	r3, [r7, #32]
          break;
 8004f96:	e012      	b.n	8004fbe <HAL_GPIO_Init+0xe2>
          else if (GPIO_Init->Pull == GPIO_PULLUP)
 8004f98:	683b      	ldr	r3, [r7, #0]
 8004f9a:	689b      	ldr	r3, [r3, #8]
 8004f9c:	2b01      	cmp	r3, #1
 8004f9e:	d105      	bne.n	8004fac <HAL_GPIO_Init+0xd0>
            config = GPIO_CR_MODE_INPUT + GPIO_CR_CNF_INPUT_PU_PD;
 8004fa0:	2308      	movs	r3, #8
 8004fa2:	623b      	str	r3, [r7, #32]
            GPIOx->BSRR = ioposition;
 8004fa4:	687b      	ldr	r3, [r7, #4]
 8004fa6:	69fa      	ldr	r2, [r7, #28]
 8004fa8:	611a      	str	r2, [r3, #16]
          break;
 8004faa:	e008      	b.n	8004fbe <HAL_GPIO_Init+0xe2>
            config = GPIO_CR_MODE_INPUT + GPIO_CR_CNF_INPUT_PU_PD;
 8004fac:	2308      	movs	r3, #8
 8004fae:	623b      	str	r3, [r7, #32]
            GPIOx->BRR = ioposition;
 8004fb0:	687b      	ldr	r3, [r7, #4]
 8004fb2:	69fa      	ldr	r2, [r7, #28]
 8004fb4:	615a      	str	r2, [r3, #20]
          break;
 8004fb6:	e002      	b.n	8004fbe <HAL_GPIO_Init+0xe2>
          config = GPIO_CR_MODE_INPUT + GPIO_CR_CNF_ANALOG;
 8004fb8:	2300      	movs	r3, #0
 8004fba:	623b      	str	r3, [r7, #32]
          break;
 8004fbc:	bf00      	nop
      }

      /* Check if the current bit belongs to first half or last half of the pin count number
       in order to address CRH or CRL register*/
      configregister = (iocurrent < GPIO_PIN_8) ? &GPIOx->CRL     : &GPIOx->CRH;
 8004fbe:	69bb      	ldr	r3, [r7, #24]
 8004fc0:	2bff      	cmp	r3, #255	; 0xff
 8004fc2:	d801      	bhi.n	8004fc8 <HAL_GPIO_Init+0xec>
 8004fc4:	687b      	ldr	r3, [r7, #4]
 8004fc6:	e001      	b.n	8004fcc <HAL_GPIO_Init+0xf0>
 8004fc8:	687b      	ldr	r3, [r7, #4]
 8004fca:	3304      	adds	r3, #4
 8004fcc:	617b      	str	r3, [r7, #20]
      registeroffset = (iocurrent < GPIO_PIN_8) ? (position << 2u) : ((position - 8u) << 2u);
 8004fce:	69bb      	ldr	r3, [r7, #24]
 8004fd0:	2bff      	cmp	r3, #255	; 0xff
 8004fd2:	d802      	bhi.n	8004fda <HAL_GPIO_Init+0xfe>
 8004fd4:	6a7b      	ldr	r3, [r7, #36]	; 0x24
 8004fd6:	009b      	lsls	r3, r3, #2
 8004fd8:	e002      	b.n	8004fe0 <HAL_GPIO_Init+0x104>
 8004fda:	6a7b      	ldr	r3, [r7, #36]	; 0x24
 8004fdc:	3b08      	subs	r3, #8
 8004fde:	009b      	lsls	r3, r3, #2
 8004fe0:	613b      	str	r3, [r7, #16]

      /* Apply the new configuration of the pin to the register */
      MODIFY_REG((*configregister), ((GPIO_CRL_MODE0 | GPIO_CRL_CNF0) << registeroffset), (config << registeroffset));
 8004fe2:	697b      	ldr	r3, [r7, #20]
 8004fe4:	681a      	ldr	r2, [r3, #0]
 8004fe6:	210f      	movs	r1, #15
 8004fe8:	693b      	ldr	r3, [r7, #16]
 8004fea:	fa01 f303 	lsl.w	r3, r1, r3
 8004fee:	43db      	mvns	r3, r3
 8004ff0:	401a      	ands	r2, r3
 8004ff2:	6a39      	ldr	r1, [r7, #32]
 8004ff4:	693b      	ldr	r3, [r7, #16]
 8004ff6:	fa01 f303 	lsl.w	r3, r1, r3
 8004ffa:	431a      	orrs	r2, r3
 8004ffc:	697b      	ldr	r3, [r7, #20]
 8004ffe:	601a      	str	r2, [r3, #0]

      /*--------------------- EXTI Mode Configuration ------------------------*/
      /* Configure the External Interrupt or event for the current IO */
      if ((GPIO_Init->Mode & EXTI_MODE) == EXTI_MODE)
 8005000:	683b      	ldr	r3, [r7, #0]
 8005002:	685b      	ldr	r3, [r3, #4]
 8005004:	f003 5380 	and.w	r3, r3, #268435456	; 0x10000000
 8005008:	2b00      	cmp	r3, #0
 800500a:	f000 8096 	beq.w	800513a <HAL_GPIO_Init+0x25e>
      {
        /* Enable AFIO Clock */
        __HAL_RCC_AFIO_CLK_ENABLE();
 800500e:	4b59      	ldr	r3, [pc, #356]	; (8005174 <HAL_GPIO_Init+0x298>)
 8005010:	699b      	ldr	r3, [r3, #24]
 8005012:	4a58      	ldr	r2, [pc, #352]	; (8005174 <HAL_GPIO_Init+0x298>)
 8005014:	f043 0301 	orr.w	r3, r3, #1
 8005018:	6193      	str	r3, [r2, #24]
 800501a:	4b56      	ldr	r3, [pc, #344]	; (8005174 <HAL_GPIO_Init+0x298>)
 800501c:	699b      	ldr	r3, [r3, #24]
 800501e:	f003 0301 	and.w	r3, r3, #1
 8005022:	60bb      	str	r3, [r7, #8]
 8005024:	68bb      	ldr	r3, [r7, #8]
        temp = AFIO->EXTICR[position >> 2u];
 8005026:	4a54      	ldr	r2, [pc, #336]	; (8005178 <HAL_GPIO_Init+0x29c>)
 8005028:	6a7b      	ldr	r3, [r7, #36]	; 0x24
 800502a:	089b      	lsrs	r3, r3, #2
 800502c:	3302      	adds	r3, #2
 800502e:	f852 3023 	ldr.w	r3, [r2, r3, lsl #2]
 8005032:	60fb      	str	r3, [r7, #12]
        CLEAR_BIT(temp, (0x0Fu) << (4u * (position & 0x03u)));
 8005034:	6a7b      	ldr	r3, [r7, #36]	; 0x24
 8005036:	f003 0303 	and.w	r3, r3, #3
 800503a:	009b      	lsls	r3, r3, #2
 800503c:	220f      	movs	r2, #15
 800503e:	fa02 f303 	lsl.w	r3, r2, r3
 8005042:	43db      	mvns	r3, r3
 8005044:	68fa      	ldr	r2, [r7, #12]
 8005046:	4013      	ands	r3, r2
 8005048:	60fb      	str	r3, [r7, #12]
        SET_BIT(temp, (GPIO_GET_INDEX(GPIOx)) << (4u * (position & 0x03u)));
 800504a:	687b      	ldr	r3, [r7, #4]
 800504c:	4a4b      	ldr	r2, [pc, #300]	; (800517c <HAL_GPIO_Init+0x2a0>)
 800504e:	4293      	cmp	r3, r2
 8005050:	d013      	beq.n	800507a <HAL_GPIO_Init+0x19e>
 8005052:	687b      	ldr	r3, [r7, #4]
 8005054:	4a4a      	ldr	r2, [pc, #296]	; (8005180 <HAL_GPIO_Init+0x2a4>)
 8005056:	4293      	cmp	r3, r2
 8005058:	d00d      	beq.n	8005076 <HAL_GPIO_Init+0x19a>
 800505a:	687b      	ldr	r3, [r7, #4]
 800505c:	4a49      	ldr	r2, [pc, #292]	; (8005184 <HAL_GPIO_Init+0x2a8>)
 800505e:	4293      	cmp	r3, r2
 8005060:	d007      	beq.n	8005072 <HAL_GPIO_Init+0x196>
 8005062:	687b      	ldr	r3, [r7, #4]
 8005064:	4a48      	ldr	r2, [pc, #288]	; (8005188 <HAL_GPIO_Init+0x2ac>)
 8005066:	4293      	cmp	r3, r2
 8005068:	d101      	bne.n	800506e <HAL_GPIO_Init+0x192>
 800506a:	2303      	movs	r3, #3
 800506c:	e006      	b.n	800507c <HAL_GPIO_Init+0x1a0>
 800506e:	2304      	movs	r3, #4
 8005070:	e004      	b.n	800507c <HAL_GPIO_Init+0x1a0>
 8005072:	2302      	movs	r3, #2
 8005074:	e002      	b.n	800507c <HAL_GPIO_Init+0x1a0>
 8005076:	2301      	movs	r3, #1
 8005078:	e000      	b.n	800507c <HAL_GPIO_Init+0x1a0>
 800507a:	2300      	movs	r3, #0
 800507c:	6a7a      	ldr	r2, [r7, #36]	; 0x24
 800507e:	f002 0203 	and.w	r2, r2, #3
 8005082:	0092      	lsls	r2, r2, #2
 8005084:	4093      	lsls	r3, r2
 8005086:	68fa      	ldr	r2, [r7, #12]
 8005088:	4313      	orrs	r3, r2
 800508a:	60fb      	str	r3, [r7, #12]
        AFIO->EXTICR[position >> 2u] = temp;
 800508c:	493a      	ldr	r1, [pc, #232]	; (8005178 <HAL_GPIO_Init+0x29c>)
 800508e:	6a7b      	ldr	r3, [r7, #36]	; 0x24
 8005090:	089b      	lsrs	r3, r3, #2
 8005092:	3302      	adds	r3, #2
 8005094:	68fa      	ldr	r2, [r7, #12]
 8005096:	f841 2023 	str.w	r2, [r1, r3, lsl #2]


        /* Configure the interrupt mask */
        if ((GPIO_Init->Mode & GPIO_MODE_IT) == GPIO_MODE_IT)
 800509a:	683b      	ldr	r3, [r7, #0]
 800509c:	685b      	ldr	r3, [r3, #4]
 800509e:	f403 3380 	and.w	r3, r3, #65536	; 0x10000
 80050a2:	2b00      	cmp	r3, #0
 80050a4:	d006      	beq.n	80050b4 <HAL_GPIO_Init+0x1d8>
        {
          SET_BIT(EXTI->IMR, iocurrent);
 80050a6:	4b39      	ldr	r3, [pc, #228]	; (800518c <HAL_GPIO_Init+0x2b0>)
 80050a8:	681a      	ldr	r2, [r3, #0]
 80050aa:	4938      	ldr	r1, [pc, #224]	; (800518c <HAL_GPIO_Init+0x2b0>)
 80050ac:	69bb      	ldr	r3, [r7, #24]
 80050ae:	4313      	orrs	r3, r2
 80050b0:	600b      	str	r3, [r1, #0]
 80050b2:	e006      	b.n	80050c2 <HAL_GPIO_Init+0x1e6>
        }
        else
        {
          CLEAR_BIT(EXTI->IMR, iocurrent);
 80050b4:	4b35      	ldr	r3, [pc, #212]	; (800518c <HAL_GPIO_Init+0x2b0>)
 80050b6:	681a      	ldr	r2, [r3, #0]
 80050b8:	69bb      	ldr	r3, [r7, #24]
 80050ba:	43db      	mvns	r3, r3
 80050bc:	4933      	ldr	r1, [pc, #204]	; (800518c <HAL_GPIO_Init+0x2b0>)
 80050be:	4013      	ands	r3, r2
 80050c0:	600b      	str	r3, [r1, #0]
        }

        /* Configure the event mask */
        if ((GPIO_Init->Mode & GPIO_MODE_EVT) == GPIO_MODE_EVT)
 80050c2:	683b      	ldr	r3, [r7, #0]
 80050c4:	685b      	ldr	r3, [r3, #4]
 80050c6:	f403 3300 	and.w	r3, r3, #131072	; 0x20000
 80050ca:	2b00      	cmp	r3, #0
 80050cc:	d006      	beq.n	80050dc <HAL_GPIO_Init+0x200>
        {
          SET_BIT(EXTI->EMR, iocurrent);
 80050ce:	4b2f      	ldr	r3, [pc, #188]	; (800518c <HAL_GPIO_Init+0x2b0>)
 80050d0:	685a      	ldr	r2, [r3, #4]
 80050d2:	492e      	ldr	r1, [pc, #184]	; (800518c <HAL_GPIO_Init+0x2b0>)
 80050d4:	69bb      	ldr	r3, [r7, #24]
 80050d6:	4313      	orrs	r3, r2
 80050d8:	604b      	str	r3, [r1, #4]
 80050da:	e006      	b.n	80050ea <HAL_GPIO_Init+0x20e>
        }
        else
        {
          CLEAR_BIT(EXTI->EMR, iocurrent);
 80050dc:	4b2b      	ldr	r3, [pc, #172]	; (800518c <HAL_GPIO_Init+0x2b0>)
 80050de:	685a      	ldr	r2, [r3, #4]
 80050e0:	69bb      	ldr	r3, [r7, #24]
 80050e2:	43db      	mvns	r3, r3
 80050e4:	4929      	ldr	r1, [pc, #164]	; (800518c <HAL_GPIO_Init+0x2b0>)
 80050e6:	4013      	ands	r3, r2
 80050e8:	604b      	str	r3, [r1, #4]
        }

        /* Enable or disable the rising trigger */
        if ((GPIO_Init->Mode & RISING_EDGE) == RISING_EDGE)
 80050ea:	683b      	ldr	r3, [r7, #0]
 80050ec:	685b      	ldr	r3, [r3, #4]
 80050ee:	f403 1380 	and.w	r3, r3, #1048576	; 0x100000
 80050f2:	2b00      	cmp	r3, #0
 80050f4:	d006      	beq.n	8005104 <HAL_GPIO_Init+0x228>
        {
          SET_BIT(EXTI->RTSR, iocurrent);
 80050f6:	4b25      	ldr	r3, [pc, #148]	; (800518c <HAL_GPIO_Init+0x2b0>)
 80050f8:	689a      	ldr	r2, [r3, #8]
 80050fa:	4924      	ldr	r1, [pc, #144]	; (800518c <HAL_GPIO_Init+0x2b0>)
 80050fc:	69bb      	ldr	r3, [r7, #24]
 80050fe:	4313      	orrs	r3, r2
 8005100:	608b      	str	r3, [r1, #8]
 8005102:	e006      	b.n	8005112 <HAL_GPIO_Init+0x236>
        }
        else
        {
          CLEAR_BIT(EXTI->RTSR, iocurrent);
 8005104:	4b21      	ldr	r3, [pc, #132]	; (800518c <HAL_GPIO_Init+0x2b0>)
 8005106:	689a      	ldr	r2, [r3, #8]
 8005108:	69bb      	ldr	r3, [r7, #24]
 800510a:	43db      	mvns	r3, r3
 800510c:	491f      	ldr	r1, [pc, #124]	; (800518c <HAL_GPIO_Init+0x2b0>)
 800510e:	4013      	ands	r3, r2
 8005110:	608b      	str	r3, [r1, #8]
        }

        /* Enable or disable the falling trigger */
        if ((GPIO_Init->Mode & FALLING_EDGE) == FALLING_EDGE)
 8005112:	683b      	ldr	r3, [r7, #0]
 8005114:	685b      	ldr	r3, [r3, #4]
 8005116:	f403 1300 	and.w	r3, r3, #2097152	; 0x200000
 800511a:	2b00      	cmp	r3, #0
 800511c:	d006      	beq.n	800512c <HAL_GPIO_Init+0x250>
        {
          SET_BIT(EXTI->FTSR, iocurrent);
 800511e:	4b1b      	ldr	r3, [pc, #108]	; (800518c <HAL_GPIO_Init+0x2b0>)
 8005120:	68da      	ldr	r2, [r3, #12]
 8005122:	491a      	ldr	r1, [pc, #104]	; (800518c <HAL_GPIO_Init+0x2b0>)
 8005124:	69bb      	ldr	r3, [r7, #24]
 8005126:	4313      	orrs	r3, r2
 8005128:	60cb      	str	r3, [r1, #12]
 800512a:	e006      	b.n	800513a <HAL_GPIO_Init+0x25e>
        }
        else
        {
          CLEAR_BIT(EXTI->FTSR, iocurrent);
 800512c:	4b17      	ldr	r3, [pc, #92]	; (800518c <HAL_GPIO_Init+0x2b0>)
 800512e:	68da      	ldr	r2, [r3, #12]
 8005130:	69bb      	ldr	r3, [r7, #24]
 8005132:	43db      	mvns	r3, r3
 8005134:	4915      	ldr	r1, [pc, #84]	; (800518c <HAL_GPIO_Init+0x2b0>)
 8005136:	4013      	ands	r3, r2
 8005138:	60cb      	str	r3, [r1, #12]
        }
      }
    }

	position++;
 800513a:	6a7b      	ldr	r3, [r7, #36]	; 0x24
 800513c:	3301      	adds	r3, #1
 800513e:	627b      	str	r3, [r7, #36]	; 0x24
  while (((GPIO_Init->Pin) >> position) != 0x00u)
 8005140:	683b      	ldr	r3, [r7, #0]
 8005142:	681a      	ldr	r2, [r3, #0]
 8005144:	6a7b      	ldr	r3, [r7, #36]	; 0x24
 8005146:	fa22 f303 	lsr.w	r3, r2, r3
 800514a:	2b00      	cmp	r3, #0
 800514c:	f47f aed0 	bne.w	8004ef0 <HAL_GPIO_Init+0x14>
  }
}
 8005150:	bf00      	nop
 8005152:	372c      	adds	r7, #44	; 0x2c
 8005154:	46bd      	mov	sp, r7
 8005156:	bc80      	pop	{r7}
 8005158:	4770      	bx	lr
 800515a:	bf00      	nop
 800515c:	10210000 	.word	0x10210000
 8005160:	10110000 	.word	0x10110000
 8005164:	10120000 	.word	0x10120000
 8005168:	10310000 	.word	0x10310000
 800516c:	10320000 	.word	0x10320000
 8005170:	10220000 	.word	0x10220000
 8005174:	40021000 	.word	0x40021000
 8005178:	40010000 	.word	0x40010000
 800517c:	40010800 	.word	0x40010800
 8005180:	40010c00 	.word	0x40010c00
 8005184:	40011000 	.word	0x40011000
 8005188:	40011400 	.word	0x40011400
 800518c:	40010400 	.word	0x40010400

08005190 <HAL_GPIO_WritePin>:
  *            @arg GPIO_PIN_RESET: to clear the port pin
  *            @arg GPIO_PIN_SET: to set the port pin
  * @retval None
  */
void HAL_GPIO_WritePin(GPIO_TypeDef *GPIOx, uint16_t GPIO_Pin, GPIO_PinState PinState)
{
 8005190:	b480      	push	{r7}
 8005192:	b083      	sub	sp, #12
 8005194:	af00      	add	r7, sp, #0
 8005196:	6078      	str	r0, [r7, #4]
 8005198:	460b      	mov	r3, r1
 800519a:	807b      	strh	r3, [r7, #2]
 800519c:	4613      	mov	r3, r2
 800519e:	707b      	strb	r3, [r7, #1]
  /* Check the parameters */
  assert_param(IS_GPIO_PIN(GPIO_Pin));
  assert_param(IS_GPIO_PIN_ACTION(PinState));

  if (PinState != GPIO_PIN_RESET)
 80051a0:	787b      	ldrb	r3, [r7, #1]
 80051a2:	2b00      	cmp	r3, #0
 80051a4:	d003      	beq.n	80051ae <HAL_GPIO_WritePin+0x1e>
  {
    GPIOx->BSRR = GPIO_Pin;
 80051a6:	887a      	ldrh	r2, [r7, #2]
 80051a8:	687b      	ldr	r3, [r7, #4]
 80051aa:	611a      	str	r2, [r3, #16]
  }
  else
  {
    GPIOx->BSRR = (uint32_t)GPIO_Pin << 16u;
  }
}
 80051ac:	e003      	b.n	80051b6 <HAL_GPIO_WritePin+0x26>
    GPIOx->BSRR = (uint32_t)GPIO_Pin << 16u;
 80051ae:	887b      	ldrh	r3, [r7, #2]
 80051b0:	041a      	lsls	r2, r3, #16
 80051b2:	687b      	ldr	r3, [r7, #4]
 80051b4:	611a      	str	r2, [r3, #16]
}
 80051b6:	bf00      	nop
 80051b8:	370c      	adds	r7, #12
 80051ba:	46bd      	mov	sp, r7
 80051bc:	bc80      	pop	{r7}
 80051be:	4770      	bx	lr

080051c0 <HAL_I2C_Init>:
  * @param  hi2c Pointer to a I2C_HandleTypeDef structure that contains
  *                the configuration information for the specified I2C.
  * @retval HAL status
  */
HAL_StatusTypeDef HAL_I2C_Init(I2C_HandleTypeDef *hi2c)
{
 80051c0:	b580      	push	{r7, lr}
 80051c2:	b084      	sub	sp, #16
 80051c4:	af00      	add	r7, sp, #0
 80051c6:	6078      	str	r0, [r7, #4]
  uint32_t freqrange;
  uint32_t pclk1;

  /* Check the I2C handle allocation */
  if (hi2c == NULL)
 80051c8:	687b      	ldr	r3, [r7, #4]
 80051ca:	2b00      	cmp	r3, #0
 80051cc:	d101      	bne.n	80051d2 <HAL_I2C_Init+0x12>
  {
    return HAL_ERROR;
 80051ce:	2301      	movs	r3, #1
 80051d0:	e11f      	b.n	8005412 <HAL_I2C_Init+0x252>
  assert_param(IS_I2C_DUAL_ADDRESS(hi2c->Init.DualAddressMode));
  assert_param(IS_I2C_OWN_ADDRESS2(hi2c->Init.OwnAddress2));
  assert_param(IS_I2C_GENERAL_CALL(hi2c->Init.GeneralCallMode));
  assert_param(IS_I2C_NO_STRETCH(hi2c->Init.NoStretchMode));

  if (hi2c->State == HAL_I2C_STATE_RESET)
 80051d2:	687b      	ldr	r3, [r7, #4]
 80051d4:	f893 303d 	ldrb.w	r3, [r3, #61]	; 0x3d
 80051d8:	b2db      	uxtb	r3, r3
 80051da:	2b00      	cmp	r3, #0
 80051dc:	d106      	bne.n	80051ec <HAL_I2C_Init+0x2c>
  {
    /* Allocate lock resource and initialize it */
    hi2c->Lock = HAL_UNLOCKED;
 80051de:	687b      	ldr	r3, [r7, #4]
 80051e0:	2200      	movs	r2, #0
 80051e2:	f883 203c 	strb.w	r2, [r3, #60]	; 0x3c

    /* Init the low level hardware : GPIO, CLOCK, NVIC */
    hi2c->MspInitCallback(hi2c);
#else
    /* Init the low level hardware : GPIO, CLOCK, NVIC */
    HAL_I2C_MspInit(hi2c);
 80051e6:	6878      	ldr	r0, [r7, #4]
 80051e8:	f7ff fa8e 	bl	8004708 <HAL_I2C_MspInit>
#endif /* USE_HAL_I2C_REGISTER_CALLBACKS */
  }

  hi2c->State = HAL_I2C_STATE_BUSY;
 80051ec:	687b      	ldr	r3, [r7, #4]
 80051ee:	2224      	movs	r2, #36	; 0x24
 80051f0:	f883 203d 	strb.w	r2, [r3, #61]	; 0x3d

  /* Disable the selected I2C peripheral */
  __HAL_I2C_DISABLE(hi2c);
 80051f4:	687b      	ldr	r3, [r7, #4]
 80051f6:	681b      	ldr	r3, [r3, #0]
 80051f8:	681a      	ldr	r2, [r3, #0]
 80051fa:	687b      	ldr	r3, [r7, #4]
 80051fc:	681b      	ldr	r3, [r3, #0]
 80051fe:	f022 0201 	bic.w	r2, r2, #1
 8005202:	601a      	str	r2, [r3, #0]

  /*Reset I2C*/
  hi2c->Instance->CR1 |= I2C_CR1_SWRST;
 8005204:	687b      	ldr	r3, [r7, #4]
 8005206:	681b      	ldr	r3, [r3, #0]
 8005208:	681a      	ldr	r2, [r3, #0]
 800520a:	687b      	ldr	r3, [r7, #4]
 800520c:	681b      	ldr	r3, [r3, #0]
 800520e:	f442 4200 	orr.w	r2, r2, #32768	; 0x8000
 8005212:	601a      	str	r2, [r3, #0]
  hi2c->Instance->CR1 &= ~I2C_CR1_SWRST;
 8005214:	687b      	ldr	r3, [r7, #4]
 8005216:	681b      	ldr	r3, [r3, #0]
 8005218:	681a      	ldr	r2, [r3, #0]
 800521a:	687b      	ldr	r3, [r7, #4]
 800521c:	681b      	ldr	r3, [r3, #0]
 800521e:	f422 4200 	bic.w	r2, r2, #32768	; 0x8000
 8005222:	601a      	str	r2, [r3, #0]

  /* Get PCLK1 frequency */
  pclk1 = HAL_RCC_GetPCLK1Freq();
 8005224:	f001 fb90 	bl	8006948 <HAL_RCC_GetPCLK1Freq>
 8005228:	60f8      	str	r0, [r7, #12]

  /* Check the minimum allowed PCLK1 frequency */
  if (I2C_MIN_PCLK_FREQ(pclk1, hi2c->Init.ClockSpeed) == 1U)
 800522a:	687b      	ldr	r3, [r7, #4]
 800522c:	685b      	ldr	r3, [r3, #4]
 800522e:	4a7b      	ldr	r2, [pc, #492]	; (800541c <HAL_I2C_Init+0x25c>)
 8005230:	4293      	cmp	r3, r2
 8005232:	d807      	bhi.n	8005244 <HAL_I2C_Init+0x84>
 8005234:	68fb      	ldr	r3, [r7, #12]
 8005236:	4a7a      	ldr	r2, [pc, #488]	; (8005420 <HAL_I2C_Init+0x260>)
 8005238:	4293      	cmp	r3, r2
 800523a:	bf94      	ite	ls
 800523c:	2301      	movls	r3, #1
 800523e:	2300      	movhi	r3, #0
 8005240:	b2db      	uxtb	r3, r3
 8005242:	e006      	b.n	8005252 <HAL_I2C_Init+0x92>
 8005244:	68fb      	ldr	r3, [r7, #12]
 8005246:	4a77      	ldr	r2, [pc, #476]	; (8005424 <HAL_I2C_Init+0x264>)
 8005248:	4293      	cmp	r3, r2
 800524a:	bf94      	ite	ls
 800524c:	2301      	movls	r3, #1
 800524e:	2300      	movhi	r3, #0
 8005250:	b2db      	uxtb	r3, r3
 8005252:	2b00      	cmp	r3, #0
 8005254:	d001      	beq.n	800525a <HAL_I2C_Init+0x9a>
  {
    return HAL_ERROR;
 8005256:	2301      	movs	r3, #1
 8005258:	e0db      	b.n	8005412 <HAL_I2C_Init+0x252>
  }

  /* Calculate frequency range */
  freqrange = I2C_FREQRANGE(pclk1);
 800525a:	68fb      	ldr	r3, [r7, #12]
 800525c:	4a72      	ldr	r2, [pc, #456]	; (8005428 <HAL_I2C_Init+0x268>)
 800525e:	fba2 2303 	umull	r2, r3, r2, r3
 8005262:	0c9b      	lsrs	r3, r3, #18
 8005264:	60bb      	str	r3, [r7, #8]

  /*---------------------------- I2Cx CR2 Configuration ----------------------*/
  /* Configure I2Cx: Frequency range */
  MODIFY_REG(hi2c->Instance->CR2, I2C_CR2_FREQ, freqrange);
 8005266:	687b      	ldr	r3, [r7, #4]
 8005268:	681b      	ldr	r3, [r3, #0]
 800526a:	685b      	ldr	r3, [r3, #4]
 800526c:	f023 013f 	bic.w	r1, r3, #63	; 0x3f
 8005270:	687b      	ldr	r3, [r7, #4]
 8005272:	681b      	ldr	r3, [r3, #0]
 8005274:	68ba      	ldr	r2, [r7, #8]
 8005276:	430a      	orrs	r2, r1
 8005278:	605a      	str	r2, [r3, #4]

  /*---------------------------- I2Cx TRISE Configuration --------------------*/
  /* Configure I2Cx: Rise Time */
  MODIFY_REG(hi2c->Instance->TRISE, I2C_TRISE_TRISE, I2C_RISE_TIME(freqrange, hi2c->Init.ClockSpeed));
 800527a:	687b      	ldr	r3, [r7, #4]
 800527c:	681b      	ldr	r3, [r3, #0]
 800527e:	6a1b      	ldr	r3, [r3, #32]
 8005280:	f023 013f 	bic.w	r1, r3, #63	; 0x3f
 8005284:	687b      	ldr	r3, [r7, #4]
 8005286:	685b      	ldr	r3, [r3, #4]
 8005288:	4a64      	ldr	r2, [pc, #400]	; (800541c <HAL_I2C_Init+0x25c>)
 800528a:	4293      	cmp	r3, r2
 800528c:	d802      	bhi.n	8005294 <HAL_I2C_Init+0xd4>
 800528e:	68bb      	ldr	r3, [r7, #8]
 8005290:	3301      	adds	r3, #1
 8005292:	e009      	b.n	80052a8 <HAL_I2C_Init+0xe8>
 8005294:	68bb      	ldr	r3, [r7, #8]
 8005296:	f44f 7296 	mov.w	r2, #300	; 0x12c
 800529a:	fb02 f303 	mul.w	r3, r2, r3
 800529e:	4a63      	ldr	r2, [pc, #396]	; (800542c <HAL_I2C_Init+0x26c>)
 80052a0:	fba2 2303 	umull	r2, r3, r2, r3
 80052a4:	099b      	lsrs	r3, r3, #6
 80052a6:	3301      	adds	r3, #1
 80052a8:	687a      	ldr	r2, [r7, #4]
 80052aa:	6812      	ldr	r2, [r2, #0]
 80052ac:	430b      	orrs	r3, r1
 80052ae:	6213      	str	r3, [r2, #32]

  /*---------------------------- I2Cx CCR Configuration ----------------------*/
  /* Configure I2Cx: Speed */
  MODIFY_REG(hi2c->Instance->CCR, (I2C_CCR_FS | I2C_CCR_DUTY | I2C_CCR_CCR), I2C_SPEED(pclk1, hi2c->Init.ClockSpeed, hi2c->Init.DutyCycle));
 80052b0:	687b      	ldr	r3, [r7, #4]
 80052b2:	681b      	ldr	r3, [r3, #0]
 80052b4:	69db      	ldr	r3, [r3, #28]
 80052b6:	f423 424f 	bic.w	r2, r3, #52992	; 0xcf00
 80052ba:	f022 02ff 	bic.w	r2, r2, #255	; 0xff
 80052be:	687b      	ldr	r3, [r7, #4]
 80052c0:	685b      	ldr	r3, [r3, #4]
 80052c2:	4956      	ldr	r1, [pc, #344]	; (800541c <HAL_I2C_Init+0x25c>)
 80052c4:	428b      	cmp	r3, r1
 80052c6:	d80d      	bhi.n	80052e4 <HAL_I2C_Init+0x124>
 80052c8:	68fb      	ldr	r3, [r7, #12]
 80052ca:	1e59      	subs	r1, r3, #1
 80052cc:	687b      	ldr	r3, [r7, #4]
 80052ce:	685b      	ldr	r3, [r3, #4]
 80052d0:	005b      	lsls	r3, r3, #1
 80052d2:	fbb1 f3f3 	udiv	r3, r1, r3
 80052d6:	3301      	adds	r3, #1
 80052d8:	f3c3 030b 	ubfx	r3, r3, #0, #12
 80052dc:	2b04      	cmp	r3, #4
 80052de:	bf38      	it	cc
 80052e0:	2304      	movcc	r3, #4
 80052e2:	e04f      	b.n	8005384 <HAL_I2C_Init+0x1c4>
 80052e4:	687b      	ldr	r3, [r7, #4]
 80052e6:	689b      	ldr	r3, [r3, #8]
 80052e8:	2b00      	cmp	r3, #0
 80052ea:	d111      	bne.n	8005310 <HAL_I2C_Init+0x150>
 80052ec:	68fb      	ldr	r3, [r7, #12]
 80052ee:	1e58      	subs	r0, r3, #1
 80052f0:	687b      	ldr	r3, [r7, #4]
 80052f2:	6859      	ldr	r1, [r3, #4]
 80052f4:	460b      	mov	r3, r1
 80052f6:	005b      	lsls	r3, r3, #1
 80052f8:	440b      	add	r3, r1
 80052fa:	fbb0 f3f3 	udiv	r3, r0, r3
 80052fe:	3301      	adds	r3, #1
 8005300:	f3c3 030b 	ubfx	r3, r3, #0, #12
 8005304:	2b00      	cmp	r3, #0
 8005306:	bf0c      	ite	eq
 8005308:	2301      	moveq	r3, #1
 800530a:	2300      	movne	r3, #0
 800530c:	b2db      	uxtb	r3, r3
 800530e:	e012      	b.n	8005336 <HAL_I2C_Init+0x176>
 8005310:	68fb      	ldr	r3, [r7, #12]
 8005312:	1e58      	subs	r0, r3, #1
 8005314:	687b      	ldr	r3, [r7, #4]
 8005316:	6859      	ldr	r1, [r3, #4]
 8005318:	460b      	mov	r3, r1
 800531a:	009b      	lsls	r3, r3, #2
 800531c:	440b      	add	r3, r1
 800531e:	0099      	lsls	r1, r3, #2
 8005320:	440b      	add	r3, r1
 8005322:	fbb0 f3f3 	udiv	r3, r0, r3
 8005326:	3301      	adds	r3, #1
 8005328:	f3c3 030b 	ubfx	r3, r3, #0, #12
 800532c:	2b00      	cmp	r3, #0
 800532e:	bf0c      	ite	eq
 8005330:	2301      	moveq	r3, #1
 8005332:	2300      	movne	r3, #0
 8005334:	b2db      	uxtb	r3, r3
 8005336:	2b00      	cmp	r3, #0
 8005338:	d001      	beq.n	800533e <HAL_I2C_Init+0x17e>
 800533a:	2301      	movs	r3, #1
 800533c:	e022      	b.n	8005384 <HAL_I2C_Init+0x1c4>
 800533e:	687b      	ldr	r3, [r7, #4]
 8005340:	689b      	ldr	r3, [r3, #8]
 8005342:	2b00      	cmp	r3, #0
 8005344:	d10e      	bne.n	8005364 <HAL_I2C_Init+0x1a4>
 8005346:	68fb      	ldr	r3, [r7, #12]
 8005348:	1e58      	subs	r0, r3, #1
 800534a:	687b      	ldr	r3, [r7, #4]
 800534c:	6859      	ldr	r1, [r3, #4]
 800534e:	460b      	mov	r3, r1
 8005350:	005b      	lsls	r3, r3, #1
 8005352:	440b      	add	r3, r1
 8005354:	fbb0 f3f3 	udiv	r3, r0, r3
 8005358:	3301      	adds	r3, #1
 800535a:	f3c3 030b 	ubfx	r3, r3, #0, #12
 800535e:	f443 4300 	orr.w	r3, r3, #32768	; 0x8000
 8005362:	e00f      	b.n	8005384 <HAL_I2C_Init+0x1c4>
 8005364:	68fb      	ldr	r3, [r7, #12]
 8005366:	1e58      	subs	r0, r3, #1
 8005368:	687b      	ldr	r3, [r7, #4]
 800536a:	6859      	ldr	r1, [r3, #4]
 800536c:	460b      	mov	r3, r1
 800536e:	009b      	lsls	r3, r3, #2
 8005370:	440b      	add	r3, r1
 8005372:	0099      	lsls	r1, r3, #2
 8005374:	440b      	add	r3, r1
 8005376:	fbb0 f3f3 	udiv	r3, r0, r3
 800537a:	3301      	adds	r3, #1
 800537c:	f3c3 030b 	ubfx	r3, r3, #0, #12
 8005380:	f443 4340 	orr.w	r3, r3, #49152	; 0xc000
 8005384:	6879      	ldr	r1, [r7, #4]
 8005386:	6809      	ldr	r1, [r1, #0]
 8005388:	4313      	orrs	r3, r2
 800538a:	61cb      	str	r3, [r1, #28]

  /*---------------------------- I2Cx CR1 Configuration ----------------------*/
  /* Configure I2Cx: Generalcall and NoStretch mode */
  MODIFY_REG(hi2c->Instance->CR1, (I2C_CR1_ENGC | I2C_CR1_NOSTRETCH), (hi2c->Init.GeneralCallMode | hi2c->Init.NoStretchMode));
 800538c:	687b      	ldr	r3, [r7, #4]
 800538e:	681b      	ldr	r3, [r3, #0]
 8005390:	681b      	ldr	r3, [r3, #0]
 8005392:	f023 01c0 	bic.w	r1, r3, #192	; 0xc0
 8005396:	687b      	ldr	r3, [r7, #4]
 8005398:	69da      	ldr	r2, [r3, #28]
 800539a:	687b      	ldr	r3, [r7, #4]
 800539c:	6a1b      	ldr	r3, [r3, #32]
 800539e:	431a      	orrs	r2, r3
 80053a0:	687b      	ldr	r3, [r7, #4]
 80053a2:	681b      	ldr	r3, [r3, #0]
 80053a4:	430a      	orrs	r2, r1
 80053a6:	601a      	str	r2, [r3, #0]

  /*---------------------------- I2Cx OAR1 Configuration ---------------------*/
  /* Configure I2Cx: Own Address1 and addressing mode */
  MODIFY_REG(hi2c->Instance->OAR1, (I2C_OAR1_ADDMODE | I2C_OAR1_ADD8_9 | I2C_OAR1_ADD1_7 | I2C_OAR1_ADD0), (hi2c->Init.AddressingMode | hi2c->Init.OwnAddress1));
 80053a8:	687b      	ldr	r3, [r7, #4]
 80053aa:	681b      	ldr	r3, [r3, #0]
 80053ac:	689b      	ldr	r3, [r3, #8]
 80053ae:	f423 4303 	bic.w	r3, r3, #33536	; 0x8300
 80053b2:	f023 03ff 	bic.w	r3, r3, #255	; 0xff
 80053b6:	687a      	ldr	r2, [r7, #4]
 80053b8:	6911      	ldr	r1, [r2, #16]
 80053ba:	687a      	ldr	r2, [r7, #4]
 80053bc:	68d2      	ldr	r2, [r2, #12]
 80053be:	4311      	orrs	r1, r2
 80053c0:	687a      	ldr	r2, [r7, #4]
 80053c2:	6812      	ldr	r2, [r2, #0]
 80053c4:	430b      	orrs	r3, r1
 80053c6:	6093      	str	r3, [r2, #8]

  /*---------------------------- I2Cx OAR2 Configuration ---------------------*/
  /* Configure I2Cx: Dual mode and Own Address2 */
  MODIFY_REG(hi2c->Instance->OAR2, (I2C_OAR2_ENDUAL | I2C_OAR2_ADD2), (hi2c->Init.DualAddressMode | hi2c->Init.OwnAddress2));
 80053c8:	687b      	ldr	r3, [r7, #4]
 80053ca:	681b      	ldr	r3, [r3, #0]
 80053cc:	68db      	ldr	r3, [r3, #12]
 80053ce:	f023 01ff 	bic.w	r1, r3, #255	; 0xff
 80053d2:	687b      	ldr	r3, [r7, #4]
 80053d4:	695a      	ldr	r2, [r3, #20]
 80053d6:	687b      	ldr	r3, [r7, #4]
 80053d8:	699b      	ldr	r3, [r3, #24]
 80053da:	431a      	orrs	r2, r3
 80053dc:	687b      	ldr	r3, [r7, #4]
 80053de:	681b      	ldr	r3, [r3, #0]
 80053e0:	430a      	orrs	r2, r1
 80053e2:	60da      	str	r2, [r3, #12]

  /* Enable the selected I2C peripheral */
  __HAL_I2C_ENABLE(hi2c);
 80053e4:	687b      	ldr	r3, [r7, #4]
 80053e6:	681b      	ldr	r3, [r3, #0]
 80053e8:	681a      	ldr	r2, [r3, #0]
 80053ea:	687b      	ldr	r3, [r7, #4]
 80053ec:	681b      	ldr	r3, [r3, #0]
 80053ee:	f042 0201 	orr.w	r2, r2, #1
 80053f2:	601a      	str	r2, [r3, #0]

  hi2c->ErrorCode = HAL_I2C_ERROR_NONE;
 80053f4:	687b      	ldr	r3, [r7, #4]
 80053f6:	2200      	movs	r2, #0
 80053f8:	641a      	str	r2, [r3, #64]	; 0x40
  hi2c->State = HAL_I2C_STATE_READY;
 80053fa:	687b      	ldr	r3, [r7, #4]
 80053fc:	2220      	movs	r2, #32
 80053fe:	f883 203d 	strb.w	r2, [r3, #61]	; 0x3d
  hi2c->PreviousState = I2C_STATE_NONE;
 8005402:	687b      	ldr	r3, [r7, #4]
 8005404:	2200      	movs	r2, #0
 8005406:	631a      	str	r2, [r3, #48]	; 0x30
  hi2c->Mode = HAL_I2C_MODE_NONE;
 8005408:	687b      	ldr	r3, [r7, #4]
 800540a:	2200      	movs	r2, #0
 800540c:	f883 203e 	strb.w	r2, [r3, #62]	; 0x3e

  return HAL_OK;
 8005410:	2300      	movs	r3, #0
}
 8005412:	4618      	mov	r0, r3
 8005414:	3710      	adds	r7, #16
 8005416:	46bd      	mov	sp, r7
 8005418:	bd80      	pop	{r7, pc}
 800541a:	bf00      	nop
 800541c:	000186a0 	.word	0x000186a0
 8005420:	001e847f 	.word	0x001e847f
 8005424:	003d08ff 	.word	0x003d08ff
 8005428:	431bde83 	.word	0x431bde83
 800542c:	10624dd3 	.word	0x10624dd3

08005430 <HAL_I2C_Mem_Write>:
  * @param  Size Amount of data to be sent
  * @param  Timeout Timeout duration
  * @retval HAL status
  */
HAL_StatusTypeDef HAL_I2C_Mem_Write(I2C_HandleTypeDef *hi2c, uint16_t DevAddress, uint16_t MemAddress, uint16_t MemAddSize, uint8_t *pData, uint16_t Size, uint32_t Timeout)
{
 8005430:	b580      	push	{r7, lr}
 8005432:	b088      	sub	sp, #32
 8005434:	af02      	add	r7, sp, #8
 8005436:	60f8      	str	r0, [r7, #12]
 8005438:	4608      	mov	r0, r1
 800543a:	4611      	mov	r1, r2
 800543c:	461a      	mov	r2, r3
 800543e:	4603      	mov	r3, r0
 8005440:	817b      	strh	r3, [r7, #10]
 8005442:	460b      	mov	r3, r1
 8005444:	813b      	strh	r3, [r7, #8]
 8005446:	4613      	mov	r3, r2
 8005448:	80fb      	strh	r3, [r7, #6]
  /* Init tickstart for timeout management*/
  uint32_t tickstart = HAL_GetTick();
 800544a:	f7ff fb7f 	bl	8004b4c <HAL_GetTick>
 800544e:	6178      	str	r0, [r7, #20]

  /* Check the parameters */
  assert_param(IS_I2C_MEMADD_SIZE(MemAddSize));

  if (hi2c->State == HAL_I2C_STATE_READY)
 8005450:	68fb      	ldr	r3, [r7, #12]
 8005452:	f893 303d 	ldrb.w	r3, [r3, #61]	; 0x3d
 8005456:	b2db      	uxtb	r3, r3
 8005458:	2b20      	cmp	r3, #32
 800545a:	f040 80d9 	bne.w	8005610 <HAL_I2C_Mem_Write+0x1e0>
  {
    /* Wait until BUSY flag is reset */
    if (I2C_WaitOnFlagUntilTimeout(hi2c, I2C_FLAG_BUSY, SET, I2C_TIMEOUT_BUSY_FLAG, tickstart) != HAL_OK)
 800545e:	697b      	ldr	r3, [r7, #20]
 8005460:	9300      	str	r3, [sp, #0]
 8005462:	2319      	movs	r3, #25
 8005464:	2201      	movs	r2, #1
 8005466:	496d      	ldr	r1, [pc, #436]	; (800561c <HAL_I2C_Mem_Write+0x1ec>)
 8005468:	68f8      	ldr	r0, [r7, #12]
 800546a:	f000 fcbb 	bl	8005de4 <I2C_WaitOnFlagUntilTimeout>
 800546e:	4603      	mov	r3, r0
 8005470:	2b00      	cmp	r3, #0
 8005472:	d001      	beq.n	8005478 <HAL_I2C_Mem_Write+0x48>
    {
      return HAL_BUSY;
 8005474:	2302      	movs	r3, #2
 8005476:	e0cc      	b.n	8005612 <HAL_I2C_Mem_Write+0x1e2>
    }

    /* Process Locked */
    __HAL_LOCK(hi2c);
 8005478:	68fb      	ldr	r3, [r7, #12]
 800547a:	f893 303c 	ldrb.w	r3, [r3, #60]	; 0x3c
 800547e:	2b01      	cmp	r3, #1
 8005480:	d101      	bne.n	8005486 <HAL_I2C_Mem_Write+0x56>
 8005482:	2302      	movs	r3, #2
 8005484:	e0c5      	b.n	8005612 <HAL_I2C_Mem_Write+0x1e2>
 8005486:	68fb      	ldr	r3, [r7, #12]
 8005488:	2201      	movs	r2, #1
 800548a:	f883 203c 	strb.w	r2, [r3, #60]	; 0x3c

    /* Check if the I2C is already enabled */
    if ((hi2c->Instance->CR1 & I2C_CR1_PE) != I2C_CR1_PE)
 800548e:	68fb      	ldr	r3, [r7, #12]
 8005490:	681b      	ldr	r3, [r3, #0]
 8005492:	681b      	ldr	r3, [r3, #0]
 8005494:	f003 0301 	and.w	r3, r3, #1
 8005498:	2b01      	cmp	r3, #1
 800549a:	d007      	beq.n	80054ac <HAL_I2C_Mem_Write+0x7c>
    {
      /* Enable I2C peripheral */
      __HAL_I2C_ENABLE(hi2c);
 800549c:	68fb      	ldr	r3, [r7, #12]
 800549e:	681b      	ldr	r3, [r3, #0]
 80054a0:	681a      	ldr	r2, [r3, #0]
 80054a2:	68fb      	ldr	r3, [r7, #12]
 80054a4:	681b      	ldr	r3, [r3, #0]
 80054a6:	f042 0201 	orr.w	r2, r2, #1
 80054aa:	601a      	str	r2, [r3, #0]
    }

    /* Disable Pos */
    CLEAR_BIT(hi2c->Instance->CR1, I2C_CR1_POS);
 80054ac:	68fb      	ldr	r3, [r7, #12]
 80054ae:	681b      	ldr	r3, [r3, #0]
 80054b0:	681a      	ldr	r2, [r3, #0]
 80054b2:	68fb      	ldr	r3, [r7, #12]
 80054b4:	681b      	ldr	r3, [r3, #0]
 80054b6:	f422 6200 	bic.w	r2, r2, #2048	; 0x800
 80054ba:	601a      	str	r2, [r3, #0]

    hi2c->State     = HAL_I2C_STATE_BUSY_TX;
 80054bc:	68fb      	ldr	r3, [r7, #12]
 80054be:	2221      	movs	r2, #33	; 0x21
 80054c0:	f883 203d 	strb.w	r2, [r3, #61]	; 0x3d
    hi2c->Mode      = HAL_I2C_MODE_MEM;
 80054c4:	68fb      	ldr	r3, [r7, #12]
 80054c6:	2240      	movs	r2, #64	; 0x40
 80054c8:	f883 203e 	strb.w	r2, [r3, #62]	; 0x3e
    hi2c->ErrorCode = HAL_I2C_ERROR_NONE;
 80054cc:	68fb      	ldr	r3, [r7, #12]
 80054ce:	2200      	movs	r2, #0
 80054d0:	641a      	str	r2, [r3, #64]	; 0x40

    /* Prepare transfer parameters */
    hi2c->pBuffPtr    = pData;
 80054d2:	68fb      	ldr	r3, [r7, #12]
 80054d4:	6a3a      	ldr	r2, [r7, #32]
 80054d6:	625a      	str	r2, [r3, #36]	; 0x24
    hi2c->XferCount   = Size;
 80054d8:	68fb      	ldr	r3, [r7, #12]
 80054da:	8cba      	ldrh	r2, [r7, #36]	; 0x24
 80054dc:	855a      	strh	r2, [r3, #42]	; 0x2a
    hi2c->XferSize    = hi2c->XferCount;
 80054de:	68fb      	ldr	r3, [r7, #12]
 80054e0:	8d5b      	ldrh	r3, [r3, #42]	; 0x2a
 80054e2:	b29a      	uxth	r2, r3
 80054e4:	68fb      	ldr	r3, [r7, #12]
 80054e6:	851a      	strh	r2, [r3, #40]	; 0x28
    hi2c->XferOptions = I2C_NO_OPTION_FRAME;
 80054e8:	68fb      	ldr	r3, [r7, #12]
 80054ea:	4a4d      	ldr	r2, [pc, #308]	; (8005620 <HAL_I2C_Mem_Write+0x1f0>)
 80054ec:	62da      	str	r2, [r3, #44]	; 0x2c

    /* Send Slave Address and Memory Address */
    if (I2C_RequestMemoryWrite(hi2c, DevAddress, MemAddress, MemAddSize, Timeout, tickstart) != HAL_OK)
 80054ee:	88f8      	ldrh	r0, [r7, #6]
 80054f0:	893a      	ldrh	r2, [r7, #8]
 80054f2:	8979      	ldrh	r1, [r7, #10]
 80054f4:	697b      	ldr	r3, [r7, #20]
 80054f6:	9301      	str	r3, [sp, #4]
 80054f8:	6abb      	ldr	r3, [r7, #40]	; 0x28
 80054fa:	9300      	str	r3, [sp, #0]
 80054fc:	4603      	mov	r3, r0
 80054fe:	68f8      	ldr	r0, [r7, #12]
 8005500:	f000 faf2 	bl	8005ae8 <I2C_RequestMemoryWrite>
 8005504:	4603      	mov	r3, r0
 8005506:	2b00      	cmp	r3, #0
 8005508:	d052      	beq.n	80055b0 <HAL_I2C_Mem_Write+0x180>
    {
      return HAL_ERROR;
 800550a:	2301      	movs	r3, #1
 800550c:	e081      	b.n	8005612 <HAL_I2C_Mem_Write+0x1e2>
    }

    while (hi2c->XferSize > 0U)
    {
      /* Wait until TXE flag is set */
      if (I2C_WaitOnTXEFlagUntilTimeout(hi2c, Timeout, tickstart) != HAL_OK)
 800550e:	697a      	ldr	r2, [r7, #20]
 8005510:	6ab9      	ldr	r1, [r7, #40]	; 0x28
 8005512:	68f8      	ldr	r0, [r7, #12]
 8005514:	f000 fd3c 	bl	8005f90 <I2C_WaitOnTXEFlagUntilTimeout>
 8005518:	4603      	mov	r3, r0
 800551a:	2b00      	cmp	r3, #0
 800551c:	d00d      	beq.n	800553a <HAL_I2C_Mem_Write+0x10a>
      {
        if (hi2c->ErrorCode == HAL_I2C_ERROR_AF)
 800551e:	68fb      	ldr	r3, [r7, #12]
 8005520:	6c1b      	ldr	r3, [r3, #64]	; 0x40
 8005522:	2b04      	cmp	r3, #4
 8005524:	d107      	bne.n	8005536 <HAL_I2C_Mem_Write+0x106>
        {
          /* Generate Stop */
          SET_BIT(hi2c->Instance->CR1, I2C_CR1_STOP);
 8005526:	68fb      	ldr	r3, [r7, #12]
 8005528:	681b      	ldr	r3, [r3, #0]
 800552a:	681a      	ldr	r2, [r3, #0]
 800552c:	68fb      	ldr	r3, [r7, #12]
 800552e:	681b      	ldr	r3, [r3, #0]
 8005530:	f442 7200 	orr.w	r2, r2, #512	; 0x200
 8005534:	601a      	str	r2, [r3, #0]
        }
        return HAL_ERROR;
 8005536:	2301      	movs	r3, #1
 8005538:	e06b      	b.n	8005612 <HAL_I2C_Mem_Write+0x1e2>
      }

      /* Write data to DR */
      hi2c->Instance->DR = *hi2c->pBuffPtr;
 800553a:	68fb      	ldr	r3, [r7, #12]
 800553c:	6a5b      	ldr	r3, [r3, #36]	; 0x24
 800553e:	781a      	ldrb	r2, [r3, #0]
 8005540:	68fb      	ldr	r3, [r7, #12]
 8005542:	681b      	ldr	r3, [r3, #0]
 8005544:	611a      	str	r2, [r3, #16]

      /* Increment Buffer pointer */
      hi2c->pBuffPtr++;
 8005546:	68fb      	ldr	r3, [r7, #12]
 8005548:	6a5b      	ldr	r3, [r3, #36]	; 0x24
 800554a:	1c5a      	adds	r2, r3, #1
 800554c:	68fb      	ldr	r3, [r7, #12]
 800554e:	625a      	str	r2, [r3, #36]	; 0x24

      /* Update counter */
      hi2c->XferSize--;
 8005550:	68fb      	ldr	r3, [r7, #12]
 8005552:	8d1b      	ldrh	r3, [r3, #40]	; 0x28
 8005554:	3b01      	subs	r3, #1
 8005556:	b29a      	uxth	r2, r3
 8005558:	68fb      	ldr	r3, [r7, #12]
 800555a:	851a      	strh	r2, [r3, #40]	; 0x28
      hi2c->XferCount--;
 800555c:	68fb      	ldr	r3, [r7, #12]
 800555e:	8d5b      	ldrh	r3, [r3, #42]	; 0x2a
 8005560:	b29b      	uxth	r3, r3
 8005562:	3b01      	subs	r3, #1
 8005564:	b29a      	uxth	r2, r3
 8005566:	68fb      	ldr	r3, [r7, #12]
 8005568:	855a      	strh	r2, [r3, #42]	; 0x2a

      if ((__HAL_I2C_GET_FLAG(hi2c, I2C_FLAG_BTF) == SET) && (hi2c->XferSize != 0U))
 800556a:	68fb      	ldr	r3, [r7, #12]
 800556c:	681b      	ldr	r3, [r3, #0]
 800556e:	695b      	ldr	r3, [r3, #20]
 8005570:	f003 0304 	and.w	r3, r3, #4
 8005574:	2b04      	cmp	r3, #4
 8005576:	d11b      	bne.n	80055b0 <HAL_I2C_Mem_Write+0x180>
 8005578:	68fb      	ldr	r3, [r7, #12]
 800557a:	8d1b      	ldrh	r3, [r3, #40]	; 0x28
 800557c:	2b00      	cmp	r3, #0
 800557e:	d017      	beq.n	80055b0 <HAL_I2C_Mem_Write+0x180>
      {
        /* Write data to DR */
        hi2c->Instance->DR = *hi2c->pBuffPtr;
 8005580:	68fb      	ldr	r3, [r7, #12]
 8005582:	6a5b      	ldr	r3, [r3, #36]	; 0x24
 8005584:	781a      	ldrb	r2, [r3, #0]
 8005586:	68fb      	ldr	r3, [r7, #12]
 8005588:	681b      	ldr	r3, [r3, #0]
 800558a:	611a      	str	r2, [r3, #16]

        /* Increment Buffer pointer */
        hi2c->pBuffPtr++;
 800558c:	68fb      	ldr	r3, [r7, #12]
 800558e:	6a5b      	ldr	r3, [r3, #36]	; 0x24
 8005590:	1c5a      	adds	r2, r3, #1
 8005592:	68fb      	ldr	r3, [r7, #12]
 8005594:	625a      	str	r2, [r3, #36]	; 0x24

        /* Update counter */
        hi2c->XferSize--;
 8005596:	68fb      	ldr	r3, [r7, #12]
 8005598:	8d1b      	ldrh	r3, [r3, #40]	; 0x28
 800559a:	3b01      	subs	r3, #1
 800559c:	b29a      	uxth	r2, r3
 800559e:	68fb      	ldr	r3, [r7, #12]
 80055a0:	851a      	strh	r2, [r3, #40]	; 0x28
        hi2c->XferCount--;
 80055a2:	68fb      	ldr	r3, [r7, #12]
 80055a4:	8d5b      	ldrh	r3, [r3, #42]	; 0x2a
 80055a6:	b29b      	uxth	r3, r3
 80055a8:	3b01      	subs	r3, #1
 80055aa:	b29a      	uxth	r2, r3
 80055ac:	68fb      	ldr	r3, [r7, #12]
 80055ae:	855a      	strh	r2, [r3, #42]	; 0x2a
    while (hi2c->XferSize > 0U)
 80055b0:	68fb      	ldr	r3, [r7, #12]
 80055b2:	8d1b      	ldrh	r3, [r3, #40]	; 0x28
 80055b4:	2b00      	cmp	r3, #0
 80055b6:	d1aa      	bne.n	800550e <HAL_I2C_Mem_Write+0xde>
      }
    }

    /* Wait until BTF flag is set */
    if (I2C_WaitOnBTFFlagUntilTimeout(hi2c, Timeout, tickstart) != HAL_OK)
 80055b8:	697a      	ldr	r2, [r7, #20]
 80055ba:	6ab9      	ldr	r1, [r7, #40]	; 0x28
 80055bc:	68f8      	ldr	r0, [r7, #12]
 80055be:	f000 fd28 	bl	8006012 <I2C_WaitOnBTFFlagUntilTimeout>
 80055c2:	4603      	mov	r3, r0
 80055c4:	2b00      	cmp	r3, #0
 80055c6:	d00d      	beq.n	80055e4 <HAL_I2C_Mem_Write+0x1b4>
    {
      if (hi2c->ErrorCode == HAL_I2C_ERROR_AF)
 80055c8:	68fb      	ldr	r3, [r7, #12]
 80055ca:	6c1b      	ldr	r3, [r3, #64]	; 0x40
 80055cc:	2b04      	cmp	r3, #4
 80055ce:	d107      	bne.n	80055e0 <HAL_I2C_Mem_Write+0x1b0>
      {
        /* Generate Stop */
        SET_BIT(hi2c->Instance->CR1, I2C_CR1_STOP);
 80055d0:	68fb      	ldr	r3, [r7, #12]
 80055d2:	681b      	ldr	r3, [r3, #0]
 80055d4:	681a      	ldr	r2, [r3, #0]
 80055d6:	68fb      	ldr	r3, [r7, #12]
 80055d8:	681b      	ldr	r3, [r3, #0]
 80055da:	f442 7200 	orr.w	r2, r2, #512	; 0x200
 80055de:	601a      	str	r2, [r3, #0]
      }
      return HAL_ERROR;
 80055e0:	2301      	movs	r3, #1
 80055e2:	e016      	b.n	8005612 <HAL_I2C_Mem_Write+0x1e2>
    }

    /* Generate Stop */
    SET_BIT(hi2c->Instance->CR1, I2C_CR1_STOP);
 80055e4:	68fb      	ldr	r3, [r7, #12]
 80055e6:	681b      	ldr	r3, [r3, #0]
 80055e8:	681a      	ldr	r2, [r3, #0]
 80055ea:	68fb      	ldr	r3, [r7, #12]
 80055ec:	681b      	ldr	r3, [r3, #0]
 80055ee:	f442 7200 	orr.w	r2, r2, #512	; 0x200
 80055f2:	601a      	str	r2, [r3, #0]

    hi2c->State = HAL_I2C_STATE_READY;
 80055f4:	68fb      	ldr	r3, [r7, #12]
 80055f6:	2220      	movs	r2, #32
 80055f8:	f883 203d 	strb.w	r2, [r3, #61]	; 0x3d
    hi2c->Mode = HAL_I2C_MODE_NONE;
 80055fc:	68fb      	ldr	r3, [r7, #12]
 80055fe:	2200      	movs	r2, #0
 8005600:	f883 203e 	strb.w	r2, [r3, #62]	; 0x3e

    /* Process Unlocked */
    __HAL_UNLOCK(hi2c);
 8005604:	68fb      	ldr	r3, [r7, #12]
 8005606:	2200      	movs	r2, #0
 8005608:	f883 203c 	strb.w	r2, [r3, #60]	; 0x3c

    return HAL_OK;
 800560c:	2300      	movs	r3, #0
 800560e:	e000      	b.n	8005612 <HAL_I2C_Mem_Write+0x1e2>
  }
  else
  {
    return HAL_BUSY;
 8005610:	2302      	movs	r3, #2
  }
}
 8005612:	4618      	mov	r0, r3
 8005614:	3718      	adds	r7, #24
 8005616:	46bd      	mov	sp, r7
 8005618:	bd80      	pop	{r7, pc}
 800561a:	bf00      	nop
 800561c:	00100002 	.word	0x00100002
 8005620:	ffff0000 	.word	0xffff0000

08005624 <HAL_I2C_Mem_Read>:
  * @param  Size Amount of data to be sent
  * @param  Timeout Timeout duration
  * @retval HAL status
  */
HAL_StatusTypeDef HAL_I2C_Mem_Read(I2C_HandleTypeDef *hi2c, uint16_t DevAddress, uint16_t MemAddress, uint16_t MemAddSize, uint8_t *pData, uint16_t Size, uint32_t Timeout)
{
 8005624:	b580      	push	{r7, lr}
 8005626:	b08c      	sub	sp, #48	; 0x30
 8005628:	af02      	add	r7, sp, #8
 800562a:	60f8      	str	r0, [r7, #12]
 800562c:	4608      	mov	r0, r1
 800562e:	4611      	mov	r1, r2
 8005630:	461a      	mov	r2, r3
 8005632:	4603      	mov	r3, r0
 8005634:	817b      	strh	r3, [r7, #10]
 8005636:	460b      	mov	r3, r1
 8005638:	813b      	strh	r3, [r7, #8]
 800563a:	4613      	mov	r3, r2
 800563c:	80fb      	strh	r3, [r7, #6]
  __IO uint32_t count = 0U;
 800563e:	2300      	movs	r3, #0
 8005640:	623b      	str	r3, [r7, #32]

  /* Init tickstart for timeout management*/
  uint32_t tickstart = HAL_GetTick();
 8005642:	f7ff fa83 	bl	8004b4c <HAL_GetTick>
 8005646:	6278      	str	r0, [r7, #36]	; 0x24

  /* Check the parameters */
  assert_param(IS_I2C_MEMADD_SIZE(MemAddSize));

  if (hi2c->State == HAL_I2C_STATE_READY)
 8005648:	68fb      	ldr	r3, [r7, #12]
 800564a:	f893 303d 	ldrb.w	r3, [r3, #61]	; 0x3d
 800564e:	b2db      	uxtb	r3, r3
 8005650:	2b20      	cmp	r3, #32
 8005652:	f040 823d 	bne.w	8005ad0 <HAL_I2C_Mem_Read+0x4ac>
  {
    /* Wait until BUSY flag is reset */
    if (I2C_WaitOnFlagUntilTimeout(hi2c, I2C_FLAG_BUSY, SET, I2C_TIMEOUT_BUSY_FLAG, tickstart) != HAL_OK)
 8005656:	6a7b      	ldr	r3, [r7, #36]	; 0x24
 8005658:	9300      	str	r3, [sp, #0]
 800565a:	2319      	movs	r3, #25
 800565c:	2201      	movs	r2, #1
 800565e:	4981      	ldr	r1, [pc, #516]	; (8005864 <HAL_I2C_Mem_Read+0x240>)
 8005660:	68f8      	ldr	r0, [r7, #12]
 8005662:	f000 fbbf 	bl	8005de4 <I2C_WaitOnFlagUntilTimeout>
 8005666:	4603      	mov	r3, r0
 8005668:	2b00      	cmp	r3, #0
 800566a:	d001      	beq.n	8005670 <HAL_I2C_Mem_Read+0x4c>
    {
      return HAL_BUSY;
 800566c:	2302      	movs	r3, #2
 800566e:	e230      	b.n	8005ad2 <HAL_I2C_Mem_Read+0x4ae>
    }

    /* Process Locked */
    __HAL_LOCK(hi2c);
 8005670:	68fb      	ldr	r3, [r7, #12]
 8005672:	f893 303c 	ldrb.w	r3, [r3, #60]	; 0x3c
 8005676:	2b01      	cmp	r3, #1
 8005678:	d101      	bne.n	800567e <HAL_I2C_Mem_Read+0x5a>
 800567a:	2302      	movs	r3, #2
 800567c:	e229      	b.n	8005ad2 <HAL_I2C_Mem_Read+0x4ae>
 800567e:	68fb      	ldr	r3, [r7, #12]
 8005680:	2201      	movs	r2, #1
 8005682:	f883 203c 	strb.w	r2, [r3, #60]	; 0x3c

    /* Check if the I2C is already enabled */
    if ((hi2c->Instance->CR1 & I2C_CR1_PE) != I2C_CR1_PE)
 8005686:	68fb      	ldr	r3, [r7, #12]
 8005688:	681b      	ldr	r3, [r3, #0]
 800568a:	681b      	ldr	r3, [r3, #0]
 800568c:	f003 0301 	and.w	r3, r3, #1
 8005690:	2b01      	cmp	r3, #1
 8005692:	d007      	beq.n	80056a4 <HAL_I2C_Mem_Read+0x80>
    {
      /* Enable I2C peripheral */
      __HAL_I2C_ENABLE(hi2c);
 8005694:	68fb      	ldr	r3, [r7, #12]
 8005696:	681b      	ldr	r3, [r3, #0]
 8005698:	681a      	ldr	r2, [r3, #0]
 800569a:	68fb      	ldr	r3, [r7, #12]
 800569c:	681b      	ldr	r3, [r3, #0]
 800569e:	f042 0201 	orr.w	r2, r2, #1
 80056a2:	601a      	str	r2, [r3, #0]
    }

    /* Disable Pos */
    CLEAR_BIT(hi2c->Instance->CR1, I2C_CR1_POS);
 80056a4:	68fb      	ldr	r3, [r7, #12]
 80056a6:	681b      	ldr	r3, [r3, #0]
 80056a8:	681a      	ldr	r2, [r3, #0]
 80056aa:	68fb      	ldr	r3, [r7, #12]
 80056ac:	681b      	ldr	r3, [r3, #0]
 80056ae:	f422 6200 	bic.w	r2, r2, #2048	; 0x800
 80056b2:	601a      	str	r2, [r3, #0]

    hi2c->State     = HAL_I2C_STATE_BUSY_RX;
 80056b4:	68fb      	ldr	r3, [r7, #12]
 80056b6:	2222      	movs	r2, #34	; 0x22
 80056b8:	f883 203d 	strb.w	r2, [r3, #61]	; 0x3d
    hi2c->Mode      = HAL_I2C_MODE_MEM;
 80056bc:	68fb      	ldr	r3, [r7, #12]
 80056be:	2240      	movs	r2, #64	; 0x40
 80056c0:	f883 203e 	strb.w	r2, [r3, #62]	; 0x3e
    hi2c->ErrorCode = HAL_I2C_ERROR_NONE;
 80056c4:	68fb      	ldr	r3, [r7, #12]
 80056c6:	2200      	movs	r2, #0
 80056c8:	641a      	str	r2, [r3, #64]	; 0x40

    /* Prepare transfer parameters */
    hi2c->pBuffPtr    = pData;
 80056ca:	68fb      	ldr	r3, [r7, #12]
 80056cc:	6b3a      	ldr	r2, [r7, #48]	; 0x30
 80056ce:	625a      	str	r2, [r3, #36]	; 0x24
    hi2c->XferCount   = Size;
 80056d0:	68fb      	ldr	r3, [r7, #12]
 80056d2:	8eba      	ldrh	r2, [r7, #52]	; 0x34
 80056d4:	855a      	strh	r2, [r3, #42]	; 0x2a
    hi2c->XferSize    = hi2c->XferCount;
 80056d6:	68fb      	ldr	r3, [r7, #12]
 80056d8:	8d5b      	ldrh	r3, [r3, #42]	; 0x2a
 80056da:	b29a      	uxth	r2, r3
 80056dc:	68fb      	ldr	r3, [r7, #12]
 80056de:	851a      	strh	r2, [r3, #40]	; 0x28
    hi2c->XferOptions = I2C_NO_OPTION_FRAME;
 80056e0:	68fb      	ldr	r3, [r7, #12]
 80056e2:	4a61      	ldr	r2, [pc, #388]	; (8005868 <HAL_I2C_Mem_Read+0x244>)
 80056e4:	62da      	str	r2, [r3, #44]	; 0x2c

    /* Send Slave Address and Memory Address */
    if (I2C_RequestMemoryRead(hi2c, DevAddress, MemAddress, MemAddSize, Timeout, tickstart) != HAL_OK)
 80056e6:	88f8      	ldrh	r0, [r7, #6]
 80056e8:	893a      	ldrh	r2, [r7, #8]
 80056ea:	8979      	ldrh	r1, [r7, #10]
 80056ec:	6a7b      	ldr	r3, [r7, #36]	; 0x24
 80056ee:	9301      	str	r3, [sp, #4]
 80056f0:	6bbb      	ldr	r3, [r7, #56]	; 0x38
 80056f2:	9300      	str	r3, [sp, #0]
 80056f4:	4603      	mov	r3, r0
 80056f6:	68f8      	ldr	r0, [r7, #12]
 80056f8:	f000 fa8c 	bl	8005c14 <I2C_RequestMemoryRead>
 80056fc:	4603      	mov	r3, r0
 80056fe:	2b00      	cmp	r3, #0
 8005700:	d001      	beq.n	8005706 <HAL_I2C_Mem_Read+0xe2>
    {
      return HAL_ERROR;
 8005702:	2301      	movs	r3, #1
 8005704:	e1e5      	b.n	8005ad2 <HAL_I2C_Mem_Read+0x4ae>
    }

    if (hi2c->XferSize == 0U)
 8005706:	68fb      	ldr	r3, [r7, #12]
 8005708:	8d1b      	ldrh	r3, [r3, #40]	; 0x28
 800570a:	2b00      	cmp	r3, #0
 800570c:	d113      	bne.n	8005736 <HAL_I2C_Mem_Read+0x112>
    {
      /* Clear ADDR flag */
      __HAL_I2C_CLEAR_ADDRFLAG(hi2c);
 800570e:	2300      	movs	r3, #0
 8005710:	61fb      	str	r3, [r7, #28]
 8005712:	68fb      	ldr	r3, [r7, #12]
 8005714:	681b      	ldr	r3, [r3, #0]
 8005716:	695b      	ldr	r3, [r3, #20]
 8005718:	61fb      	str	r3, [r7, #28]
 800571a:	68fb      	ldr	r3, [r7, #12]
 800571c:	681b      	ldr	r3, [r3, #0]
 800571e:	699b      	ldr	r3, [r3, #24]
 8005720:	61fb      	str	r3, [r7, #28]
 8005722:	69fb      	ldr	r3, [r7, #28]

      /* Generate Stop */
      SET_BIT(hi2c->Instance->CR1, I2C_CR1_STOP);
 8005724:	68fb      	ldr	r3, [r7, #12]
 8005726:	681b      	ldr	r3, [r3, #0]
 8005728:	681a      	ldr	r2, [r3, #0]
 800572a:	68fb      	ldr	r3, [r7, #12]
 800572c:	681b      	ldr	r3, [r3, #0]
 800572e:	f442 7200 	orr.w	r2, r2, #512	; 0x200
 8005732:	601a      	str	r2, [r3, #0]
 8005734:	e1b9      	b.n	8005aaa <HAL_I2C_Mem_Read+0x486>
    }
    else if (hi2c->XferSize == 1U)
 8005736:	68fb      	ldr	r3, [r7, #12]
 8005738:	8d1b      	ldrh	r3, [r3, #40]	; 0x28
 800573a:	2b01      	cmp	r3, #1
 800573c:	d11d      	bne.n	800577a <HAL_I2C_Mem_Read+0x156>
    {
      /* Disable Acknowledge */
      CLEAR_BIT(hi2c->Instance->CR1, I2C_CR1_ACK);
 800573e:	68fb      	ldr	r3, [r7, #12]
 8005740:	681b      	ldr	r3, [r3, #0]
 8005742:	681a      	ldr	r2, [r3, #0]
 8005744:	68fb      	ldr	r3, [r7, #12]
 8005746:	681b      	ldr	r3, [r3, #0]
 8005748:	f422 6280 	bic.w	r2, r2, #1024	; 0x400
 800574c:	601a      	str	r2, [r3, #0]
 800574e:	b672      	cpsid	i
      /* Disable all active IRQs around ADDR clearing and STOP programming because the EV6_3
         software sequence must complete before the current byte end of transfer */
      __disable_irq();

      /* Clear ADDR flag */
      __HAL_I2C_CLEAR_ADDRFLAG(hi2c);
 8005750:	2300      	movs	r3, #0
 8005752:	61bb      	str	r3, [r7, #24]
 8005754:	68fb      	ldr	r3, [r7, #12]
 8005756:	681b      	ldr	r3, [r3, #0]
 8005758:	695b      	ldr	r3, [r3, #20]
 800575a:	61bb      	str	r3, [r7, #24]
 800575c:	68fb      	ldr	r3, [r7, #12]
 800575e:	681b      	ldr	r3, [r3, #0]
 8005760:	699b      	ldr	r3, [r3, #24]
 8005762:	61bb      	str	r3, [r7, #24]
 8005764:	69bb      	ldr	r3, [r7, #24]

      /* Generate Stop */
      SET_BIT(hi2c->Instance->CR1, I2C_CR1_STOP);
 8005766:	68fb      	ldr	r3, [r7, #12]
 8005768:	681b      	ldr	r3, [r3, #0]
 800576a:	681a      	ldr	r2, [r3, #0]
 800576c:	68fb      	ldr	r3, [r7, #12]
 800576e:	681b      	ldr	r3, [r3, #0]
 8005770:	f442 7200 	orr.w	r2, r2, #512	; 0x200
 8005774:	601a      	str	r2, [r3, #0]
  __ASM volatile ("cpsie i" : : : "memory");
 8005776:	b662      	cpsie	i
 8005778:	e197      	b.n	8005aaa <HAL_I2C_Mem_Read+0x486>

      /* Re-enable IRQs */
      __enable_irq();
    }
    else if (hi2c->XferSize == 2U)
 800577a:	68fb      	ldr	r3, [r7, #12]
 800577c:	8d1b      	ldrh	r3, [r3, #40]	; 0x28
 800577e:	2b02      	cmp	r3, #2
 8005780:	d11d      	bne.n	80057be <HAL_I2C_Mem_Read+0x19a>
    {
      /* Enable Pos */
      SET_BIT(hi2c->Instance->CR1, I2C_CR1_POS);
 8005782:	68fb      	ldr	r3, [r7, #12]
 8005784:	681b      	ldr	r3, [r3, #0]
 8005786:	681a      	ldr	r2, [r3, #0]
 8005788:	68fb      	ldr	r3, [r7, #12]
 800578a:	681b      	ldr	r3, [r3, #0]
 800578c:	f442 6200 	orr.w	r2, r2, #2048	; 0x800
 8005790:	601a      	str	r2, [r3, #0]
  __ASM volatile ("cpsid i" : : : "memory");
 8005792:	b672      	cpsid	i
      /* Disable all active IRQs around ADDR clearing and STOP programming because the EV6_3
         software sequence must complete before the current byte end of transfer */
      __disable_irq();

      /* Clear ADDR flag */
      __HAL_I2C_CLEAR_ADDRFLAG(hi2c);
 8005794:	2300      	movs	r3, #0
 8005796:	617b      	str	r3, [r7, #20]
 8005798:	68fb      	ldr	r3, [r7, #12]
 800579a:	681b      	ldr	r3, [r3, #0]
 800579c:	695b      	ldr	r3, [r3, #20]
 800579e:	617b      	str	r3, [r7, #20]
 80057a0:	68fb      	ldr	r3, [r7, #12]
 80057a2:	681b      	ldr	r3, [r3, #0]
 80057a4:	699b      	ldr	r3, [r3, #24]
 80057a6:	617b      	str	r3, [r7, #20]
 80057a8:	697b      	ldr	r3, [r7, #20]

      /* Disable Acknowledge */
      CLEAR_BIT(hi2c->Instance->CR1, I2C_CR1_ACK);
 80057aa:	68fb      	ldr	r3, [r7, #12]
 80057ac:	681b      	ldr	r3, [r3, #0]
 80057ae:	681a      	ldr	r2, [r3, #0]
 80057b0:	68fb      	ldr	r3, [r7, #12]
 80057b2:	681b      	ldr	r3, [r3, #0]
 80057b4:	f422 6280 	bic.w	r2, r2, #1024	; 0x400
 80057b8:	601a      	str	r2, [r3, #0]
  __ASM volatile ("cpsie i" : : : "memory");
 80057ba:	b662      	cpsie	i
 80057bc:	e175      	b.n	8005aaa <HAL_I2C_Mem_Read+0x486>
      __enable_irq();
    }
    else
    {
      /* Enable Acknowledge */
      SET_BIT(hi2c->Instance->CR1, I2C_CR1_ACK);
 80057be:	68fb      	ldr	r3, [r7, #12]
 80057c0:	681b      	ldr	r3, [r3, #0]
 80057c2:	681a      	ldr	r2, [r3, #0]
 80057c4:	68fb      	ldr	r3, [r7, #12]
 80057c6:	681b      	ldr	r3, [r3, #0]
 80057c8:	f442 6280 	orr.w	r2, r2, #1024	; 0x400
 80057cc:	601a      	str	r2, [r3, #0]
      /* Clear ADDR flag */
      __HAL_I2C_CLEAR_ADDRFLAG(hi2c);
 80057ce:	2300      	movs	r3, #0
 80057d0:	613b      	str	r3, [r7, #16]
 80057d2:	68fb      	ldr	r3, [r7, #12]
 80057d4:	681b      	ldr	r3, [r3, #0]
 80057d6:	695b      	ldr	r3, [r3, #20]
 80057d8:	613b      	str	r3, [r7, #16]
 80057da:	68fb      	ldr	r3, [r7, #12]
 80057dc:	681b      	ldr	r3, [r3, #0]
 80057de:	699b      	ldr	r3, [r3, #24]
 80057e0:	613b      	str	r3, [r7, #16]
 80057e2:	693b      	ldr	r3, [r7, #16]
    }

    while (hi2c->XferSize > 0U)
 80057e4:	e161      	b.n	8005aaa <HAL_I2C_Mem_Read+0x486>
    {
      if (hi2c->XferSize <= 3U)
 80057e6:	68fb      	ldr	r3, [r7, #12]
 80057e8:	8d1b      	ldrh	r3, [r3, #40]	; 0x28
 80057ea:	2b03      	cmp	r3, #3
 80057ec:	f200 811a 	bhi.w	8005a24 <HAL_I2C_Mem_Read+0x400>
      {
        /* One byte */
        if (hi2c->XferSize == 1U)
 80057f0:	68fb      	ldr	r3, [r7, #12]
 80057f2:	8d1b      	ldrh	r3, [r3, #40]	; 0x28
 80057f4:	2b01      	cmp	r3, #1
 80057f6:	d123      	bne.n	8005840 <HAL_I2C_Mem_Read+0x21c>
        {
          /* Wait until RXNE flag is set */
          if (I2C_WaitOnRXNEFlagUntilTimeout(hi2c, Timeout, tickstart) != HAL_OK)
 80057f8:	6a7a      	ldr	r2, [r7, #36]	; 0x24
 80057fa:	6bb9      	ldr	r1, [r7, #56]	; 0x38
 80057fc:	68f8      	ldr	r0, [r7, #12]
 80057fe:	f000 fc49 	bl	8006094 <I2C_WaitOnRXNEFlagUntilTimeout>
 8005802:	4603      	mov	r3, r0
 8005804:	2b00      	cmp	r3, #0
 8005806:	d001      	beq.n	800580c <HAL_I2C_Mem_Read+0x1e8>
          {
            return HAL_ERROR;
 8005808:	2301      	movs	r3, #1
 800580a:	e162      	b.n	8005ad2 <HAL_I2C_Mem_Read+0x4ae>
          }

          /* Read data from DR */
          *hi2c->pBuffPtr = (uint8_t)hi2c->Instance->DR;
 800580c:	68fb      	ldr	r3, [r7, #12]
 800580e:	681b      	ldr	r3, [r3, #0]
 8005810:	691a      	ldr	r2, [r3, #16]
 8005812:	68fb      	ldr	r3, [r7, #12]
 8005814:	6a5b      	ldr	r3, [r3, #36]	; 0x24
 8005816:	b2d2      	uxtb	r2, r2
 8005818:	701a      	strb	r2, [r3, #0]

          /* Increment Buffer pointer */
          hi2c->pBuffPtr++;
 800581a:	68fb      	ldr	r3, [r7, #12]
 800581c:	6a5b      	ldr	r3, [r3, #36]	; 0x24
 800581e:	1c5a      	adds	r2, r3, #1
 8005820:	68fb      	ldr	r3, [r7, #12]
 8005822:	625a      	str	r2, [r3, #36]	; 0x24

          /* Update counter */
          hi2c->XferSize--;
 8005824:	68fb      	ldr	r3, [r7, #12]
 8005826:	8d1b      	ldrh	r3, [r3, #40]	; 0x28
 8005828:	3b01      	subs	r3, #1
 800582a:	b29a      	uxth	r2, r3
 800582c:	68fb      	ldr	r3, [r7, #12]
 800582e:	851a      	strh	r2, [r3, #40]	; 0x28
          hi2c->XferCount--;
 8005830:	68fb      	ldr	r3, [r7, #12]
 8005832:	8d5b      	ldrh	r3, [r3, #42]	; 0x2a
 8005834:	b29b      	uxth	r3, r3
 8005836:	3b01      	subs	r3, #1
 8005838:	b29a      	uxth	r2, r3
 800583a:	68fb      	ldr	r3, [r7, #12]
 800583c:	855a      	strh	r2, [r3, #42]	; 0x2a
 800583e:	e134      	b.n	8005aaa <HAL_I2C_Mem_Read+0x486>
        }
        /* Two bytes */
        else if (hi2c->XferSize == 2U)
 8005840:	68fb      	ldr	r3, [r7, #12]
 8005842:	8d1b      	ldrh	r3, [r3, #40]	; 0x28
 8005844:	2b02      	cmp	r3, #2
 8005846:	d150      	bne.n	80058ea <HAL_I2C_Mem_Read+0x2c6>
        {
          /* Wait until BTF flag is set */
          if (I2C_WaitOnFlagUntilTimeout(hi2c, I2C_FLAG_BTF, RESET, Timeout, tickstart) != HAL_OK)
 8005848:	6a7b      	ldr	r3, [r7, #36]	; 0x24
 800584a:	9300      	str	r3, [sp, #0]
 800584c:	6bbb      	ldr	r3, [r7, #56]	; 0x38
 800584e:	2200      	movs	r2, #0
 8005850:	4906      	ldr	r1, [pc, #24]	; (800586c <HAL_I2C_Mem_Read+0x248>)
 8005852:	68f8      	ldr	r0, [r7, #12]
 8005854:	f000 fac6 	bl	8005de4 <I2C_WaitOnFlagUntilTimeout>
 8005858:	4603      	mov	r3, r0
 800585a:	2b00      	cmp	r3, #0
 800585c:	d008      	beq.n	8005870 <HAL_I2C_Mem_Read+0x24c>
          {
            return HAL_ERROR;
 800585e:	2301      	movs	r3, #1
 8005860:	e137      	b.n	8005ad2 <HAL_I2C_Mem_Read+0x4ae>
 8005862:	bf00      	nop
 8005864:	00100002 	.word	0x00100002
 8005868:	ffff0000 	.word	0xffff0000
 800586c:	00010004 	.word	0x00010004
  __ASM volatile ("cpsid i" : : : "memory");
 8005870:	b672      	cpsid	i
          /* Disable all active IRQs around ADDR clearing and STOP programming because the EV6_3
             software sequence must complete before the current byte end of transfer */
          __disable_irq();

          /* Generate Stop */
          SET_BIT(hi2c->Instance->CR1, I2C_CR1_STOP);
 8005872:	68fb      	ldr	r3, [r7, #12]
 8005874:	681b      	ldr	r3, [r3, #0]
 8005876:	681a      	ldr	r2, [r3, #0]
 8005878:	68fb      	ldr	r3, [r7, #12]
 800587a:	681b      	ldr	r3, [r3, #0]
 800587c:	f442 7200 	orr.w	r2, r2, #512	; 0x200
 8005880:	601a      	str	r2, [r3, #0]

          /* Read data from DR */
          *hi2c->pBuffPtr = (uint8_t)hi2c->Instance->DR;
 8005882:	68fb      	ldr	r3, [r7, #12]
 8005884:	681b      	ldr	r3, [r3, #0]
 8005886:	691a      	ldr	r2, [r3, #16]
 8005888:	68fb      	ldr	r3, [r7, #12]
 800588a:	6a5b      	ldr	r3, [r3, #36]	; 0x24
 800588c:	b2d2      	uxtb	r2, r2
 800588e:	701a      	strb	r2, [r3, #0]

          /* Increment Buffer pointer */
          hi2c->pBuffPtr++;
 8005890:	68fb      	ldr	r3, [r7, #12]
 8005892:	6a5b      	ldr	r3, [r3, #36]	; 0x24
 8005894:	1c5a      	adds	r2, r3, #1
 8005896:	68fb      	ldr	r3, [r7, #12]
 8005898:	625a      	str	r2, [r3, #36]	; 0x24

          /* Update counter */
          hi2c->XferSize--;
 800589a:	68fb      	ldr	r3, [r7, #12]
 800589c:	8d1b      	ldrh	r3, [r3, #40]	; 0x28
 800589e:	3b01      	subs	r3, #1
 80058a0:	b29a      	uxth	r2, r3
 80058a2:	68fb      	ldr	r3, [r7, #12]
 80058a4:	851a      	strh	r2, [r3, #40]	; 0x28
          hi2c->XferCount--;
 80058a6:	68fb      	ldr	r3, [r7, #12]
 80058a8:	8d5b      	ldrh	r3, [r3, #42]	; 0x2a
 80058aa:	b29b      	uxth	r3, r3
 80058ac:	3b01      	subs	r3, #1
 80058ae:	b29a      	uxth	r2, r3
 80058b0:	68fb      	ldr	r3, [r7, #12]
 80058b2:	855a      	strh	r2, [r3, #42]	; 0x2a
  __ASM volatile ("cpsie i" : : : "memory");
 80058b4:	b662      	cpsie	i

          /* Re-enable IRQs */
          __enable_irq();

          /* Read data from DR */
          *hi2c->pBuffPtr = (uint8_t)hi2c->Instance->DR;
 80058b6:	68fb      	ldr	r3, [r7, #12]
 80058b8:	681b      	ldr	r3, [r3, #0]
 80058ba:	691a      	ldr	r2, [r3, #16]
 80058bc:	68fb      	ldr	r3, [r7, #12]
 80058be:	6a5b      	ldr	r3, [r3, #36]	; 0x24
 80058c0:	b2d2      	uxtb	r2, r2
 80058c2:	701a      	strb	r2, [r3, #0]

          /* Increment Buffer pointer */
          hi2c->pBuffPtr++;
 80058c4:	68fb      	ldr	r3, [r7, #12]
 80058c6:	6a5b      	ldr	r3, [r3, #36]	; 0x24
 80058c8:	1c5a      	adds	r2, r3, #1
 80058ca:	68fb      	ldr	r3, [r7, #12]
 80058cc:	625a      	str	r2, [r3, #36]	; 0x24

          /* Update counter */
          hi2c->XferSize--;
 80058ce:	68fb      	ldr	r3, [r7, #12]
 80058d0:	8d1b      	ldrh	r3, [r3, #40]	; 0x28
 80058d2:	3b01      	subs	r3, #1
 80058d4:	b29a      	uxth	r2, r3
 80058d6:	68fb      	ldr	r3, [r7, #12]
 80058d8:	851a      	strh	r2, [r3, #40]	; 0x28
          hi2c->XferCount--;
 80058da:	68fb      	ldr	r3, [r7, #12]
 80058dc:	8d5b      	ldrh	r3, [r3, #42]	; 0x2a
 80058de:	b29b      	uxth	r3, r3
 80058e0:	3b01      	subs	r3, #1
 80058e2:	b29a      	uxth	r2, r3
 80058e4:	68fb      	ldr	r3, [r7, #12]
 80058e6:	855a      	strh	r2, [r3, #42]	; 0x2a
 80058e8:	e0df      	b.n	8005aaa <HAL_I2C_Mem_Read+0x486>
        }
        /* 3 Last bytes */
        else
        {
          /* Wait until BTF flag is set */
          if (I2C_WaitOnFlagUntilTimeout(hi2c, I2C_FLAG_BTF, RESET, Timeout, tickstart) != HAL_OK)
 80058ea:	6a7b      	ldr	r3, [r7, #36]	; 0x24
 80058ec:	9300      	str	r3, [sp, #0]
 80058ee:	6bbb      	ldr	r3, [r7, #56]	; 0x38
 80058f0:	2200      	movs	r2, #0
 80058f2:	497a      	ldr	r1, [pc, #488]	; (8005adc <HAL_I2C_Mem_Read+0x4b8>)
 80058f4:	68f8      	ldr	r0, [r7, #12]
 80058f6:	f000 fa75 	bl	8005de4 <I2C_WaitOnFlagUntilTimeout>
 80058fa:	4603      	mov	r3, r0
 80058fc:	2b00      	cmp	r3, #0
 80058fe:	d001      	beq.n	8005904 <HAL_I2C_Mem_Read+0x2e0>
          {
            return HAL_ERROR;
 8005900:	2301      	movs	r3, #1
 8005902:	e0e6      	b.n	8005ad2 <HAL_I2C_Mem_Read+0x4ae>
          }

          /* Disable Acknowledge */
          CLEAR_BIT(hi2c->Instance->CR1, I2C_CR1_ACK);
 8005904:	68fb      	ldr	r3, [r7, #12]
 8005906:	681b      	ldr	r3, [r3, #0]
 8005908:	681a      	ldr	r2, [r3, #0]
 800590a:	68fb      	ldr	r3, [r7, #12]
 800590c:	681b      	ldr	r3, [r3, #0]
 800590e:	f422 6280 	bic.w	r2, r2, #1024	; 0x400
 8005912:	601a      	str	r2, [r3, #0]
  __ASM volatile ("cpsid i" : : : "memory");
 8005914:	b672      	cpsid	i
          /* Disable all active IRQs around ADDR clearing and STOP programming because the EV6_3
             software sequence must complete before the current byte end of transfer */
          __disable_irq();

          /* Read data from DR */
          *hi2c->pBuffPtr = (uint8_t)hi2c->Instance->DR;
 8005916:	68fb      	ldr	r3, [r7, #12]
 8005918:	681b      	ldr	r3, [r3, #0]
 800591a:	691a      	ldr	r2, [r3, #16]
 800591c:	68fb      	ldr	r3, [r7, #12]
 800591e:	6a5b      	ldr	r3, [r3, #36]	; 0x24
 8005920:	b2d2      	uxtb	r2, r2
 8005922:	701a      	strb	r2, [r3, #0]

          /* Increment Buffer pointer */
          hi2c->pBuffPtr++;
 8005924:	68fb      	ldr	r3, [r7, #12]
 8005926:	6a5b      	ldr	r3, [r3, #36]	; 0x24
 8005928:	1c5a      	adds	r2, r3, #1
 800592a:	68fb      	ldr	r3, [r7, #12]
 800592c:	625a      	str	r2, [r3, #36]	; 0x24

          /* Update counter */
          hi2c->XferSize--;
 800592e:	68fb      	ldr	r3, [r7, #12]
 8005930:	8d1b      	ldrh	r3, [r3, #40]	; 0x28
 8005932:	3b01      	subs	r3, #1
 8005934:	b29a      	uxth	r2, r3
 8005936:	68fb      	ldr	r3, [r7, #12]
 8005938:	851a      	strh	r2, [r3, #40]	; 0x28
          hi2c->XferCount--;
 800593a:	68fb      	ldr	r3, [r7, #12]
 800593c:	8d5b      	ldrh	r3, [r3, #42]	; 0x2a
 800593e:	b29b      	uxth	r3, r3
 8005940:	3b01      	subs	r3, #1
 8005942:	b29a      	uxth	r2, r3
 8005944:	68fb      	ldr	r3, [r7, #12]
 8005946:	855a      	strh	r2, [r3, #42]	; 0x2a

          /* Wait until BTF flag is set */
          count = I2C_TIMEOUT_FLAG * (SystemCoreClock / 25U / 1000U);
 8005948:	4b65      	ldr	r3, [pc, #404]	; (8005ae0 <HAL_I2C_Mem_Read+0x4bc>)
 800594a:	681b      	ldr	r3, [r3, #0]
 800594c:	08db      	lsrs	r3, r3, #3
 800594e:	4a65      	ldr	r2, [pc, #404]	; (8005ae4 <HAL_I2C_Mem_Read+0x4c0>)
 8005950:	fba2 2303 	umull	r2, r3, r2, r3
 8005954:	0a1a      	lsrs	r2, r3, #8
 8005956:	4613      	mov	r3, r2
 8005958:	009b      	lsls	r3, r3, #2
 800595a:	4413      	add	r3, r2
 800595c:	00da      	lsls	r2, r3, #3
 800595e:	1ad3      	subs	r3, r2, r3
 8005960:	623b      	str	r3, [r7, #32]
          do
          {
            count--;
 8005962:	6a3b      	ldr	r3, [r7, #32]
 8005964:	3b01      	subs	r3, #1
 8005966:	623b      	str	r3, [r7, #32]
            if (count == 0U)
 8005968:	6a3b      	ldr	r3, [r7, #32]
 800596a:	2b00      	cmp	r3, #0
 800596c:	d117      	bne.n	800599e <HAL_I2C_Mem_Read+0x37a>
            {
              hi2c->PreviousState       = I2C_STATE_NONE;
 800596e:	68fb      	ldr	r3, [r7, #12]
 8005970:	2200      	movs	r2, #0
 8005972:	631a      	str	r2, [r3, #48]	; 0x30
              hi2c->State               = HAL_I2C_STATE_READY;
 8005974:	68fb      	ldr	r3, [r7, #12]
 8005976:	2220      	movs	r2, #32
 8005978:	f883 203d 	strb.w	r2, [r3, #61]	; 0x3d
              hi2c->Mode                = HAL_I2C_MODE_NONE;
 800597c:	68fb      	ldr	r3, [r7, #12]
 800597e:	2200      	movs	r2, #0
 8005980:	f883 203e 	strb.w	r2, [r3, #62]	; 0x3e
              hi2c->ErrorCode           |= HAL_I2C_ERROR_TIMEOUT;
 8005984:	68fb      	ldr	r3, [r7, #12]
 8005986:	6c1b      	ldr	r3, [r3, #64]	; 0x40
 8005988:	f043 0220 	orr.w	r2, r3, #32
 800598c:	68fb      	ldr	r3, [r7, #12]
 800598e:	641a      	str	r2, [r3, #64]	; 0x40
  __ASM volatile ("cpsie i" : : : "memory");
 8005990:	b662      	cpsie	i

              /* Re-enable IRQs */
              __enable_irq();

              /* Process Unlocked */
              __HAL_UNLOCK(hi2c);
 8005992:	68fb      	ldr	r3, [r7, #12]
 8005994:	2200      	movs	r2, #0
 8005996:	f883 203c 	strb.w	r2, [r3, #60]	; 0x3c

              return HAL_ERROR;
 800599a:	2301      	movs	r3, #1
 800599c:	e099      	b.n	8005ad2 <HAL_I2C_Mem_Read+0x4ae>
            }
          }
          while (__HAL_I2C_GET_FLAG(hi2c, I2C_FLAG_BTF) == RESET);
 800599e:	68fb      	ldr	r3, [r7, #12]
 80059a0:	681b      	ldr	r3, [r3, #0]
 80059a2:	695b      	ldr	r3, [r3, #20]
 80059a4:	f003 0304 	and.w	r3, r3, #4
 80059a8:	2b04      	cmp	r3, #4
 80059aa:	d1da      	bne.n	8005962 <HAL_I2C_Mem_Read+0x33e>

          /* Generate Stop */
          SET_BIT(hi2c->Instance->CR1, I2C_CR1_STOP);
 80059ac:	68fb      	ldr	r3, [r7, #12]
 80059ae:	681b      	ldr	r3, [r3, #0]
 80059b0:	681a      	ldr	r2, [r3, #0]
 80059b2:	68fb      	ldr	r3, [r7, #12]
 80059b4:	681b      	ldr	r3, [r3, #0]
 80059b6:	f442 7200 	orr.w	r2, r2, #512	; 0x200
 80059ba:	601a      	str	r2, [r3, #0]

          /* Read data from DR */
          *hi2c->pBuffPtr = (uint8_t)hi2c->Instance->DR;
 80059bc:	68fb      	ldr	r3, [r7, #12]
 80059be:	681b      	ldr	r3, [r3, #0]
 80059c0:	691a      	ldr	r2, [r3, #16]
 80059c2:	68fb      	ldr	r3, [r7, #12]
 80059c4:	6a5b      	ldr	r3, [r3, #36]	; 0x24
 80059c6:	b2d2      	uxtb	r2, r2
 80059c8:	701a      	strb	r2, [r3, #0]

          /* Increment Buffer pointer */
          hi2c->pBuffPtr++;
 80059ca:	68fb      	ldr	r3, [r7, #12]
 80059cc:	6a5b      	ldr	r3, [r3, #36]	; 0x24
 80059ce:	1c5a      	adds	r2, r3, #1
 80059d0:	68fb      	ldr	r3, [r7, #12]
 80059d2:	625a      	str	r2, [r3, #36]	; 0x24

          /* Update counter */
          hi2c->XferSize--;
 80059d4:	68fb      	ldr	r3, [r7, #12]
 80059d6:	8d1b      	ldrh	r3, [r3, #40]	; 0x28
 80059d8:	3b01      	subs	r3, #1
 80059da:	b29a      	uxth	r2, r3
 80059dc:	68fb      	ldr	r3, [r7, #12]
 80059de:	851a      	strh	r2, [r3, #40]	; 0x28
          hi2c->XferCount--;
 80059e0:	68fb      	ldr	r3, [r7, #12]
 80059e2:	8d5b      	ldrh	r3, [r3, #42]	; 0x2a
 80059e4:	b29b      	uxth	r3, r3
 80059e6:	3b01      	subs	r3, #1
 80059e8:	b29a      	uxth	r2, r3
 80059ea:	68fb      	ldr	r3, [r7, #12]
 80059ec:	855a      	strh	r2, [r3, #42]	; 0x2a
 80059ee:	b662      	cpsie	i

          /* Re-enable IRQs */
          __enable_irq();

          /* Read data from DR */
          *hi2c->pBuffPtr = (uint8_t)hi2c->Instance->DR;
 80059f0:	68fb      	ldr	r3, [r7, #12]
 80059f2:	681b      	ldr	r3, [r3, #0]
 80059f4:	691a      	ldr	r2, [r3, #16]
 80059f6:	68fb      	ldr	r3, [r7, #12]
 80059f8:	6a5b      	ldr	r3, [r3, #36]	; 0x24
 80059fa:	b2d2      	uxtb	r2, r2
 80059fc:	701a      	strb	r2, [r3, #0]

          /* Increment Buffer pointer */
          hi2c->pBuffPtr++;
 80059fe:	68fb      	ldr	r3, [r7, #12]
 8005a00:	6a5b      	ldr	r3, [r3, #36]	; 0x24
 8005a02:	1c5a      	adds	r2, r3, #1
 8005a04:	68fb      	ldr	r3, [r7, #12]
 8005a06:	625a      	str	r2, [r3, #36]	; 0x24

          /* Update counter */
          hi2c->XferSize--;
 8005a08:	68fb      	ldr	r3, [r7, #12]
 8005a0a:	8d1b      	ldrh	r3, [r3, #40]	; 0x28
 8005a0c:	3b01      	subs	r3, #1
 8005a0e:	b29a      	uxth	r2, r3
 8005a10:	68fb      	ldr	r3, [r7, #12]
 8005a12:	851a      	strh	r2, [r3, #40]	; 0x28
          hi2c->XferCount--;
 8005a14:	68fb      	ldr	r3, [r7, #12]
 8005a16:	8d5b      	ldrh	r3, [r3, #42]	; 0x2a
 8005a18:	b29b      	uxth	r3, r3
 8005a1a:	3b01      	subs	r3, #1
 8005a1c:	b29a      	uxth	r2, r3
 8005a1e:	68fb      	ldr	r3, [r7, #12]
 8005a20:	855a      	strh	r2, [r3, #42]	; 0x2a
 8005a22:	e042      	b.n	8005aaa <HAL_I2C_Mem_Read+0x486>
        }
      }
      else
      {
        /* Wait until RXNE flag is set */
        if (I2C_WaitOnRXNEFlagUntilTimeout(hi2c, Timeout, tickstart) != HAL_OK)
 8005a24:	6a7a      	ldr	r2, [r7, #36]	; 0x24
 8005a26:	6bb9      	ldr	r1, [r7, #56]	; 0x38
 8005a28:	68f8      	ldr	r0, [r7, #12]
 8005a2a:	f000 fb33 	bl	8006094 <I2C_WaitOnRXNEFlagUntilTimeout>
 8005a2e:	4603      	mov	r3, r0
 8005a30:	2b00      	cmp	r3, #0
 8005a32:	d001      	beq.n	8005a38 <HAL_I2C_Mem_Read+0x414>
        {
          return HAL_ERROR;
 8005a34:	2301      	movs	r3, #1
 8005a36:	e04c      	b.n	8005ad2 <HAL_I2C_Mem_Read+0x4ae>
        }

        /* Read data from DR */
        *hi2c->pBuffPtr = (uint8_t)hi2c->Instance->DR;
 8005a38:	68fb      	ldr	r3, [r7, #12]
 8005a3a:	681b      	ldr	r3, [r3, #0]
 8005a3c:	691a      	ldr	r2, [r3, #16]
 8005a3e:	68fb      	ldr	r3, [r7, #12]
 8005a40:	6a5b      	ldr	r3, [r3, #36]	; 0x24
 8005a42:	b2d2      	uxtb	r2, r2
 8005a44:	701a      	strb	r2, [r3, #0]

        /* Increment Buffer pointer */
        hi2c->pBuffPtr++;
 8005a46:	68fb      	ldr	r3, [r7, #12]
 8005a48:	6a5b      	ldr	r3, [r3, #36]	; 0x24
 8005a4a:	1c5a      	adds	r2, r3, #1
 8005a4c:	68fb      	ldr	r3, [r7, #12]
 8005a4e:	625a      	str	r2, [r3, #36]	; 0x24

        /* Update counter */
        hi2c->XferSize--;
 8005a50:	68fb      	ldr	r3, [r7, #12]
 8005a52:	8d1b      	ldrh	r3, [r3, #40]	; 0x28
 8005a54:	3b01      	subs	r3, #1
 8005a56:	b29a      	uxth	r2, r3
 8005a58:	68fb      	ldr	r3, [r7, #12]
 8005a5a:	851a      	strh	r2, [r3, #40]	; 0x28
        hi2c->XferCount--;
 8005a5c:	68fb      	ldr	r3, [r7, #12]
 8005a5e:	8d5b      	ldrh	r3, [r3, #42]	; 0x2a
 8005a60:	b29b      	uxth	r3, r3
 8005a62:	3b01      	subs	r3, #1
 8005a64:	b29a      	uxth	r2, r3
 8005a66:	68fb      	ldr	r3, [r7, #12]
 8005a68:	855a      	strh	r2, [r3, #42]	; 0x2a

        if (__HAL_I2C_GET_FLAG(hi2c, I2C_FLAG_BTF) == SET)
 8005a6a:	68fb      	ldr	r3, [r7, #12]
 8005a6c:	681b      	ldr	r3, [r3, #0]
 8005a6e:	695b      	ldr	r3, [r3, #20]
 8005a70:	f003 0304 	and.w	r3, r3, #4
 8005a74:	2b04      	cmp	r3, #4
 8005a76:	d118      	bne.n	8005aaa <HAL_I2C_Mem_Read+0x486>
        {
          /* Read data from DR */
          *hi2c->pBuffPtr = (uint8_t)hi2c->Instance->DR;
 8005a78:	68fb      	ldr	r3, [r7, #12]
 8005a7a:	681b      	ldr	r3, [r3, #0]
 8005a7c:	691a      	ldr	r2, [r3, #16]
 8005a7e:	68fb      	ldr	r3, [r7, #12]
 8005a80:	6a5b      	ldr	r3, [r3, #36]	; 0x24
 8005a82:	b2d2      	uxtb	r2, r2
 8005a84:	701a      	strb	r2, [r3, #0]

          /* Increment Buffer pointer */
          hi2c->pBuffPtr++;
 8005a86:	68fb      	ldr	r3, [r7, #12]
 8005a88:	6a5b      	ldr	r3, [r3, #36]	; 0x24
 8005a8a:	1c5a      	adds	r2, r3, #1
 8005a8c:	68fb      	ldr	r3, [r7, #12]
 8005a8e:	625a      	str	r2, [r3, #36]	; 0x24

          /* Update counter */
          hi2c->XferSize--;
 8005a90:	68fb      	ldr	r3, [r7, #12]
 8005a92:	8d1b      	ldrh	r3, [r3, #40]	; 0x28
 8005a94:	3b01      	subs	r3, #1
 8005a96:	b29a      	uxth	r2, r3
 8005a98:	68fb      	ldr	r3, [r7, #12]
 8005a9a:	851a      	strh	r2, [r3, #40]	; 0x28
          hi2c->XferCount--;
 8005a9c:	68fb      	ldr	r3, [r7, #12]
 8005a9e:	8d5b      	ldrh	r3, [r3, #42]	; 0x2a
 8005aa0:	b29b      	uxth	r3, r3
 8005aa2:	3b01      	subs	r3, #1
 8005aa4:	b29a      	uxth	r2, r3
 8005aa6:	68fb      	ldr	r3, [r7, #12]
 8005aa8:	855a      	strh	r2, [r3, #42]	; 0x2a
    while (hi2c->XferSize > 0U)
 8005aaa:	68fb      	ldr	r3, [r7, #12]
 8005aac:	8d1b      	ldrh	r3, [r3, #40]	; 0x28
 8005aae:	2b00      	cmp	r3, #0
 8005ab0:	f47f ae99 	bne.w	80057e6 <HAL_I2C_Mem_Read+0x1c2>
        }
      }
    }

    hi2c->State = HAL_I2C_STATE_READY;
 8005ab4:	68fb      	ldr	r3, [r7, #12]
 8005ab6:	2220      	movs	r2, #32
 8005ab8:	f883 203d 	strb.w	r2, [r3, #61]	; 0x3d
    hi2c->Mode = HAL_I2C_MODE_NONE;
 8005abc:	68fb      	ldr	r3, [r7, #12]
 8005abe:	2200      	movs	r2, #0
 8005ac0:	f883 203e 	strb.w	r2, [r3, #62]	; 0x3e

    /* Process Unlocked */
    __HAL_UNLOCK(hi2c);
 8005ac4:	68fb      	ldr	r3, [r7, #12]
 8005ac6:	2200      	movs	r2, #0
 8005ac8:	f883 203c 	strb.w	r2, [r3, #60]	; 0x3c

    return HAL_OK;
 8005acc:	2300      	movs	r3, #0
 8005ace:	e000      	b.n	8005ad2 <HAL_I2C_Mem_Read+0x4ae>
  }
  else
  {
    return HAL_BUSY;
 8005ad0:	2302      	movs	r3, #2
  }
}
 8005ad2:	4618      	mov	r0, r3
 8005ad4:	3728      	adds	r7, #40	; 0x28
 8005ad6:	46bd      	mov	sp, r7
 8005ad8:	bd80      	pop	{r7, pc}
 8005ada:	bf00      	nop
 8005adc:	00010004 	.word	0x00010004
 8005ae0:	200000ac 	.word	0x200000ac
 8005ae4:	14f8b589 	.word	0x14f8b589

08005ae8 <I2C_RequestMemoryWrite>:
  * @param  Timeout Timeout duration
  * @param  Tickstart Tick start value
  * @retval HAL status
  */
static HAL_StatusTypeDef I2C_RequestMemoryWrite(I2C_HandleTypeDef *hi2c, uint16_t DevAddress, uint16_t MemAddress, uint16_t MemAddSize, uint32_t Timeout, uint32_t Tickstart)
{
 8005ae8:	b580      	push	{r7, lr}
 8005aea:	b088      	sub	sp, #32
 8005aec:	af02      	add	r7, sp, #8
 8005aee:	60f8      	str	r0, [r7, #12]
 8005af0:	4608      	mov	r0, r1
 8005af2:	4611      	mov	r1, r2
 8005af4:	461a      	mov	r2, r3
 8005af6:	4603      	mov	r3, r0
 8005af8:	817b      	strh	r3, [r7, #10]
 8005afa:	460b      	mov	r3, r1
 8005afc:	813b      	strh	r3, [r7, #8]
 8005afe:	4613      	mov	r3, r2
 8005b00:	80fb      	strh	r3, [r7, #6]
  /* Generate Start */
  SET_BIT(hi2c->Instance->CR1, I2C_CR1_START);
 8005b02:	68fb      	ldr	r3, [r7, #12]
 8005b04:	681b      	ldr	r3, [r3, #0]
 8005b06:	681a      	ldr	r2, [r3, #0]
 8005b08:	68fb      	ldr	r3, [r7, #12]
 8005b0a:	681b      	ldr	r3, [r3, #0]
 8005b0c:	f442 7280 	orr.w	r2, r2, #256	; 0x100
 8005b10:	601a      	str	r2, [r3, #0]

  /* Wait until SB flag is set */
  if (I2C_WaitOnFlagUntilTimeout(hi2c, I2C_FLAG_SB, RESET, Timeout, Tickstart) != HAL_OK)
 8005b12:	6a7b      	ldr	r3, [r7, #36]	; 0x24
 8005b14:	9300      	str	r3, [sp, #0]
 8005b16:	6a3b      	ldr	r3, [r7, #32]
 8005b18:	2200      	movs	r2, #0
 8005b1a:	f04f 1101 	mov.w	r1, #65537	; 0x10001
 8005b1e:	68f8      	ldr	r0, [r7, #12]
 8005b20:	f000 f960 	bl	8005de4 <I2C_WaitOnFlagUntilTimeout>
 8005b24:	4603      	mov	r3, r0
 8005b26:	2b00      	cmp	r3, #0
 8005b28:	d00d      	beq.n	8005b46 <I2C_RequestMemoryWrite+0x5e>
  {
    if (READ_BIT(hi2c->Instance->CR1, I2C_CR1_START) == I2C_CR1_START)
 8005b2a:	68fb      	ldr	r3, [r7, #12]
 8005b2c:	681b      	ldr	r3, [r3, #0]
 8005b2e:	681b      	ldr	r3, [r3, #0]
 8005b30:	f403 7380 	and.w	r3, r3, #256	; 0x100
 8005b34:	f5b3 7f80 	cmp.w	r3, #256	; 0x100
 8005b38:	d103      	bne.n	8005b42 <I2C_RequestMemoryWrite+0x5a>
    {
      hi2c->ErrorCode = HAL_I2C_WRONG_START;
 8005b3a:	68fb      	ldr	r3, [r7, #12]
 8005b3c:	f44f 7200 	mov.w	r2, #512	; 0x200
 8005b40:	641a      	str	r2, [r3, #64]	; 0x40
    }
    return HAL_TIMEOUT;
 8005b42:	2303      	movs	r3, #3
 8005b44:	e05f      	b.n	8005c06 <I2C_RequestMemoryWrite+0x11e>
  }

  /* Send slave address */
  hi2c->Instance->DR = I2C_7BIT_ADD_WRITE(DevAddress);
 8005b46:	897b      	ldrh	r3, [r7, #10]
 8005b48:	b2db      	uxtb	r3, r3
 8005b4a:	461a      	mov	r2, r3
 8005b4c:	68fb      	ldr	r3, [r7, #12]
 8005b4e:	681b      	ldr	r3, [r3, #0]
 8005b50:	f002 02fe 	and.w	r2, r2, #254	; 0xfe
 8005b54:	611a      	str	r2, [r3, #16]

  /* Wait until ADDR flag is set */
  if (I2C_WaitOnMasterAddressFlagUntilTimeout(hi2c, I2C_FLAG_ADDR, Timeout, Tickstart) != HAL_OK)
 8005b56:	6a7b      	ldr	r3, [r7, #36]	; 0x24
 8005b58:	6a3a      	ldr	r2, [r7, #32]
 8005b5a:	492d      	ldr	r1, [pc, #180]	; (8005c10 <I2C_RequestMemoryWrite+0x128>)
 8005b5c:	68f8      	ldr	r0, [r7, #12]
 8005b5e:	f000 f998 	bl	8005e92 <I2C_WaitOnMasterAddressFlagUntilTimeout>
 8005b62:	4603      	mov	r3, r0
 8005b64:	2b00      	cmp	r3, #0
 8005b66:	d001      	beq.n	8005b6c <I2C_RequestMemoryWrite+0x84>
  {
    return HAL_ERROR;
 8005b68:	2301      	movs	r3, #1
 8005b6a:	e04c      	b.n	8005c06 <I2C_RequestMemoryWrite+0x11e>
  }

  /* Clear ADDR flag */
  __HAL_I2C_CLEAR_ADDRFLAG(hi2c);
 8005b6c:	2300      	movs	r3, #0
 8005b6e:	617b      	str	r3, [r7, #20]
 8005b70:	68fb      	ldr	r3, [r7, #12]
 8005b72:	681b      	ldr	r3, [r3, #0]
 8005b74:	695b      	ldr	r3, [r3, #20]
 8005b76:	617b      	str	r3, [r7, #20]
 8005b78:	68fb      	ldr	r3, [r7, #12]
 8005b7a:	681b      	ldr	r3, [r3, #0]
 8005b7c:	699b      	ldr	r3, [r3, #24]
 8005b7e:	617b      	str	r3, [r7, #20]
 8005b80:	697b      	ldr	r3, [r7, #20]

  /* Wait until TXE flag is set */
  if (I2C_WaitOnTXEFlagUntilTimeout(hi2c, Timeout, Tickstart) != HAL_OK)
 8005b82:	6a7a      	ldr	r2, [r7, #36]	; 0x24
 8005b84:	6a39      	ldr	r1, [r7, #32]
 8005b86:	68f8      	ldr	r0, [r7, #12]
 8005b88:	f000 fa02 	bl	8005f90 <I2C_WaitOnTXEFlagUntilTimeout>
 8005b8c:	4603      	mov	r3, r0
 8005b8e:	2b00      	cmp	r3, #0
 8005b90:	d00d      	beq.n	8005bae <I2C_RequestMemoryWrite+0xc6>
  {
    if (hi2c->ErrorCode == HAL_I2C_ERROR_AF)
 8005b92:	68fb      	ldr	r3, [r7, #12]
 8005b94:	6c1b      	ldr	r3, [r3, #64]	; 0x40
 8005b96:	2b04      	cmp	r3, #4
 8005b98:	d107      	bne.n	8005baa <I2C_RequestMemoryWrite+0xc2>
    {
      /* Generate Stop */
      SET_BIT(hi2c->Instance->CR1, I2C_CR1_STOP);
 8005b9a:	68fb      	ldr	r3, [r7, #12]
 8005b9c:	681b      	ldr	r3, [r3, #0]
 8005b9e:	681a      	ldr	r2, [r3, #0]
 8005ba0:	68fb      	ldr	r3, [r7, #12]
 8005ba2:	681b      	ldr	r3, [r3, #0]
 8005ba4:	f442 7200 	orr.w	r2, r2, #512	; 0x200
 8005ba8:	601a      	str	r2, [r3, #0]
    }
    return HAL_ERROR;
 8005baa:	2301      	movs	r3, #1
 8005bac:	e02b      	b.n	8005c06 <I2C_RequestMemoryWrite+0x11e>
  }

  /* If Memory address size is 8Bit */
  if (MemAddSize == I2C_MEMADD_SIZE_8BIT)
 8005bae:	88fb      	ldrh	r3, [r7, #6]
 8005bb0:	2b01      	cmp	r3, #1
 8005bb2:	d105      	bne.n	8005bc0 <I2C_RequestMemoryWrite+0xd8>
  {
    /* Send Memory Address */
    hi2c->Instance->DR = I2C_MEM_ADD_LSB(MemAddress);
 8005bb4:	893b      	ldrh	r3, [r7, #8]
 8005bb6:	b2da      	uxtb	r2, r3
 8005bb8:	68fb      	ldr	r3, [r7, #12]
 8005bba:	681b      	ldr	r3, [r3, #0]
 8005bbc:	611a      	str	r2, [r3, #16]
 8005bbe:	e021      	b.n	8005c04 <I2C_RequestMemoryWrite+0x11c>
  }
  /* If Memory address size is 16Bit */
  else
  {
    /* Send MSB of Memory Address */
    hi2c->Instance->DR = I2C_MEM_ADD_MSB(MemAddress);
 8005bc0:	893b      	ldrh	r3, [r7, #8]
 8005bc2:	0a1b      	lsrs	r3, r3, #8
 8005bc4:	b29b      	uxth	r3, r3
 8005bc6:	b2da      	uxtb	r2, r3
 8005bc8:	68fb      	ldr	r3, [r7, #12]
 8005bca:	681b      	ldr	r3, [r3, #0]
 8005bcc:	611a      	str	r2, [r3, #16]

    /* Wait until TXE flag is set */
    if (I2C_WaitOnTXEFlagUntilTimeout(hi2c, Timeout, Tickstart) != HAL_OK)
 8005bce:	6a7a      	ldr	r2, [r7, #36]	; 0x24
 8005bd0:	6a39      	ldr	r1, [r7, #32]
 8005bd2:	68f8      	ldr	r0, [r7, #12]
 8005bd4:	f000 f9dc 	bl	8005f90 <I2C_WaitOnTXEFlagUntilTimeout>
 8005bd8:	4603      	mov	r3, r0
 8005bda:	2b00      	cmp	r3, #0
 8005bdc:	d00d      	beq.n	8005bfa <I2C_RequestMemoryWrite+0x112>
    {
      if (hi2c->ErrorCode == HAL_I2C_ERROR_AF)
 8005bde:	68fb      	ldr	r3, [r7, #12]
 8005be0:	6c1b      	ldr	r3, [r3, #64]	; 0x40
 8005be2:	2b04      	cmp	r3, #4
 8005be4:	d107      	bne.n	8005bf6 <I2C_RequestMemoryWrite+0x10e>
      {
        /* Generate Stop */
        SET_BIT(hi2c->Instance->CR1, I2C_CR1_STOP);
 8005be6:	68fb      	ldr	r3, [r7, #12]
 8005be8:	681b      	ldr	r3, [r3, #0]
 8005bea:	681a      	ldr	r2, [r3, #0]
 8005bec:	68fb      	ldr	r3, [r7, #12]
 8005bee:	681b      	ldr	r3, [r3, #0]
 8005bf0:	f442 7200 	orr.w	r2, r2, #512	; 0x200
 8005bf4:	601a      	str	r2, [r3, #0]
      }
      return HAL_ERROR;
 8005bf6:	2301      	movs	r3, #1
 8005bf8:	e005      	b.n	8005c06 <I2C_RequestMemoryWrite+0x11e>
    }

    /* Send LSB of Memory Address */
    hi2c->Instance->DR = I2C_MEM_ADD_LSB(MemAddress);
 8005bfa:	893b      	ldrh	r3, [r7, #8]
 8005bfc:	b2da      	uxtb	r2, r3
 8005bfe:	68fb      	ldr	r3, [r7, #12]
 8005c00:	681b      	ldr	r3, [r3, #0]
 8005c02:	611a      	str	r2, [r3, #16]
  }

  return HAL_OK;
 8005c04:	2300      	movs	r3, #0
}
 8005c06:	4618      	mov	r0, r3
 8005c08:	3718      	adds	r7, #24
 8005c0a:	46bd      	mov	sp, r7
 8005c0c:	bd80      	pop	{r7, pc}
 8005c0e:	bf00      	nop
 8005c10:	00010002 	.word	0x00010002

08005c14 <I2C_RequestMemoryRead>:
  * @param  Timeout Timeout duration
  * @param  Tickstart Tick start value
  * @retval HAL status
  */
static HAL_StatusTypeDef I2C_RequestMemoryRead(I2C_HandleTypeDef *hi2c, uint16_t DevAddress, uint16_t MemAddress, uint16_t MemAddSize, uint32_t Timeout, uint32_t Tickstart)
{
 8005c14:	b580      	push	{r7, lr}
 8005c16:	b088      	sub	sp, #32
 8005c18:	af02      	add	r7, sp, #8
 8005c1a:	60f8      	str	r0, [r7, #12]
 8005c1c:	4608      	mov	r0, r1
 8005c1e:	4611      	mov	r1, r2
 8005c20:	461a      	mov	r2, r3
 8005c22:	4603      	mov	r3, r0
 8005c24:	817b      	strh	r3, [r7, #10]
 8005c26:	460b      	mov	r3, r1
 8005c28:	813b      	strh	r3, [r7, #8]
 8005c2a:	4613      	mov	r3, r2
 8005c2c:	80fb      	strh	r3, [r7, #6]
  /* Enable Acknowledge */
  SET_BIT(hi2c->Instance->CR1, I2C_CR1_ACK);
 8005c2e:	68fb      	ldr	r3, [r7, #12]
 8005c30:	681b      	ldr	r3, [r3, #0]
 8005c32:	681a      	ldr	r2, [r3, #0]
 8005c34:	68fb      	ldr	r3, [r7, #12]
 8005c36:	681b      	ldr	r3, [r3, #0]
 8005c38:	f442 6280 	orr.w	r2, r2, #1024	; 0x400
 8005c3c:	601a      	str	r2, [r3, #0]

  /* Generate Start */
  SET_BIT(hi2c->Instance->CR1, I2C_CR1_START);
 8005c3e:	68fb      	ldr	r3, [r7, #12]
 8005c40:	681b      	ldr	r3, [r3, #0]
 8005c42:	681a      	ldr	r2, [r3, #0]
 8005c44:	68fb      	ldr	r3, [r7, #12]
 8005c46:	681b      	ldr	r3, [r3, #0]
 8005c48:	f442 7280 	orr.w	r2, r2, #256	; 0x100
 8005c4c:	601a      	str	r2, [r3, #0]

  /* Wait until SB flag is set */
  if (I2C_WaitOnFlagUntilTimeout(hi2c, I2C_FLAG_SB, RESET, Timeout, Tickstart) != HAL_OK)
 8005c4e:	6a7b      	ldr	r3, [r7, #36]	; 0x24
 8005c50:	9300      	str	r3, [sp, #0]
 8005c52:	6a3b      	ldr	r3, [r7, #32]
 8005c54:	2200      	movs	r2, #0
 8005c56:	f04f 1101 	mov.w	r1, #65537	; 0x10001
 8005c5a:	68f8      	ldr	r0, [r7, #12]
 8005c5c:	f000 f8c2 	bl	8005de4 <I2C_WaitOnFlagUntilTimeout>
 8005c60:	4603      	mov	r3, r0
 8005c62:	2b00      	cmp	r3, #0
 8005c64:	d00d      	beq.n	8005c82 <I2C_RequestMemoryRead+0x6e>
  {
    if (READ_BIT(hi2c->Instance->CR1, I2C_CR1_START) == I2C_CR1_START)
 8005c66:	68fb      	ldr	r3, [r7, #12]
 8005c68:	681b      	ldr	r3, [r3, #0]
 8005c6a:	681b      	ldr	r3, [r3, #0]
 8005c6c:	f403 7380 	and.w	r3, r3, #256	; 0x100
 8005c70:	f5b3 7f80 	cmp.w	r3, #256	; 0x100
 8005c74:	d103      	bne.n	8005c7e <I2C_RequestMemoryRead+0x6a>
    {
      hi2c->ErrorCode = HAL_I2C_WRONG_START;
 8005c76:	68fb      	ldr	r3, [r7, #12]
 8005c78:	f44f 7200 	mov.w	r2, #512	; 0x200
 8005c7c:	641a      	str	r2, [r3, #64]	; 0x40
    }
    return HAL_TIMEOUT;
 8005c7e:	2303      	movs	r3, #3
 8005c80:	e0aa      	b.n	8005dd8 <I2C_RequestMemoryRead+0x1c4>
  }

  /* Send slave address */
  hi2c->Instance->DR = I2C_7BIT_ADD_WRITE(DevAddress);
 8005c82:	897b      	ldrh	r3, [r7, #10]
 8005c84:	b2db      	uxtb	r3, r3
 8005c86:	461a      	mov	r2, r3
 8005c88:	68fb      	ldr	r3, [r7, #12]
 8005c8a:	681b      	ldr	r3, [r3, #0]
 8005c8c:	f002 02fe 	and.w	r2, r2, #254	; 0xfe
 8005c90:	611a      	str	r2, [r3, #16]

  /* Wait until ADDR flag is set */
  if (I2C_WaitOnMasterAddressFlagUntilTimeout(hi2c, I2C_FLAG_ADDR, Timeout, Tickstart) != HAL_OK)
 8005c92:	6a7b      	ldr	r3, [r7, #36]	; 0x24
 8005c94:	6a3a      	ldr	r2, [r7, #32]
 8005c96:	4952      	ldr	r1, [pc, #328]	; (8005de0 <I2C_RequestMemoryRead+0x1cc>)
 8005c98:	68f8      	ldr	r0, [r7, #12]
 8005c9a:	f000 f8fa 	bl	8005e92 <I2C_WaitOnMasterAddressFlagUntilTimeout>
 8005c9e:	4603      	mov	r3, r0
 8005ca0:	2b00      	cmp	r3, #0
 8005ca2:	d001      	beq.n	8005ca8 <I2C_RequestMemoryRead+0x94>
  {
    return HAL_ERROR;
 8005ca4:	2301      	movs	r3, #1
 8005ca6:	e097      	b.n	8005dd8 <I2C_RequestMemoryRead+0x1c4>
  }

  /* Clear ADDR flag */
  __HAL_I2C_CLEAR_ADDRFLAG(hi2c);
 8005ca8:	2300      	movs	r3, #0
 8005caa:	617b      	str	r3, [r7, #20]
 8005cac:	68fb      	ldr	r3, [r7, #12]
 8005cae:	681b      	ldr	r3, [r3, #0]
 8005cb0:	695b      	ldr	r3, [r3, #20]
 8005cb2:	617b      	str	r3, [r7, #20]
 8005cb4:	68fb      	ldr	r3, [r7, #12]
 8005cb6:	681b      	ldr	r3, [r3, #0]
 8005cb8:	699b      	ldr	r3, [r3, #24]
 8005cba:	617b      	str	r3, [r7, #20]
 8005cbc:	697b      	ldr	r3, [r7, #20]

  /* Wait until TXE flag is set */
  if (I2C_WaitOnTXEFlagUntilTimeout(hi2c, Timeout, Tickstart) != HAL_OK)
 8005cbe:	6a7a      	ldr	r2, [r7, #36]	; 0x24
 8005cc0:	6a39      	ldr	r1, [r7, #32]
 8005cc2:	68f8      	ldr	r0, [r7, #12]
 8005cc4:	f000 f964 	bl	8005f90 <I2C_WaitOnTXEFlagUntilTimeout>
 8005cc8:	4603      	mov	r3, r0
 8005cca:	2b00      	cmp	r3, #0
 8005ccc:	d00d      	beq.n	8005cea <I2C_RequestMemoryRead+0xd6>
  {
    if (hi2c->ErrorCode == HAL_I2C_ERROR_AF)
 8005cce:	68fb      	ldr	r3, [r7, #12]
 8005cd0:	6c1b      	ldr	r3, [r3, #64]	; 0x40
 8005cd2:	2b04      	cmp	r3, #4
 8005cd4:	d107      	bne.n	8005ce6 <I2C_RequestMemoryRead+0xd2>
    {
      /* Generate Stop */
      SET_BIT(hi2c->Instance->CR1, I2C_CR1_STOP);
 8005cd6:	68fb      	ldr	r3, [r7, #12]
 8005cd8:	681b      	ldr	r3, [r3, #0]
 8005cda:	681a      	ldr	r2, [r3, #0]
 8005cdc:	68fb      	ldr	r3, [r7, #12]
 8005cde:	681b      	ldr	r3, [r3, #0]
 8005ce0:	f442 7200 	orr.w	r2, r2, #512	; 0x200
 8005ce4:	601a      	str	r2, [r3, #0]
    }
    return HAL_ERROR;
 8005ce6:	2301      	movs	r3, #1
 8005ce8:	e076      	b.n	8005dd8 <I2C_RequestMemoryRead+0x1c4>
  }

  /* If Memory address size is 8Bit */
  if (MemAddSize == I2C_MEMADD_SIZE_8BIT)
 8005cea:	88fb      	ldrh	r3, [r7, #6]
 8005cec:	2b01      	cmp	r3, #1
 8005cee:	d105      	bne.n	8005cfc <I2C_RequestMemoryRead+0xe8>
  {
    /* Send Memory Address */
    hi2c->Instance->DR = I2C_MEM_ADD_LSB(MemAddress);
 8005cf0:	893b      	ldrh	r3, [r7, #8]
 8005cf2:	b2da      	uxtb	r2, r3
 8005cf4:	68fb      	ldr	r3, [r7, #12]
 8005cf6:	681b      	ldr	r3, [r3, #0]
 8005cf8:	611a      	str	r2, [r3, #16]
 8005cfa:	e021      	b.n	8005d40 <I2C_RequestMemoryRead+0x12c>
  }
  /* If Memory address size is 16Bit */
  else
  {
    /* Send MSB of Memory Address */
    hi2c->Instance->DR = I2C_MEM_ADD_MSB(MemAddress);
 8005cfc:	893b      	ldrh	r3, [r7, #8]
 8005cfe:	0a1b      	lsrs	r3, r3, #8
 8005d00:	b29b      	uxth	r3, r3
 8005d02:	b2da      	uxtb	r2, r3
 8005d04:	68fb      	ldr	r3, [r7, #12]
 8005d06:	681b      	ldr	r3, [r3, #0]
 8005d08:	611a      	str	r2, [r3, #16]

    /* Wait until TXE flag is set */
    if (I2C_WaitOnTXEFlagUntilTimeout(hi2c, Timeout, Tickstart) != HAL_OK)
 8005d0a:	6a7a      	ldr	r2, [r7, #36]	; 0x24
 8005d0c:	6a39      	ldr	r1, [r7, #32]
 8005d0e:	68f8      	ldr	r0, [r7, #12]
 8005d10:	f000 f93e 	bl	8005f90 <I2C_WaitOnTXEFlagUntilTimeout>
 8005d14:	4603      	mov	r3, r0
 8005d16:	2b00      	cmp	r3, #0
 8005d18:	d00d      	beq.n	8005d36 <I2C_RequestMemoryRead+0x122>
    {
      if (hi2c->ErrorCode == HAL_I2C_ERROR_AF)
 8005d1a:	68fb      	ldr	r3, [r7, #12]
 8005d1c:	6c1b      	ldr	r3, [r3, #64]	; 0x40
 8005d1e:	2b04      	cmp	r3, #4
 8005d20:	d107      	bne.n	8005d32 <I2C_RequestMemoryRead+0x11e>
      {
        /* Generate Stop */
        SET_BIT(hi2c->Instance->CR1, I2C_CR1_STOP);
 8005d22:	68fb      	ldr	r3, [r7, #12]
 8005d24:	681b      	ldr	r3, [r3, #0]
 8005d26:	681a      	ldr	r2, [r3, #0]
 8005d28:	68fb      	ldr	r3, [r7, #12]
 8005d2a:	681b      	ldr	r3, [r3, #0]
 8005d2c:	f442 7200 	orr.w	r2, r2, #512	; 0x200
 8005d30:	601a      	str	r2, [r3, #0]
      }
      return HAL_ERROR;
 8005d32:	2301      	movs	r3, #1
 8005d34:	e050      	b.n	8005dd8 <I2C_RequestMemoryRead+0x1c4>
    }

    /* Send LSB of Memory Address */
    hi2c->Instance->DR = I2C_MEM_ADD_LSB(MemAddress);
 8005d36:	893b      	ldrh	r3, [r7, #8]
 8005d38:	b2da      	uxtb	r2, r3
 8005d3a:	68fb      	ldr	r3, [r7, #12]
 8005d3c:	681b      	ldr	r3, [r3, #0]
 8005d3e:	611a      	str	r2, [r3, #16]
  }

  /* Wait until TXE flag is set */
  if (I2C_WaitOnTXEFlagUntilTimeout(hi2c, Timeout, Tickstart) != HAL_OK)
 8005d40:	6a7a      	ldr	r2, [r7, #36]	; 0x24
 8005d42:	6a39      	ldr	r1, [r7, #32]
 8005d44:	68f8      	ldr	r0, [r7, #12]
 8005d46:	f000 f923 	bl	8005f90 <I2C_WaitOnTXEFlagUntilTimeout>
 8005d4a:	4603      	mov	r3, r0
 8005d4c:	2b00      	cmp	r3, #0
 8005d4e:	d00d      	beq.n	8005d6c <I2C_RequestMemoryRead+0x158>
  {
    if (hi2c->ErrorCode == HAL_I2C_ERROR_AF)
 8005d50:	68fb      	ldr	r3, [r7, #12]
 8005d52:	6c1b      	ldr	r3, [r3, #64]	; 0x40
 8005d54:	2b04      	cmp	r3, #4
 8005d56:	d107      	bne.n	8005d68 <I2C_RequestMemoryRead+0x154>
    {
      /* Generate Stop */
      SET_BIT(hi2c->Instance->CR1, I2C_CR1_STOP);
 8005d58:	68fb      	ldr	r3, [r7, #12]
 8005d5a:	681b      	ldr	r3, [r3, #0]
 8005d5c:	681a      	ldr	r2, [r3, #0]
 8005d5e:	68fb      	ldr	r3, [r7, #12]
 8005d60:	681b      	ldr	r3, [r3, #0]
 8005d62:	f442 7200 	orr.w	r2, r2, #512	; 0x200
 8005d66:	601a      	str	r2, [r3, #0]
    }
    return HAL_ERROR;
 8005d68:	2301      	movs	r3, #1
 8005d6a:	e035      	b.n	8005dd8 <I2C_RequestMemoryRead+0x1c4>
  }

  /* Generate Restart */
  SET_BIT(hi2c->Instance->CR1, I2C_CR1_START);
 8005d6c:	68fb      	ldr	r3, [r7, #12]
 8005d6e:	681b      	ldr	r3, [r3, #0]
 8005d70:	681a      	ldr	r2, [r3, #0]
 8005d72:	68fb      	ldr	r3, [r7, #12]
 8005d74:	681b      	ldr	r3, [r3, #0]
 8005d76:	f442 7280 	orr.w	r2, r2, #256	; 0x100
 8005d7a:	601a      	str	r2, [r3, #0]

  /* Wait until SB flag is set */
  if (I2C_WaitOnFlagUntilTimeout(hi2c, I2C_FLAG_SB, RESET, Timeout, Tickstart) != HAL_OK)
 8005d7c:	6a7b      	ldr	r3, [r7, #36]	; 0x24
 8005d7e:	9300      	str	r3, [sp, #0]
 8005d80:	6a3b      	ldr	r3, [r7, #32]
 8005d82:	2200      	movs	r2, #0
 8005d84:	f04f 1101 	mov.w	r1, #65537	; 0x10001
 8005d88:	68f8      	ldr	r0, [r7, #12]
 8005d8a:	f000 f82b 	bl	8005de4 <I2C_WaitOnFlagUntilTimeout>
 8005d8e:	4603      	mov	r3, r0
 8005d90:	2b00      	cmp	r3, #0
 8005d92:	d00d      	beq.n	8005db0 <I2C_RequestMemoryRead+0x19c>
  {
    if (READ_BIT(hi2c->Instance->CR1, I2C_CR1_START) == I2C_CR1_START)
 8005d94:	68fb      	ldr	r3, [r7, #12]
 8005d96:	681b      	ldr	r3, [r3, #0]
 8005d98:	681b      	ldr	r3, [r3, #0]
 8005d9a:	f403 7380 	and.w	r3, r3, #256	; 0x100
 8005d9e:	f5b3 7f80 	cmp.w	r3, #256	; 0x100
 8005da2:	d103      	bne.n	8005dac <I2C_RequestMemoryRead+0x198>
    {
      hi2c->ErrorCode = HAL_I2C_WRONG_START;
 8005da4:	68fb      	ldr	r3, [r7, #12]
 8005da6:	f44f 7200 	mov.w	r2, #512	; 0x200
 8005daa:	641a      	str	r2, [r3, #64]	; 0x40
    }
    return HAL_TIMEOUT;
 8005dac:	2303      	movs	r3, #3
 8005dae:	e013      	b.n	8005dd8 <I2C_RequestMemoryRead+0x1c4>
  }

  /* Send slave address */
  hi2c->Instance->DR = I2C_7BIT_ADD_READ(DevAddress);
 8005db0:	897b      	ldrh	r3, [r7, #10]
 8005db2:	b2db      	uxtb	r3, r3
 8005db4:	f043 0301 	orr.w	r3, r3, #1
 8005db8:	b2da      	uxtb	r2, r3
 8005dba:	68fb      	ldr	r3, [r7, #12]
 8005dbc:	681b      	ldr	r3, [r3, #0]
 8005dbe:	611a      	str	r2, [r3, #16]

  /* Wait until ADDR flag is set */
  if (I2C_WaitOnMasterAddressFlagUntilTimeout(hi2c, I2C_FLAG_ADDR, Timeout, Tickstart) != HAL_OK)
 8005dc0:	6a7b      	ldr	r3, [r7, #36]	; 0x24
 8005dc2:	6a3a      	ldr	r2, [r7, #32]
 8005dc4:	4906      	ldr	r1, [pc, #24]	; (8005de0 <I2C_RequestMemoryRead+0x1cc>)
 8005dc6:	68f8      	ldr	r0, [r7, #12]
 8005dc8:	f000 f863 	bl	8005e92 <I2C_WaitOnMasterAddressFlagUntilTimeout>
 8005dcc:	4603      	mov	r3, r0
 8005dce:	2b00      	cmp	r3, #0
 8005dd0:	d001      	beq.n	8005dd6 <I2C_RequestMemoryRead+0x1c2>
  {
    return HAL_ERROR;
 8005dd2:	2301      	movs	r3, #1
 8005dd4:	e000      	b.n	8005dd8 <I2C_RequestMemoryRead+0x1c4>
  }

  return HAL_OK;
 8005dd6:	2300      	movs	r3, #0
}
 8005dd8:	4618      	mov	r0, r3
 8005dda:	3718      	adds	r7, #24
 8005ddc:	46bd      	mov	sp, r7
 8005dde:	bd80      	pop	{r7, pc}
 8005de0:	00010002 	.word	0x00010002

08005de4 <I2C_WaitOnFlagUntilTimeout>:
  * @param  Timeout Timeout duration
  * @param  Tickstart Tick start value
  * @retval HAL status
  */
static HAL_StatusTypeDef I2C_WaitOnFlagUntilTimeout(I2C_HandleTypeDef *hi2c, uint32_t Flag, FlagStatus Status, uint32_t Timeout, uint32_t Tickstart)
{
 8005de4:	b580      	push	{r7, lr}
 8005de6:	b084      	sub	sp, #16
 8005de8:	af00      	add	r7, sp, #0
 8005dea:	60f8      	str	r0, [r7, #12]
 8005dec:	60b9      	str	r1, [r7, #8]
 8005dee:	603b      	str	r3, [r7, #0]
 8005df0:	4613      	mov	r3, r2
 8005df2:	71fb      	strb	r3, [r7, #7]
  /* Wait until flag is set */
  while (__HAL_I2C_GET_FLAG(hi2c, Flag) == Status)
 8005df4:	e025      	b.n	8005e42 <I2C_WaitOnFlagUntilTimeout+0x5e>
  {
    /* Check for the Timeout */
    if (Timeout != HAL_MAX_DELAY)
 8005df6:	683b      	ldr	r3, [r7, #0]
 8005df8:	f1b3 3fff 	cmp.w	r3, #4294967295
 8005dfc:	d021      	beq.n	8005e42 <I2C_WaitOnFlagUntilTimeout+0x5e>
    {
      if (((HAL_GetTick() - Tickstart) > Timeout) || (Timeout == 0U))
 8005dfe:	f7fe fea5 	bl	8004b4c <HAL_GetTick>
 8005e02:	4602      	mov	r2, r0
 8005e04:	69bb      	ldr	r3, [r7, #24]
 8005e06:	1ad3      	subs	r3, r2, r3
 8005e08:	683a      	ldr	r2, [r7, #0]
 8005e0a:	429a      	cmp	r2, r3
 8005e0c:	d302      	bcc.n	8005e14 <I2C_WaitOnFlagUntilTimeout+0x30>
 8005e0e:	683b      	ldr	r3, [r7, #0]
 8005e10:	2b00      	cmp	r3, #0
 8005e12:	d116      	bne.n	8005e42 <I2C_WaitOnFlagUntilTimeout+0x5e>
      {
        hi2c->PreviousState     = I2C_STATE_NONE;
 8005e14:	68fb      	ldr	r3, [r7, #12]
 8005e16:	2200      	movs	r2, #0
 8005e18:	631a      	str	r2, [r3, #48]	; 0x30
        hi2c->State             = HAL_I2C_STATE_READY;
 8005e1a:	68fb      	ldr	r3, [r7, #12]
 8005e1c:	2220      	movs	r2, #32
 8005e1e:	f883 203d 	strb.w	r2, [r3, #61]	; 0x3d
        hi2c->Mode              = HAL_I2C_MODE_NONE;
 8005e22:	68fb      	ldr	r3, [r7, #12]
 8005e24:	2200      	movs	r2, #0
 8005e26:	f883 203e 	strb.w	r2, [r3, #62]	; 0x3e
        hi2c->ErrorCode         |= HAL_I2C_ERROR_TIMEOUT;
 8005e2a:	68fb      	ldr	r3, [r7, #12]
 8005e2c:	6c1b      	ldr	r3, [r3, #64]	; 0x40
 8005e2e:	f043 0220 	orr.w	r2, r3, #32
 8005e32:	68fb      	ldr	r3, [r7, #12]
 8005e34:	641a      	str	r2, [r3, #64]	; 0x40

        /* Process Unlocked */
        __HAL_UNLOCK(hi2c);
 8005e36:	68fb      	ldr	r3, [r7, #12]
 8005e38:	2200      	movs	r2, #0
 8005e3a:	f883 203c 	strb.w	r2, [r3, #60]	; 0x3c

        return HAL_ERROR;
 8005e3e:	2301      	movs	r3, #1
 8005e40:	e023      	b.n	8005e8a <I2C_WaitOnFlagUntilTimeout+0xa6>
  while (__HAL_I2C_GET_FLAG(hi2c, Flag) == Status)
 8005e42:	68bb      	ldr	r3, [r7, #8]
 8005e44:	0c1b      	lsrs	r3, r3, #16
 8005e46:	b2db      	uxtb	r3, r3
 8005e48:	2b01      	cmp	r3, #1
 8005e4a:	d10d      	bne.n	8005e68 <I2C_WaitOnFlagUntilTimeout+0x84>
 8005e4c:	68fb      	ldr	r3, [r7, #12]
 8005e4e:	681b      	ldr	r3, [r3, #0]
 8005e50:	695b      	ldr	r3, [r3, #20]
 8005e52:	43da      	mvns	r2, r3
 8005e54:	68bb      	ldr	r3, [r7, #8]
 8005e56:	4013      	ands	r3, r2
 8005e58:	b29b      	uxth	r3, r3
 8005e5a:	2b00      	cmp	r3, #0
 8005e5c:	bf0c      	ite	eq
 8005e5e:	2301      	moveq	r3, #1
 8005e60:	2300      	movne	r3, #0
 8005e62:	b2db      	uxtb	r3, r3
 8005e64:	461a      	mov	r2, r3
 8005e66:	e00c      	b.n	8005e82 <I2C_WaitOnFlagUntilTimeout+0x9e>
 8005e68:	68fb      	ldr	r3, [r7, #12]
 8005e6a:	681b      	ldr	r3, [r3, #0]
 8005e6c:	699b      	ldr	r3, [r3, #24]
 8005e6e:	43da      	mvns	r2, r3
 8005e70:	68bb      	ldr	r3, [r7, #8]
 8005e72:	4013      	ands	r3, r2
 8005e74:	b29b      	uxth	r3, r3
 8005e76:	2b00      	cmp	r3, #0
 8005e78:	bf0c      	ite	eq
 8005e7a:	2301      	moveq	r3, #1
 8005e7c:	2300      	movne	r3, #0
 8005e7e:	b2db      	uxtb	r3, r3
 8005e80:	461a      	mov	r2, r3
 8005e82:	79fb      	ldrb	r3, [r7, #7]
 8005e84:	429a      	cmp	r2, r3
 8005e86:	d0b6      	beq.n	8005df6 <I2C_WaitOnFlagUntilTimeout+0x12>
      }
    }
  }
  return HAL_OK;
 8005e88:	2300      	movs	r3, #0
}
 8005e8a:	4618      	mov	r0, r3
 8005e8c:	3710      	adds	r7, #16
 8005e8e:	46bd      	mov	sp, r7
 8005e90:	bd80      	pop	{r7, pc}

08005e92 <I2C_WaitOnMasterAddressFlagUntilTimeout>:
  * @param  Timeout Timeout duration
  * @param  Tickstart Tick start value
  * @retval HAL status
  */
static HAL_StatusTypeDef I2C_WaitOnMasterAddressFlagUntilTimeout(I2C_HandleTypeDef *hi2c, uint32_t Flag, uint32_t Timeout, uint32_t Tickstart)
{
 8005e92:	b580      	push	{r7, lr}
 8005e94:	b084      	sub	sp, #16
 8005e96:	af00      	add	r7, sp, #0
 8005e98:	60f8      	str	r0, [r7, #12]
 8005e9a:	60b9      	str	r1, [r7, #8]
 8005e9c:	607a      	str	r2, [r7, #4]
 8005e9e:	603b      	str	r3, [r7, #0]
  while (__HAL_I2C_GET_FLAG(hi2c, Flag) == RESET)
 8005ea0:	e051      	b.n	8005f46 <I2C_WaitOnMasterAddressFlagUntilTimeout+0xb4>
  {
    if (__HAL_I2C_GET_FLAG(hi2c, I2C_FLAG_AF) == SET)
 8005ea2:	68fb      	ldr	r3, [r7, #12]
 8005ea4:	681b      	ldr	r3, [r3, #0]
 8005ea6:	695b      	ldr	r3, [r3, #20]
 8005ea8:	f403 6380 	and.w	r3, r3, #1024	; 0x400
 8005eac:	f5b3 6f80 	cmp.w	r3, #1024	; 0x400
 8005eb0:	d123      	bne.n	8005efa <I2C_WaitOnMasterAddressFlagUntilTimeout+0x68>
    {
      /* Generate Stop */
      SET_BIT(hi2c->Instance->CR1, I2C_CR1_STOP);
 8005eb2:	68fb      	ldr	r3, [r7, #12]
 8005eb4:	681b      	ldr	r3, [r3, #0]
 8005eb6:	681a      	ldr	r2, [r3, #0]
 8005eb8:	68fb      	ldr	r3, [r7, #12]
 8005eba:	681b      	ldr	r3, [r3, #0]
 8005ebc:	f442 7200 	orr.w	r2, r2, #512	; 0x200
 8005ec0:	601a      	str	r2, [r3, #0]

      /* Clear AF Flag */
      __HAL_I2C_CLEAR_FLAG(hi2c, I2C_FLAG_AF);
 8005ec2:	68fb      	ldr	r3, [r7, #12]
 8005ec4:	681b      	ldr	r3, [r3, #0]
 8005ec6:	f46f 6280 	mvn.w	r2, #1024	; 0x400
 8005eca:	615a      	str	r2, [r3, #20]

      hi2c->PreviousState       = I2C_STATE_NONE;
 8005ecc:	68fb      	ldr	r3, [r7, #12]
 8005ece:	2200      	movs	r2, #0
 8005ed0:	631a      	str	r2, [r3, #48]	; 0x30
      hi2c->State               = HAL_I2C_STATE_READY;
 8005ed2:	68fb      	ldr	r3, [r7, #12]
 8005ed4:	2220      	movs	r2, #32
 8005ed6:	f883 203d 	strb.w	r2, [r3, #61]	; 0x3d
      hi2c->Mode                = HAL_I2C_MODE_NONE;
 8005eda:	68fb      	ldr	r3, [r7, #12]
 8005edc:	2200      	movs	r2, #0
 8005ede:	f883 203e 	strb.w	r2, [r3, #62]	; 0x3e
      hi2c->ErrorCode           |= HAL_I2C_ERROR_AF;
 8005ee2:	68fb      	ldr	r3, [r7, #12]
 8005ee4:	6c1b      	ldr	r3, [r3, #64]	; 0x40
 8005ee6:	f043 0204 	orr.w	r2, r3, #4
 8005eea:	68fb      	ldr	r3, [r7, #12]
 8005eec:	641a      	str	r2, [r3, #64]	; 0x40

      /* Process Unlocked */
      __HAL_UNLOCK(hi2c);
 8005eee:	68fb      	ldr	r3, [r7, #12]
 8005ef0:	2200      	movs	r2, #0
 8005ef2:	f883 203c 	strb.w	r2, [r3, #60]	; 0x3c

      return HAL_ERROR;
 8005ef6:	2301      	movs	r3, #1
 8005ef8:	e046      	b.n	8005f88 <I2C_WaitOnMasterAddressFlagUntilTimeout+0xf6>
    }

    /* Check for the Timeout */
    if (Timeout != HAL_MAX_DELAY)
 8005efa:	687b      	ldr	r3, [r7, #4]
 8005efc:	f1b3 3fff 	cmp.w	r3, #4294967295
 8005f00:	d021      	beq.n	8005f46 <I2C_WaitOnMasterAddressFlagUntilTimeout+0xb4>
    {
      if (((HAL_GetTick() - Tickstart) > Timeout) || (Timeout == 0U))
 8005f02:	f7fe fe23 	bl	8004b4c <HAL_GetTick>
 8005f06:	4602      	mov	r2, r0
 8005f08:	683b      	ldr	r3, [r7, #0]
 8005f0a:	1ad3      	subs	r3, r2, r3
 8005f0c:	687a      	ldr	r2, [r7, #4]
 8005f0e:	429a      	cmp	r2, r3
 8005f10:	d302      	bcc.n	8005f18 <I2C_WaitOnMasterAddressFlagUntilTimeout+0x86>
 8005f12:	687b      	ldr	r3, [r7, #4]
 8005f14:	2b00      	cmp	r3, #0
 8005f16:	d116      	bne.n	8005f46 <I2C_WaitOnMasterAddressFlagUntilTimeout+0xb4>
      {
        hi2c->PreviousState       = I2C_STATE_NONE;
 8005f18:	68fb      	ldr	r3, [r7, #12]
 8005f1a:	2200      	movs	r2, #0
 8005f1c:	631a      	str	r2, [r3, #48]	; 0x30
        hi2c->State               = HAL_I2C_STATE_READY;
 8005f1e:	68fb      	ldr	r3, [r7, #12]
 8005f20:	2220      	movs	r2, #32
 8005f22:	f883 203d 	strb.w	r2, [r3, #61]	; 0x3d
        hi2c->Mode                = HAL_I2C_MODE_NONE;
 8005f26:	68fb      	ldr	r3, [r7, #12]
 8005f28:	2200      	movs	r2, #0
 8005f2a:	f883 203e 	strb.w	r2, [r3, #62]	; 0x3e
        hi2c->ErrorCode           |= HAL_I2C_ERROR_TIMEOUT;
 8005f2e:	68fb      	ldr	r3, [r7, #12]
 8005f30:	6c1b      	ldr	r3, [r3, #64]	; 0x40
 8005f32:	f043 0220 	orr.w	r2, r3, #32
 8005f36:	68fb      	ldr	r3, [r7, #12]
 8005f38:	641a      	str	r2, [r3, #64]	; 0x40

        /* Process Unlocked */
        __HAL_UNLOCK(hi2c);
 8005f3a:	68fb      	ldr	r3, [r7, #12]
 8005f3c:	2200      	movs	r2, #0
 8005f3e:	f883 203c 	strb.w	r2, [r3, #60]	; 0x3c

        return HAL_ERROR;
 8005f42:	2301      	movs	r3, #1
 8005f44:	e020      	b.n	8005f88 <I2C_WaitOnMasterAddressFlagUntilTimeout+0xf6>
  while (__HAL_I2C_GET_FLAG(hi2c, Flag) == RESET)
 8005f46:	68bb      	ldr	r3, [r7, #8]
 8005f48:	0c1b      	lsrs	r3, r3, #16
 8005f4a:	b2db      	uxtb	r3, r3
 8005f4c:	2b01      	cmp	r3, #1
 8005f4e:	d10c      	bne.n	8005f6a <I2C_WaitOnMasterAddressFlagUntilTimeout+0xd8>
 8005f50:	68fb      	ldr	r3, [r7, #12]
 8005f52:	681b      	ldr	r3, [r3, #0]
 8005f54:	695b      	ldr	r3, [r3, #20]
 8005f56:	43da      	mvns	r2, r3
 8005f58:	68bb      	ldr	r3, [r7, #8]
 8005f5a:	4013      	ands	r3, r2
 8005f5c:	b29b      	uxth	r3, r3
 8005f5e:	2b00      	cmp	r3, #0
 8005f60:	bf14      	ite	ne
 8005f62:	2301      	movne	r3, #1
 8005f64:	2300      	moveq	r3, #0
 8005f66:	b2db      	uxtb	r3, r3
 8005f68:	e00b      	b.n	8005f82 <I2C_WaitOnMasterAddressFlagUntilTimeout+0xf0>
 8005f6a:	68fb      	ldr	r3, [r7, #12]
 8005f6c:	681b      	ldr	r3, [r3, #0]
 8005f6e:	699b      	ldr	r3, [r3, #24]
 8005f70:	43da      	mvns	r2, r3
 8005f72:	68bb      	ldr	r3, [r7, #8]
 8005f74:	4013      	ands	r3, r2
 8005f76:	b29b      	uxth	r3, r3
 8005f78:	2b00      	cmp	r3, #0
 8005f7a:	bf14      	ite	ne
 8005f7c:	2301      	movne	r3, #1
 8005f7e:	2300      	moveq	r3, #0
 8005f80:	b2db      	uxtb	r3, r3
 8005f82:	2b00      	cmp	r3, #0
 8005f84:	d18d      	bne.n	8005ea2 <I2C_WaitOnMasterAddressFlagUntilTimeout+0x10>
      }
    }
  }
  return HAL_OK;
 8005f86:	2300      	movs	r3, #0
}
 8005f88:	4618      	mov	r0, r3
 8005f8a:	3710      	adds	r7, #16
 8005f8c:	46bd      	mov	sp, r7
 8005f8e:	bd80      	pop	{r7, pc}

08005f90 <I2C_WaitOnTXEFlagUntilTimeout>:
  * @param  Timeout Timeout duration
  * @param  Tickstart Tick start value
  * @retval HAL status
  */
static HAL_StatusTypeDef I2C_WaitOnTXEFlagUntilTimeout(I2C_HandleTypeDef *hi2c, uint32_t Timeout, uint32_t Tickstart)
{
 8005f90:	b580      	push	{r7, lr}
 8005f92:	b084      	sub	sp, #16
 8005f94:	af00      	add	r7, sp, #0
 8005f96:	60f8      	str	r0, [r7, #12]
 8005f98:	60b9      	str	r1, [r7, #8]
 8005f9a:	607a      	str	r2, [r7, #4]
  while (__HAL_I2C_GET_FLAG(hi2c, I2C_FLAG_TXE) == RESET)
 8005f9c:	e02d      	b.n	8005ffa <I2C_WaitOnTXEFlagUntilTimeout+0x6a>
  {
    /* Check if a NACK is detected */
    if (I2C_IsAcknowledgeFailed(hi2c) != HAL_OK)
 8005f9e:	68f8      	ldr	r0, [r7, #12]
 8005fa0:	f000 f8ce 	bl	8006140 <I2C_IsAcknowledgeFailed>
 8005fa4:	4603      	mov	r3, r0
 8005fa6:	2b00      	cmp	r3, #0
 8005fa8:	d001      	beq.n	8005fae <I2C_WaitOnTXEFlagUntilTimeout+0x1e>
    {
      return HAL_ERROR;
 8005faa:	2301      	movs	r3, #1
 8005fac:	e02d      	b.n	800600a <I2C_WaitOnTXEFlagUntilTimeout+0x7a>
    }

    /* Check for the Timeout */
    if (Timeout != HAL_MAX_DELAY)
 8005fae:	68bb      	ldr	r3, [r7, #8]
 8005fb0:	f1b3 3fff 	cmp.w	r3, #4294967295
 8005fb4:	d021      	beq.n	8005ffa <I2C_WaitOnTXEFlagUntilTimeout+0x6a>
    {
      if (((HAL_GetTick() - Tickstart) > Timeout) || (Timeout == 0U))
 8005fb6:	f7fe fdc9 	bl	8004b4c <HAL_GetTick>
 8005fba:	4602      	mov	r2, r0
 8005fbc:	687b      	ldr	r3, [r7, #4]
 8005fbe:	1ad3      	subs	r3, r2, r3
 8005fc0:	68ba      	ldr	r2, [r7, #8]
 8005fc2:	429a      	cmp	r2, r3
 8005fc4:	d302      	bcc.n	8005fcc <I2C_WaitOnTXEFlagUntilTimeout+0x3c>
 8005fc6:	68bb      	ldr	r3, [r7, #8]
 8005fc8:	2b00      	cmp	r3, #0
 8005fca:	d116      	bne.n	8005ffa <I2C_WaitOnTXEFlagUntilTimeout+0x6a>
      {
        hi2c->PreviousState       = I2C_STATE_NONE;
 8005fcc:	68fb      	ldr	r3, [r7, #12]
 8005fce:	2200      	movs	r2, #0
 8005fd0:	631a      	str	r2, [r3, #48]	; 0x30
        hi2c->State               = HAL_I2C_STATE_READY;
 8005fd2:	68fb      	ldr	r3, [r7, #12]
 8005fd4:	2220      	movs	r2, #32
 8005fd6:	f883 203d 	strb.w	r2, [r3, #61]	; 0x3d
        hi2c->Mode                = HAL_I2C_MODE_NONE;
 8005fda:	68fb      	ldr	r3, [r7, #12]
 8005fdc:	2200      	movs	r2, #0
 8005fde:	f883 203e 	strb.w	r2, [r3, #62]	; 0x3e
        hi2c->ErrorCode           |= HAL_I2C_ERROR_TIMEOUT;
 8005fe2:	68fb      	ldr	r3, [r7, #12]
 8005fe4:	6c1b      	ldr	r3, [r3, #64]	; 0x40
 8005fe6:	f043 0220 	orr.w	r2, r3, #32
 8005fea:	68fb      	ldr	r3, [r7, #12]
 8005fec:	641a      	str	r2, [r3, #64]	; 0x40

        /* Process Unlocked */
        __HAL_UNLOCK(hi2c);
 8005fee:	68fb      	ldr	r3, [r7, #12]
 8005ff0:	2200      	movs	r2, #0
 8005ff2:	f883 203c 	strb.w	r2, [r3, #60]	; 0x3c

        return HAL_ERROR;
 8005ff6:	2301      	movs	r3, #1
 8005ff8:	e007      	b.n	800600a <I2C_WaitOnTXEFlagUntilTimeout+0x7a>
  while (__HAL_I2C_GET_FLAG(hi2c, I2C_FLAG_TXE) == RESET)
 8005ffa:	68fb      	ldr	r3, [r7, #12]
 8005ffc:	681b      	ldr	r3, [r3, #0]
 8005ffe:	695b      	ldr	r3, [r3, #20]
 8006000:	f003 0380 	and.w	r3, r3, #128	; 0x80
 8006004:	2b80      	cmp	r3, #128	; 0x80
 8006006:	d1ca      	bne.n	8005f9e <I2C_WaitOnTXEFlagUntilTimeout+0xe>
      }
    }
  }
  return HAL_OK;
 8006008:	2300      	movs	r3, #0
}
 800600a:	4618      	mov	r0, r3
 800600c:	3710      	adds	r7, #16
 800600e:	46bd      	mov	sp, r7
 8006010:	bd80      	pop	{r7, pc}

08006012 <I2C_WaitOnBTFFlagUntilTimeout>:
  * @param  Timeout Timeout duration
  * @param  Tickstart Tick start value
  * @retval HAL status
  */
static HAL_StatusTypeDef I2C_WaitOnBTFFlagUntilTimeout(I2C_HandleTypeDef *hi2c, uint32_t Timeout, uint32_t Tickstart)
{
 8006012:	b580      	push	{r7, lr}
 8006014:	b084      	sub	sp, #16
 8006016:	af00      	add	r7, sp, #0
 8006018:	60f8      	str	r0, [r7, #12]
 800601a:	60b9      	str	r1, [r7, #8]
 800601c:	607a      	str	r2, [r7, #4]
  while (__HAL_I2C_GET_FLAG(hi2c, I2C_FLAG_BTF) == RESET)
 800601e:	e02d      	b.n	800607c <I2C_WaitOnBTFFlagUntilTimeout+0x6a>
  {
    /* Check if a NACK is detected */
    if (I2C_IsAcknowledgeFailed(hi2c) != HAL_OK)
 8006020:	68f8      	ldr	r0, [r7, #12]
 8006022:	f000 f88d 	bl	8006140 <I2C_IsAcknowledgeFailed>
 8006026:	4603      	mov	r3, r0
 8006028:	2b00      	cmp	r3, #0
 800602a:	d001      	beq.n	8006030 <I2C_WaitOnBTFFlagUntilTimeout+0x1e>
    {
      return HAL_ERROR;
 800602c:	2301      	movs	r3, #1
 800602e:	e02d      	b.n	800608c <I2C_WaitOnBTFFlagUntilTimeout+0x7a>
    }

    /* Check for the Timeout */
    if (Timeout != HAL_MAX_DELAY)
 8006030:	68bb      	ldr	r3, [r7, #8]
 8006032:	f1b3 3fff 	cmp.w	r3, #4294967295
 8006036:	d021      	beq.n	800607c <I2C_WaitOnBTFFlagUntilTimeout+0x6a>
    {
      if (((HAL_GetTick() - Tickstart) > Timeout) || (Timeout == 0U))
 8006038:	f7fe fd88 	bl	8004b4c <HAL_GetTick>
 800603c:	4602      	mov	r2, r0
 800603e:	687b      	ldr	r3, [r7, #4]
 8006040:	1ad3      	subs	r3, r2, r3
 8006042:	68ba      	ldr	r2, [r7, #8]
 8006044:	429a      	cmp	r2, r3
 8006046:	d302      	bcc.n	800604e <I2C_WaitOnBTFFlagUntilTimeout+0x3c>
 8006048:	68bb      	ldr	r3, [r7, #8]
 800604a:	2b00      	cmp	r3, #0
 800604c:	d116      	bne.n	800607c <I2C_WaitOnBTFFlagUntilTimeout+0x6a>
      {
        hi2c->PreviousState       = I2C_STATE_NONE;
 800604e:	68fb      	ldr	r3, [r7, #12]
 8006050:	2200      	movs	r2, #0
 8006052:	631a      	str	r2, [r3, #48]	; 0x30
        hi2c->State               = HAL_I2C_STATE_READY;
 8006054:	68fb      	ldr	r3, [r7, #12]
 8006056:	2220      	movs	r2, #32
 8006058:	f883 203d 	strb.w	r2, [r3, #61]	; 0x3d
        hi2c->Mode                = HAL_I2C_MODE_NONE;
 800605c:	68fb      	ldr	r3, [r7, #12]
 800605e:	2200      	movs	r2, #0
 8006060:	f883 203e 	strb.w	r2, [r3, #62]	; 0x3e
        hi2c->ErrorCode           |= HAL_I2C_ERROR_TIMEOUT;
 8006064:	68fb      	ldr	r3, [r7, #12]
 8006066:	6c1b      	ldr	r3, [r3, #64]	; 0x40
 8006068:	f043 0220 	orr.w	r2, r3, #32
 800606c:	68fb      	ldr	r3, [r7, #12]
 800606e:	641a      	str	r2, [r3, #64]	; 0x40

        /* Process Unlocked */
        __HAL_UNLOCK(hi2c);
 8006070:	68fb      	ldr	r3, [r7, #12]
 8006072:	2200      	movs	r2, #0
 8006074:	f883 203c 	strb.w	r2, [r3, #60]	; 0x3c

        return HAL_ERROR;
 8006078:	2301      	movs	r3, #1
 800607a:	e007      	b.n	800608c <I2C_WaitOnBTFFlagUntilTimeout+0x7a>
  while (__HAL_I2C_GET_FLAG(hi2c, I2C_FLAG_BTF) == RESET)
 800607c:	68fb      	ldr	r3, [r7, #12]
 800607e:	681b      	ldr	r3, [r3, #0]
 8006080:	695b      	ldr	r3, [r3, #20]
 8006082:	f003 0304 	and.w	r3, r3, #4
 8006086:	2b04      	cmp	r3, #4
 8006088:	d1ca      	bne.n	8006020 <I2C_WaitOnBTFFlagUntilTimeout+0xe>
      }
    }
  }
  return HAL_OK;
 800608a:	2300      	movs	r3, #0
}
 800608c:	4618      	mov	r0, r3
 800608e:	3710      	adds	r7, #16
 8006090:	46bd      	mov	sp, r7
 8006092:	bd80      	pop	{r7, pc}

08006094 <I2C_WaitOnRXNEFlagUntilTimeout>:
  * @param  Timeout Timeout duration
  * @param  Tickstart Tick start value
  * @retval HAL status
  */
static HAL_StatusTypeDef I2C_WaitOnRXNEFlagUntilTimeout(I2C_HandleTypeDef *hi2c, uint32_t Timeout, uint32_t Tickstart)
{
 8006094:	b580      	push	{r7, lr}
 8006096:	b084      	sub	sp, #16
 8006098:	af00      	add	r7, sp, #0
 800609a:	60f8      	str	r0, [r7, #12]
 800609c:	60b9      	str	r1, [r7, #8]
 800609e:	607a      	str	r2, [r7, #4]

  while (__HAL_I2C_GET_FLAG(hi2c, I2C_FLAG_RXNE) == RESET)
 80060a0:	e042      	b.n	8006128 <I2C_WaitOnRXNEFlagUntilTimeout+0x94>
  {
    /* Check if a STOPF is detected */
    if (__HAL_I2C_GET_FLAG(hi2c, I2C_FLAG_STOPF) == SET)
 80060a2:	68fb      	ldr	r3, [r7, #12]
 80060a4:	681b      	ldr	r3, [r3, #0]
 80060a6:	695b      	ldr	r3, [r3, #20]
 80060a8:	f003 0310 	and.w	r3, r3, #16
 80060ac:	2b10      	cmp	r3, #16
 80060ae:	d119      	bne.n	80060e4 <I2C_WaitOnRXNEFlagUntilTimeout+0x50>
    {
      /* Clear STOP Flag */
      __HAL_I2C_CLEAR_FLAG(hi2c, I2C_FLAG_STOPF);
 80060b0:	68fb      	ldr	r3, [r7, #12]
 80060b2:	681b      	ldr	r3, [r3, #0]
 80060b4:	f06f 0210 	mvn.w	r2, #16
 80060b8:	615a      	str	r2, [r3, #20]

      hi2c->PreviousState       = I2C_STATE_NONE;
 80060ba:	68fb      	ldr	r3, [r7, #12]
 80060bc:	2200      	movs	r2, #0
 80060be:	631a      	str	r2, [r3, #48]	; 0x30
      hi2c->State               = HAL_I2C_STATE_READY;
 80060c0:	68fb      	ldr	r3, [r7, #12]
 80060c2:	2220      	movs	r2, #32
 80060c4:	f883 203d 	strb.w	r2, [r3, #61]	; 0x3d
      hi2c->Mode                = HAL_I2C_MODE_NONE;
 80060c8:	68fb      	ldr	r3, [r7, #12]
 80060ca:	2200      	movs	r2, #0
 80060cc:	f883 203e 	strb.w	r2, [r3, #62]	; 0x3e
      hi2c->ErrorCode           |= HAL_I2C_ERROR_NONE;
 80060d0:	68fb      	ldr	r3, [r7, #12]
 80060d2:	6c1a      	ldr	r2, [r3, #64]	; 0x40
 80060d4:	68fb      	ldr	r3, [r7, #12]
 80060d6:	641a      	str	r2, [r3, #64]	; 0x40

      /* Process Unlocked */
      __HAL_UNLOCK(hi2c);
 80060d8:	68fb      	ldr	r3, [r7, #12]
 80060da:	2200      	movs	r2, #0
 80060dc:	f883 203c 	strb.w	r2, [r3, #60]	; 0x3c

      return HAL_ERROR;
 80060e0:	2301      	movs	r3, #1
 80060e2:	e029      	b.n	8006138 <I2C_WaitOnRXNEFlagUntilTimeout+0xa4>
    }

    /* Check for the Timeout */
    if (((HAL_GetTick() - Tickstart) > Timeout) || (Timeout == 0U))
 80060e4:	f7fe fd32 	bl	8004b4c <HAL_GetTick>
 80060e8:	4602      	mov	r2, r0
 80060ea:	687b      	ldr	r3, [r7, #4]
 80060ec:	1ad3      	subs	r3, r2, r3
 80060ee:	68ba      	ldr	r2, [r7, #8]
 80060f0:	429a      	cmp	r2, r3
 80060f2:	d302      	bcc.n	80060fa <I2C_WaitOnRXNEFlagUntilTimeout+0x66>
 80060f4:	68bb      	ldr	r3, [r7, #8]
 80060f6:	2b00      	cmp	r3, #0
 80060f8:	d116      	bne.n	8006128 <I2C_WaitOnRXNEFlagUntilTimeout+0x94>
    {
      hi2c->PreviousState       = I2C_STATE_NONE;
 80060fa:	68fb      	ldr	r3, [r7, #12]
 80060fc:	2200      	movs	r2, #0
 80060fe:	631a      	str	r2, [r3, #48]	; 0x30
      hi2c->State               = HAL_I2C_STATE_READY;
 8006100:	68fb      	ldr	r3, [r7, #12]
 8006102:	2220      	movs	r2, #32
 8006104:	f883 203d 	strb.w	r2, [r3, #61]	; 0x3d
      hi2c->Mode                = HAL_I2C_MODE_NONE;
 8006108:	68fb      	ldr	r3, [r7, #12]
 800610a:	2200      	movs	r2, #0
 800610c:	f883 203e 	strb.w	r2, [r3, #62]	; 0x3e
      hi2c->ErrorCode           |= HAL_I2C_ERROR_TIMEOUT;
 8006110:	68fb      	ldr	r3, [r7, #12]
 8006112:	6c1b      	ldr	r3, [r3, #64]	; 0x40
 8006114:	f043 0220 	orr.w	r2, r3, #32
 8006118:	68fb      	ldr	r3, [r7, #12]
 800611a:	641a      	str	r2, [r3, #64]	; 0x40

      /* Process Unlocked */
      __HAL_UNLOCK(hi2c);
 800611c:	68fb      	ldr	r3, [r7, #12]
 800611e:	2200      	movs	r2, #0
 8006120:	f883 203c 	strb.w	r2, [r3, #60]	; 0x3c

      return HAL_ERROR;
 8006124:	2301      	movs	r3, #1
 8006126:	e007      	b.n	8006138 <I2C_WaitOnRXNEFlagUntilTimeout+0xa4>
  while (__HAL_I2C_GET_FLAG(hi2c, I2C_FLAG_RXNE) == RESET)
 8006128:	68fb      	ldr	r3, [r7, #12]
 800612a:	681b      	ldr	r3, [r3, #0]
 800612c:	695b      	ldr	r3, [r3, #20]
 800612e:	f003 0340 	and.w	r3, r3, #64	; 0x40
 8006132:	2b40      	cmp	r3, #64	; 0x40
 8006134:	d1b5      	bne.n	80060a2 <I2C_WaitOnRXNEFlagUntilTimeout+0xe>
    }
  }
  return HAL_OK;
 8006136:	2300      	movs	r3, #0
}
 8006138:	4618      	mov	r0, r3
 800613a:	3710      	adds	r7, #16
 800613c:	46bd      	mov	sp, r7
 800613e:	bd80      	pop	{r7, pc}

08006140 <I2C_IsAcknowledgeFailed>:
  * @param  hi2c Pointer to a I2C_HandleTypeDef structure that contains
  *                the configuration information for the specified I2C.
  * @retval HAL status
  */
static HAL_StatusTypeDef I2C_IsAcknowledgeFailed(I2C_HandleTypeDef *hi2c)
{
 8006140:	b480      	push	{r7}
 8006142:	b083      	sub	sp, #12
 8006144:	af00      	add	r7, sp, #0
 8006146:	6078      	str	r0, [r7, #4]
  if (__HAL_I2C_GET_FLAG(hi2c, I2C_FLAG_AF) == SET)
 8006148:	687b      	ldr	r3, [r7, #4]
 800614a:	681b      	ldr	r3, [r3, #0]
 800614c:	695b      	ldr	r3, [r3, #20]
 800614e:	f403 6380 	and.w	r3, r3, #1024	; 0x400
 8006152:	f5b3 6f80 	cmp.w	r3, #1024	; 0x400
 8006156:	d11b      	bne.n	8006190 <I2C_IsAcknowledgeFailed+0x50>
  {
    /* Clear NACKF Flag */
    __HAL_I2C_CLEAR_FLAG(hi2c, I2C_FLAG_AF);
 8006158:	687b      	ldr	r3, [r7, #4]
 800615a:	681b      	ldr	r3, [r3, #0]
 800615c:	f46f 6280 	mvn.w	r2, #1024	; 0x400
 8006160:	615a      	str	r2, [r3, #20]

    hi2c->PreviousState       = I2C_STATE_NONE;
 8006162:	687b      	ldr	r3, [r7, #4]
 8006164:	2200      	movs	r2, #0
 8006166:	631a      	str	r2, [r3, #48]	; 0x30
    hi2c->State               = HAL_I2C_STATE_READY;
 8006168:	687b      	ldr	r3, [r7, #4]
 800616a:	2220      	movs	r2, #32
 800616c:	f883 203d 	strb.w	r2, [r3, #61]	; 0x3d
    hi2c->Mode                = HAL_I2C_MODE_NONE;
 8006170:	687b      	ldr	r3, [r7, #4]
 8006172:	2200      	movs	r2, #0
 8006174:	f883 203e 	strb.w	r2, [r3, #62]	; 0x3e
    hi2c->ErrorCode           |= HAL_I2C_ERROR_AF;
 8006178:	687b      	ldr	r3, [r7, #4]
 800617a:	6c1b      	ldr	r3, [r3, #64]	; 0x40
 800617c:	f043 0204 	orr.w	r2, r3, #4
 8006180:	687b      	ldr	r3, [r7, #4]
 8006182:	641a      	str	r2, [r3, #64]	; 0x40

    /* Process Unlocked */
    __HAL_UNLOCK(hi2c);
 8006184:	687b      	ldr	r3, [r7, #4]
 8006186:	2200      	movs	r2, #0
 8006188:	f883 203c 	strb.w	r2, [r3, #60]	; 0x3c

    return HAL_ERROR;
 800618c:	2301      	movs	r3, #1
 800618e:	e000      	b.n	8006192 <I2C_IsAcknowledgeFailed+0x52>
  }
  return HAL_OK;
 8006190:	2300      	movs	r3, #0
}
 8006192:	4618      	mov	r0, r3
 8006194:	370c      	adds	r7, #12
 8006196:	46bd      	mov	sp, r7
 8006198:	bc80      	pop	{r7}
 800619a:	4770      	bx	lr

0800619c <HAL_RCC_OscConfig>:
  *         supported by this macro. User should request a transition to HSE Off
  *         first and then HSE On or HSE Bypass.
  * @retval HAL status
  */
HAL_StatusTypeDef HAL_RCC_OscConfig(RCC_OscInitTypeDef  *RCC_OscInitStruct)
{
 800619c:	b580      	push	{r7, lr}
 800619e:	b086      	sub	sp, #24
 80061a0:	af00      	add	r7, sp, #0
 80061a2:	6078      	str	r0, [r7, #4]
  uint32_t tickstart;
  uint32_t pll_config;

  /* Check Null pointer */
  if (RCC_OscInitStruct == NULL)
 80061a4:	687b      	ldr	r3, [r7, #4]
 80061a6:	2b00      	cmp	r3, #0
 80061a8:	d101      	bne.n	80061ae <HAL_RCC_OscConfig+0x12>
  {
    return HAL_ERROR;
 80061aa:	2301      	movs	r3, #1
 80061ac:	e26c      	b.n	8006688 <HAL_RCC_OscConfig+0x4ec>

  /* Check the parameters */
  assert_param(IS_RCC_OSCILLATORTYPE(RCC_OscInitStruct->OscillatorType));

  /*------------------------------- HSE Configuration ------------------------*/
  if (((RCC_OscInitStruct->OscillatorType) & RCC_OSCILLATORTYPE_HSE) == RCC_OSCILLATORTYPE_HSE)
 80061ae:	687b      	ldr	r3, [r7, #4]
 80061b0:	681b      	ldr	r3, [r3, #0]
 80061b2:	f003 0301 	and.w	r3, r3, #1
 80061b6:	2b00      	cmp	r3, #0
 80061b8:	f000 8087 	beq.w	80062ca <HAL_RCC_OscConfig+0x12e>
  {
    /* Check the parameters */
    assert_param(IS_RCC_HSE(RCC_OscInitStruct->HSEState));

    /* When the HSE is used as system clock or clock source for PLL in these cases it is not allowed to be disabled */
    if ((__HAL_RCC_GET_SYSCLK_SOURCE() == RCC_SYSCLKSOURCE_STATUS_HSE)
 80061bc:	4b92      	ldr	r3, [pc, #584]	; (8006408 <HAL_RCC_OscConfig+0x26c>)
 80061be:	685b      	ldr	r3, [r3, #4]
 80061c0:	f003 030c 	and.w	r3, r3, #12
 80061c4:	2b04      	cmp	r3, #4
 80061c6:	d00c      	beq.n	80061e2 <HAL_RCC_OscConfig+0x46>
        || ((__HAL_RCC_GET_SYSCLK_SOURCE() == RCC_SYSCLKSOURCE_STATUS_PLLCLK) && (__HAL_RCC_GET_PLL_OSCSOURCE() == RCC_PLLSOURCE_HSE)))
 80061c8:	4b8f      	ldr	r3, [pc, #572]	; (8006408 <HAL_RCC_OscConfig+0x26c>)
 80061ca:	685b      	ldr	r3, [r3, #4]
 80061cc:	f003 030c 	and.w	r3, r3, #12
 80061d0:	2b08      	cmp	r3, #8
 80061d2:	d112      	bne.n	80061fa <HAL_RCC_OscConfig+0x5e>
 80061d4:	4b8c      	ldr	r3, [pc, #560]	; (8006408 <HAL_RCC_OscConfig+0x26c>)
 80061d6:	685b      	ldr	r3, [r3, #4]
 80061d8:	f403 3380 	and.w	r3, r3, #65536	; 0x10000
 80061dc:	f5b3 3f80 	cmp.w	r3, #65536	; 0x10000
 80061e0:	d10b      	bne.n	80061fa <HAL_RCC_OscConfig+0x5e>
    {
      if ((__HAL_RCC_GET_FLAG(RCC_FLAG_HSERDY) != RESET) && (RCC_OscInitStruct->HSEState == RCC_HSE_OFF))
 80061e2:	4b89      	ldr	r3, [pc, #548]	; (8006408 <HAL_RCC_OscConfig+0x26c>)
 80061e4:	681b      	ldr	r3, [r3, #0]
 80061e6:	f403 3300 	and.w	r3, r3, #131072	; 0x20000
 80061ea:	2b00      	cmp	r3, #0
 80061ec:	d06c      	beq.n	80062c8 <HAL_RCC_OscConfig+0x12c>
 80061ee:	687b      	ldr	r3, [r7, #4]
 80061f0:	685b      	ldr	r3, [r3, #4]
 80061f2:	2b00      	cmp	r3, #0
 80061f4:	d168      	bne.n	80062c8 <HAL_RCC_OscConfig+0x12c>
      {
        return HAL_ERROR;
 80061f6:	2301      	movs	r3, #1
 80061f8:	e246      	b.n	8006688 <HAL_RCC_OscConfig+0x4ec>
      }
    }
    else
    {
      /* Set the new HSE configuration ---------------------------------------*/
      __HAL_RCC_HSE_CONFIG(RCC_OscInitStruct->HSEState);
 80061fa:	687b      	ldr	r3, [r7, #4]
 80061fc:	685b      	ldr	r3, [r3, #4]
 80061fe:	f5b3 3f80 	cmp.w	r3, #65536	; 0x10000
 8006202:	d106      	bne.n	8006212 <HAL_RCC_OscConfig+0x76>
 8006204:	4b80      	ldr	r3, [pc, #512]	; (8006408 <HAL_RCC_OscConfig+0x26c>)
 8006206:	681b      	ldr	r3, [r3, #0]
 8006208:	4a7f      	ldr	r2, [pc, #508]	; (8006408 <HAL_RCC_OscConfig+0x26c>)
 800620a:	f443 3380 	orr.w	r3, r3, #65536	; 0x10000
 800620e:	6013      	str	r3, [r2, #0]
 8006210:	e02e      	b.n	8006270 <HAL_RCC_OscConfig+0xd4>
 8006212:	687b      	ldr	r3, [r7, #4]
 8006214:	685b      	ldr	r3, [r3, #4]
 8006216:	2b00      	cmp	r3, #0
 8006218:	d10c      	bne.n	8006234 <HAL_RCC_OscConfig+0x98>
 800621a:	4b7b      	ldr	r3, [pc, #492]	; (8006408 <HAL_RCC_OscConfig+0x26c>)
 800621c:	681b      	ldr	r3, [r3, #0]
 800621e:	4a7a      	ldr	r2, [pc, #488]	; (8006408 <HAL_RCC_OscConfig+0x26c>)
 8006220:	f423 3380 	bic.w	r3, r3, #65536	; 0x10000
 8006224:	6013      	str	r3, [r2, #0]
 8006226:	4b78      	ldr	r3, [pc, #480]	; (8006408 <HAL_RCC_OscConfig+0x26c>)
 8006228:	681b      	ldr	r3, [r3, #0]
 800622a:	4a77      	ldr	r2, [pc, #476]	; (8006408 <HAL_RCC_OscConfig+0x26c>)
 800622c:	f423 2380 	bic.w	r3, r3, #262144	; 0x40000
 8006230:	6013      	str	r3, [r2, #0]
 8006232:	e01d      	b.n	8006270 <HAL_RCC_OscConfig+0xd4>
 8006234:	687b      	ldr	r3, [r7, #4]
 8006236:	685b      	ldr	r3, [r3, #4]
 8006238:	f5b3 2fa0 	cmp.w	r3, #327680	; 0x50000
 800623c:	d10c      	bne.n	8006258 <HAL_RCC_OscConfig+0xbc>
 800623e:	4b72      	ldr	r3, [pc, #456]	; (8006408 <HAL_RCC_OscConfig+0x26c>)
 8006240:	681b      	ldr	r3, [r3, #0]
 8006242:	4a71      	ldr	r2, [pc, #452]	; (8006408 <HAL_RCC_OscConfig+0x26c>)
 8006244:	f443 2380 	orr.w	r3, r3, #262144	; 0x40000
 8006248:	6013      	str	r3, [r2, #0]
 800624a:	4b6f      	ldr	r3, [pc, #444]	; (8006408 <HAL_RCC_OscConfig+0x26c>)
 800624c:	681b      	ldr	r3, [r3, #0]
 800624e:	4a6e      	ldr	r2, [pc, #440]	; (8006408 <HAL_RCC_OscConfig+0x26c>)
 8006250:	f443 3380 	orr.w	r3, r3, #65536	; 0x10000
 8006254:	6013      	str	r3, [r2, #0]
 8006256:	e00b      	b.n	8006270 <HAL_RCC_OscConfig+0xd4>
 8006258:	4b6b      	ldr	r3, [pc, #428]	; (8006408 <HAL_RCC_OscConfig+0x26c>)
 800625a:	681b      	ldr	r3, [r3, #0]
 800625c:	4a6a      	ldr	r2, [pc, #424]	; (8006408 <HAL_RCC_OscConfig+0x26c>)
 800625e:	f423 3380 	bic.w	r3, r3, #65536	; 0x10000
 8006262:	6013      	str	r3, [r2, #0]
 8006264:	4b68      	ldr	r3, [pc, #416]	; (8006408 <HAL_RCC_OscConfig+0x26c>)
 8006266:	681b      	ldr	r3, [r3, #0]
 8006268:	4a67      	ldr	r2, [pc, #412]	; (8006408 <HAL_RCC_OscConfig+0x26c>)
 800626a:	f423 2380 	bic.w	r3, r3, #262144	; 0x40000
 800626e:	6013      	str	r3, [r2, #0]


      /* Check the HSE State */
      if (RCC_OscInitStruct->HSEState != RCC_HSE_OFF)
 8006270:	687b      	ldr	r3, [r7, #4]
 8006272:	685b      	ldr	r3, [r3, #4]
 8006274:	2b00      	cmp	r3, #0
 8006276:	d013      	beq.n	80062a0 <HAL_RCC_OscConfig+0x104>
      {
        /* Get Start Tick */
        tickstart = HAL_GetTick();
 8006278:	f7fe fc68 	bl	8004b4c <HAL_GetTick>
 800627c:	6138      	str	r0, [r7, #16]

        /* Wait till HSE is ready */
        while (__HAL_RCC_GET_FLAG(RCC_FLAG_HSERDY) == RESET)
 800627e:	e008      	b.n	8006292 <HAL_RCC_OscConfig+0xf6>
        {
          if ((HAL_GetTick() - tickstart) > HSE_TIMEOUT_VALUE)
 8006280:	f7fe fc64 	bl	8004b4c <HAL_GetTick>
 8006284:	4602      	mov	r2, r0
 8006286:	693b      	ldr	r3, [r7, #16]
 8006288:	1ad3      	subs	r3, r2, r3
 800628a:	2b64      	cmp	r3, #100	; 0x64
 800628c:	d901      	bls.n	8006292 <HAL_RCC_OscConfig+0xf6>
          {
            return HAL_TIMEOUT;
 800628e:	2303      	movs	r3, #3
 8006290:	e1fa      	b.n	8006688 <HAL_RCC_OscConfig+0x4ec>
        while (__HAL_RCC_GET_FLAG(RCC_FLAG_HSERDY) == RESET)
 8006292:	4b5d      	ldr	r3, [pc, #372]	; (8006408 <HAL_RCC_OscConfig+0x26c>)
 8006294:	681b      	ldr	r3, [r3, #0]
 8006296:	f403 3300 	and.w	r3, r3, #131072	; 0x20000
 800629a:	2b00      	cmp	r3, #0
 800629c:	d0f0      	beq.n	8006280 <HAL_RCC_OscConfig+0xe4>
 800629e:	e014      	b.n	80062ca <HAL_RCC_OscConfig+0x12e>
        }
      }
      else
      {
        /* Get Start Tick */
        tickstart = HAL_GetTick();
 80062a0:	f7fe fc54 	bl	8004b4c <HAL_GetTick>
 80062a4:	6138      	str	r0, [r7, #16]

        /* Wait till HSE is disabled */
        while (__HAL_RCC_GET_FLAG(RCC_FLAG_HSERDY) != RESET)
 80062a6:	e008      	b.n	80062ba <HAL_RCC_OscConfig+0x11e>
        {
          if ((HAL_GetTick() - tickstart) > HSE_TIMEOUT_VALUE)
 80062a8:	f7fe fc50 	bl	8004b4c <HAL_GetTick>
 80062ac:	4602      	mov	r2, r0
 80062ae:	693b      	ldr	r3, [r7, #16]
 80062b0:	1ad3      	subs	r3, r2, r3
 80062b2:	2b64      	cmp	r3, #100	; 0x64
 80062b4:	d901      	bls.n	80062ba <HAL_RCC_OscConfig+0x11e>
          {
            return HAL_TIMEOUT;
 80062b6:	2303      	movs	r3, #3
 80062b8:	e1e6      	b.n	8006688 <HAL_RCC_OscConfig+0x4ec>
        while (__HAL_RCC_GET_FLAG(RCC_FLAG_HSERDY) != RESET)
 80062ba:	4b53      	ldr	r3, [pc, #332]	; (8006408 <HAL_RCC_OscConfig+0x26c>)
 80062bc:	681b      	ldr	r3, [r3, #0]
 80062be:	f403 3300 	and.w	r3, r3, #131072	; 0x20000
 80062c2:	2b00      	cmp	r3, #0
 80062c4:	d1f0      	bne.n	80062a8 <HAL_RCC_OscConfig+0x10c>
 80062c6:	e000      	b.n	80062ca <HAL_RCC_OscConfig+0x12e>
      if ((__HAL_RCC_GET_FLAG(RCC_FLAG_HSERDY) != RESET) && (RCC_OscInitStruct->HSEState == RCC_HSE_OFF))
 80062c8:	bf00      	nop
        }
      }
    }
  }
  /*----------------------------- HSI Configuration --------------------------*/
  if (((RCC_OscInitStruct->OscillatorType) & RCC_OSCILLATORTYPE_HSI) == RCC_OSCILLATORTYPE_HSI)
 80062ca:	687b      	ldr	r3, [r7, #4]
 80062cc:	681b      	ldr	r3, [r3, #0]
 80062ce:	f003 0302 	and.w	r3, r3, #2
 80062d2:	2b00      	cmp	r3, #0
 80062d4:	d063      	beq.n	800639e <HAL_RCC_OscConfig+0x202>
    /* Check the parameters */
    assert_param(IS_RCC_HSI(RCC_OscInitStruct->HSIState));
    assert_param(IS_RCC_CALIBRATION_VALUE(RCC_OscInitStruct->HSICalibrationValue));

    /* Check if HSI is used as system clock or as PLL source when PLL is selected as system clock */
    if ((__HAL_RCC_GET_SYSCLK_SOURCE() == RCC_SYSCLKSOURCE_STATUS_HSI)
 80062d6:	4b4c      	ldr	r3, [pc, #304]	; (8006408 <HAL_RCC_OscConfig+0x26c>)
 80062d8:	685b      	ldr	r3, [r3, #4]
 80062da:	f003 030c 	and.w	r3, r3, #12
 80062de:	2b00      	cmp	r3, #0
 80062e0:	d00b      	beq.n	80062fa <HAL_RCC_OscConfig+0x15e>
        || ((__HAL_RCC_GET_SYSCLK_SOURCE() == RCC_SYSCLKSOURCE_STATUS_PLLCLK) && (__HAL_RCC_GET_PLL_OSCSOURCE() == RCC_PLLSOURCE_HSI_DIV2)))
 80062e2:	4b49      	ldr	r3, [pc, #292]	; (8006408 <HAL_RCC_OscConfig+0x26c>)
 80062e4:	685b      	ldr	r3, [r3, #4]
 80062e6:	f003 030c 	and.w	r3, r3, #12
 80062ea:	2b08      	cmp	r3, #8
 80062ec:	d11c      	bne.n	8006328 <HAL_RCC_OscConfig+0x18c>
 80062ee:	4b46      	ldr	r3, [pc, #280]	; (8006408 <HAL_RCC_OscConfig+0x26c>)
 80062f0:	685b      	ldr	r3, [r3, #4]
 80062f2:	f403 3380 	and.w	r3, r3, #65536	; 0x10000
 80062f6:	2b00      	cmp	r3, #0
 80062f8:	d116      	bne.n	8006328 <HAL_RCC_OscConfig+0x18c>
    {
      /* When HSI is used as system clock it will not disabled */
      if ((__HAL_RCC_GET_FLAG(RCC_FLAG_HSIRDY) != RESET) && (RCC_OscInitStruct->HSIState != RCC_HSI_ON))
 80062fa:	4b43      	ldr	r3, [pc, #268]	; (8006408 <HAL_RCC_OscConfig+0x26c>)
 80062fc:	681b      	ldr	r3, [r3, #0]
 80062fe:	f003 0302 	and.w	r3, r3, #2
 8006302:	2b00      	cmp	r3, #0
 8006304:	d005      	beq.n	8006312 <HAL_RCC_OscConfig+0x176>
 8006306:	687b      	ldr	r3, [r7, #4]
 8006308:	691b      	ldr	r3, [r3, #16]
 800630a:	2b01      	cmp	r3, #1
 800630c:	d001      	beq.n	8006312 <HAL_RCC_OscConfig+0x176>
      {
        return HAL_ERROR;
 800630e:	2301      	movs	r3, #1
 8006310:	e1ba      	b.n	8006688 <HAL_RCC_OscConfig+0x4ec>
      }
      /* Otherwise, just the calibration is allowed */
      else
      {
        /* Adjusts the Internal High Speed oscillator (HSI) calibration value.*/
        __HAL_RCC_HSI_CALIBRATIONVALUE_ADJUST(RCC_OscInitStruct->HSICalibrationValue);
 8006312:	4b3d      	ldr	r3, [pc, #244]	; (8006408 <HAL_RCC_OscConfig+0x26c>)
 8006314:	681b      	ldr	r3, [r3, #0]
 8006316:	f023 02f8 	bic.w	r2, r3, #248	; 0xf8
 800631a:	687b      	ldr	r3, [r7, #4]
 800631c:	695b      	ldr	r3, [r3, #20]
 800631e:	00db      	lsls	r3, r3, #3
 8006320:	4939      	ldr	r1, [pc, #228]	; (8006408 <HAL_RCC_OscConfig+0x26c>)
 8006322:	4313      	orrs	r3, r2
 8006324:	600b      	str	r3, [r1, #0]
      if ((__HAL_RCC_GET_FLAG(RCC_FLAG_HSIRDY) != RESET) && (RCC_OscInitStruct->HSIState != RCC_HSI_ON))
 8006326:	e03a      	b.n	800639e <HAL_RCC_OscConfig+0x202>
      }
    }
    else
    {
      /* Check the HSI State */
      if (RCC_OscInitStruct->HSIState != RCC_HSI_OFF)
 8006328:	687b      	ldr	r3, [r7, #4]
 800632a:	691b      	ldr	r3, [r3, #16]
 800632c:	2b00      	cmp	r3, #0
 800632e:	d020      	beq.n	8006372 <HAL_RCC_OscConfig+0x1d6>
      {
        /* Enable the Internal High Speed oscillator (HSI). */
        __HAL_RCC_HSI_ENABLE();
 8006330:	4b36      	ldr	r3, [pc, #216]	; (800640c <HAL_RCC_OscConfig+0x270>)
 8006332:	2201      	movs	r2, #1
 8006334:	601a      	str	r2, [r3, #0]

        /* Get Start Tick */
        tickstart = HAL_GetTick();
 8006336:	f7fe fc09 	bl	8004b4c <HAL_GetTick>
 800633a:	6138      	str	r0, [r7, #16]

        /* Wait till HSI is ready */
        while (__HAL_RCC_GET_FLAG(RCC_FLAG_HSIRDY) == RESET)
 800633c:	e008      	b.n	8006350 <HAL_RCC_OscConfig+0x1b4>
        {
          if ((HAL_GetTick() - tickstart) > HSI_TIMEOUT_VALUE)
 800633e:	f7fe fc05 	bl	8004b4c <HAL_GetTick>
 8006342:	4602      	mov	r2, r0
 8006344:	693b      	ldr	r3, [r7, #16]
 8006346:	1ad3      	subs	r3, r2, r3
 8006348:	2b02      	cmp	r3, #2
 800634a:	d901      	bls.n	8006350 <HAL_RCC_OscConfig+0x1b4>
          {
            return HAL_TIMEOUT;
 800634c:	2303      	movs	r3, #3
 800634e:	e19b      	b.n	8006688 <HAL_RCC_OscConfig+0x4ec>
        while (__HAL_RCC_GET_FLAG(RCC_FLAG_HSIRDY) == RESET)
 8006350:	4b2d      	ldr	r3, [pc, #180]	; (8006408 <HAL_RCC_OscConfig+0x26c>)
 8006352:	681b      	ldr	r3, [r3, #0]
 8006354:	f003 0302 	and.w	r3, r3, #2
 8006358:	2b00      	cmp	r3, #0
 800635a:	d0f0      	beq.n	800633e <HAL_RCC_OscConfig+0x1a2>
          }
        }

        /* Adjusts the Internal High Speed oscillator (HSI) calibration value.*/
        __HAL_RCC_HSI_CALIBRATIONVALUE_ADJUST(RCC_OscInitStruct->HSICalibrationValue);
 800635c:	4b2a      	ldr	r3, [pc, #168]	; (8006408 <HAL_RCC_OscConfig+0x26c>)
 800635e:	681b      	ldr	r3, [r3, #0]
 8006360:	f023 02f8 	bic.w	r2, r3, #248	; 0xf8
 8006364:	687b      	ldr	r3, [r7, #4]
 8006366:	695b      	ldr	r3, [r3, #20]
 8006368:	00db      	lsls	r3, r3, #3
 800636a:	4927      	ldr	r1, [pc, #156]	; (8006408 <HAL_RCC_OscConfig+0x26c>)
 800636c:	4313      	orrs	r3, r2
 800636e:	600b      	str	r3, [r1, #0]
 8006370:	e015      	b.n	800639e <HAL_RCC_OscConfig+0x202>
      }
      else
      {
        /* Disable the Internal High Speed oscillator (HSI). */
        __HAL_RCC_HSI_DISABLE();
 8006372:	4b26      	ldr	r3, [pc, #152]	; (800640c <HAL_RCC_OscConfig+0x270>)
 8006374:	2200      	movs	r2, #0
 8006376:	601a      	str	r2, [r3, #0]

        /* Get Start Tick */
        tickstart = HAL_GetTick();
 8006378:	f7fe fbe8 	bl	8004b4c <HAL_GetTick>
 800637c:	6138      	str	r0, [r7, #16]

        /* Wait till HSI is disabled */
        while (__HAL_RCC_GET_FLAG(RCC_FLAG_HSIRDY) != RESET)
 800637e:	e008      	b.n	8006392 <HAL_RCC_OscConfig+0x1f6>
        {
          if ((HAL_GetTick() - tickstart) > HSI_TIMEOUT_VALUE)
 8006380:	f7fe fbe4 	bl	8004b4c <HAL_GetTick>
 8006384:	4602      	mov	r2, r0
 8006386:	693b      	ldr	r3, [r7, #16]
 8006388:	1ad3      	subs	r3, r2, r3
 800638a:	2b02      	cmp	r3, #2
 800638c:	d901      	bls.n	8006392 <HAL_RCC_OscConfig+0x1f6>
          {
            return HAL_TIMEOUT;
 800638e:	2303      	movs	r3, #3
 8006390:	e17a      	b.n	8006688 <HAL_RCC_OscConfig+0x4ec>
        while (__HAL_RCC_GET_FLAG(RCC_FLAG_HSIRDY) != RESET)
 8006392:	4b1d      	ldr	r3, [pc, #116]	; (8006408 <HAL_RCC_OscConfig+0x26c>)
 8006394:	681b      	ldr	r3, [r3, #0]
 8006396:	f003 0302 	and.w	r3, r3, #2
 800639a:	2b00      	cmp	r3, #0
 800639c:	d1f0      	bne.n	8006380 <HAL_RCC_OscConfig+0x1e4>
        }
      }
    }
  }
  /*------------------------------ LSI Configuration -------------------------*/
  if (((RCC_OscInitStruct->OscillatorType) & RCC_OSCILLATORTYPE_LSI) == RCC_OSCILLATORTYPE_LSI)
 800639e:	687b      	ldr	r3, [r7, #4]
 80063a0:	681b      	ldr	r3, [r3, #0]
 80063a2:	f003 0308 	and.w	r3, r3, #8
 80063a6:	2b00      	cmp	r3, #0
 80063a8:	d03a      	beq.n	8006420 <HAL_RCC_OscConfig+0x284>
  {
    /* Check the parameters */
    assert_param(IS_RCC_LSI(RCC_OscInitStruct->LSIState));

    /* Check the LSI State */
    if (RCC_OscInitStruct->LSIState != RCC_LSI_OFF)
 80063aa:	687b      	ldr	r3, [r7, #4]
 80063ac:	699b      	ldr	r3, [r3, #24]
 80063ae:	2b00      	cmp	r3, #0
 80063b0:	d019      	beq.n	80063e6 <HAL_RCC_OscConfig+0x24a>
    {
      /* Enable the Internal Low Speed oscillator (LSI). */
      __HAL_RCC_LSI_ENABLE();
 80063b2:	4b17      	ldr	r3, [pc, #92]	; (8006410 <HAL_RCC_OscConfig+0x274>)
 80063b4:	2201      	movs	r2, #1
 80063b6:	601a      	str	r2, [r3, #0]

      /* Get Start Tick */
      tickstart = HAL_GetTick();
 80063b8:	f7fe fbc8 	bl	8004b4c <HAL_GetTick>
 80063bc:	6138      	str	r0, [r7, #16]

      /* Wait till LSI is ready */
      while (__HAL_RCC_GET_FLAG(RCC_FLAG_LSIRDY) == RESET)
 80063be:	e008      	b.n	80063d2 <HAL_RCC_OscConfig+0x236>
      {
        if ((HAL_GetTick() - tickstart) > LSI_TIMEOUT_VALUE)
 80063c0:	f7fe fbc4 	bl	8004b4c <HAL_GetTick>
 80063c4:	4602      	mov	r2, r0
 80063c6:	693b      	ldr	r3, [r7, #16]
 80063c8:	1ad3      	subs	r3, r2, r3
 80063ca:	2b02      	cmp	r3, #2
 80063cc:	d901      	bls.n	80063d2 <HAL_RCC_OscConfig+0x236>
        {
          return HAL_TIMEOUT;
 80063ce:	2303      	movs	r3, #3
 80063d0:	e15a      	b.n	8006688 <HAL_RCC_OscConfig+0x4ec>
      while (__HAL_RCC_GET_FLAG(RCC_FLAG_LSIRDY) == RESET)
 80063d2:	4b0d      	ldr	r3, [pc, #52]	; (8006408 <HAL_RCC_OscConfig+0x26c>)
 80063d4:	6a5b      	ldr	r3, [r3, #36]	; 0x24
 80063d6:	f003 0302 	and.w	r3, r3, #2
 80063da:	2b00      	cmp	r3, #0
 80063dc:	d0f0      	beq.n	80063c0 <HAL_RCC_OscConfig+0x224>
        }
      }
      /*  To have a fully stabilized clock in the specified range, a software delay of 1ms
          should be added.*/
      RCC_Delay(1);
 80063de:	2001      	movs	r0, #1
 80063e0:	f000 fada 	bl	8006998 <RCC_Delay>
 80063e4:	e01c      	b.n	8006420 <HAL_RCC_OscConfig+0x284>
    }
    else
    {
      /* Disable the Internal Low Speed oscillator (LSI). */
      __HAL_RCC_LSI_DISABLE();
 80063e6:	4b0a      	ldr	r3, [pc, #40]	; (8006410 <HAL_RCC_OscConfig+0x274>)
 80063e8:	2200      	movs	r2, #0
 80063ea:	601a      	str	r2, [r3, #0]

      /* Get Start Tick */
      tickstart = HAL_GetTick();
 80063ec:	f7fe fbae 	bl	8004b4c <HAL_GetTick>
 80063f0:	6138      	str	r0, [r7, #16]

      /* Wait till LSI is disabled */
      while (__HAL_RCC_GET_FLAG(RCC_FLAG_LSIRDY) != RESET)
 80063f2:	e00f      	b.n	8006414 <HAL_RCC_OscConfig+0x278>
      {
        if ((HAL_GetTick() - tickstart) > LSI_TIMEOUT_VALUE)
 80063f4:	f7fe fbaa 	bl	8004b4c <HAL_GetTick>
 80063f8:	4602      	mov	r2, r0
 80063fa:	693b      	ldr	r3, [r7, #16]
 80063fc:	1ad3      	subs	r3, r2, r3
 80063fe:	2b02      	cmp	r3, #2
 8006400:	d908      	bls.n	8006414 <HAL_RCC_OscConfig+0x278>
        {
          return HAL_TIMEOUT;
 8006402:	2303      	movs	r3, #3
 8006404:	e140      	b.n	8006688 <HAL_RCC_OscConfig+0x4ec>
 8006406:	bf00      	nop
 8006408:	40021000 	.word	0x40021000
 800640c:	42420000 	.word	0x42420000
 8006410:	42420480 	.word	0x42420480
      while (__HAL_RCC_GET_FLAG(RCC_FLAG_LSIRDY) != RESET)
 8006414:	4b9e      	ldr	r3, [pc, #632]	; (8006690 <HAL_RCC_OscConfig+0x4f4>)
 8006416:	6a5b      	ldr	r3, [r3, #36]	; 0x24
 8006418:	f003 0302 	and.w	r3, r3, #2
 800641c:	2b00      	cmp	r3, #0
 800641e:	d1e9      	bne.n	80063f4 <HAL_RCC_OscConfig+0x258>
        }
      }
    }
  }
  /*------------------------------ LSE Configuration -------------------------*/
  if (((RCC_OscInitStruct->OscillatorType) & RCC_OSCILLATORTYPE_LSE) == RCC_OSCILLATORTYPE_LSE)
 8006420:	687b      	ldr	r3, [r7, #4]
 8006422:	681b      	ldr	r3, [r3, #0]
 8006424:	f003 0304 	and.w	r3, r3, #4
 8006428:	2b00      	cmp	r3, #0
 800642a:	f000 80a6 	beq.w	800657a <HAL_RCC_OscConfig+0x3de>
  {
    FlagStatus       pwrclkchanged = RESET;
 800642e:	2300      	movs	r3, #0
 8006430:	75fb      	strb	r3, [r7, #23]
    /* Check the parameters */
    assert_param(IS_RCC_LSE(RCC_OscInitStruct->LSEState));

    /* Update LSE configuration in Backup Domain control register    */
    /* Requires to enable write access to Backup Domain of necessary */
    if (__HAL_RCC_PWR_IS_CLK_DISABLED())
 8006432:	4b97      	ldr	r3, [pc, #604]	; (8006690 <HAL_RCC_OscConfig+0x4f4>)
 8006434:	69db      	ldr	r3, [r3, #28]
 8006436:	f003 5380 	and.w	r3, r3, #268435456	; 0x10000000
 800643a:	2b00      	cmp	r3, #0
 800643c:	d10d      	bne.n	800645a <HAL_RCC_OscConfig+0x2be>
    {
      __HAL_RCC_PWR_CLK_ENABLE();
 800643e:	4b94      	ldr	r3, [pc, #592]	; (8006690 <HAL_RCC_OscConfig+0x4f4>)
 8006440:	69db      	ldr	r3, [r3, #28]
 8006442:	4a93      	ldr	r2, [pc, #588]	; (8006690 <HAL_RCC_OscConfig+0x4f4>)
 8006444:	f043 5380 	orr.w	r3, r3, #268435456	; 0x10000000
 8006448:	61d3      	str	r3, [r2, #28]
 800644a:	4b91      	ldr	r3, [pc, #580]	; (8006690 <HAL_RCC_OscConfig+0x4f4>)
 800644c:	69db      	ldr	r3, [r3, #28]
 800644e:	f003 5380 	and.w	r3, r3, #268435456	; 0x10000000
 8006452:	60bb      	str	r3, [r7, #8]
 8006454:	68bb      	ldr	r3, [r7, #8]
      pwrclkchanged = SET;
 8006456:	2301      	movs	r3, #1
 8006458:	75fb      	strb	r3, [r7, #23]
    }

    if (HAL_IS_BIT_CLR(PWR->CR, PWR_CR_DBP))
 800645a:	4b8e      	ldr	r3, [pc, #568]	; (8006694 <HAL_RCC_OscConfig+0x4f8>)
 800645c:	681b      	ldr	r3, [r3, #0]
 800645e:	f403 7380 	and.w	r3, r3, #256	; 0x100
 8006462:	2b00      	cmp	r3, #0
 8006464:	d118      	bne.n	8006498 <HAL_RCC_OscConfig+0x2fc>
    {
      /* Enable write access to Backup domain */
      SET_BIT(PWR->CR, PWR_CR_DBP);
 8006466:	4b8b      	ldr	r3, [pc, #556]	; (8006694 <HAL_RCC_OscConfig+0x4f8>)
 8006468:	681b      	ldr	r3, [r3, #0]
 800646a:	4a8a      	ldr	r2, [pc, #552]	; (8006694 <HAL_RCC_OscConfig+0x4f8>)
 800646c:	f443 7380 	orr.w	r3, r3, #256	; 0x100
 8006470:	6013      	str	r3, [r2, #0]

      /* Wait for Backup domain Write protection disable */
      tickstart = HAL_GetTick();
 8006472:	f7fe fb6b 	bl	8004b4c <HAL_GetTick>
 8006476:	6138      	str	r0, [r7, #16]

      while (HAL_IS_BIT_CLR(PWR->CR, PWR_CR_DBP))
 8006478:	e008      	b.n	800648c <HAL_RCC_OscConfig+0x2f0>
      {
        if ((HAL_GetTick() - tickstart) > RCC_DBP_TIMEOUT_VALUE)
 800647a:	f7fe fb67 	bl	8004b4c <HAL_GetTick>
 800647e:	4602      	mov	r2, r0
 8006480:	693b      	ldr	r3, [r7, #16]
 8006482:	1ad3      	subs	r3, r2, r3
 8006484:	2b64      	cmp	r3, #100	; 0x64
 8006486:	d901      	bls.n	800648c <HAL_RCC_OscConfig+0x2f0>
        {
          return HAL_TIMEOUT;
 8006488:	2303      	movs	r3, #3
 800648a:	e0fd      	b.n	8006688 <HAL_RCC_OscConfig+0x4ec>
      while (HAL_IS_BIT_CLR(PWR->CR, PWR_CR_DBP))
 800648c:	4b81      	ldr	r3, [pc, #516]	; (8006694 <HAL_RCC_OscConfig+0x4f8>)
 800648e:	681b      	ldr	r3, [r3, #0]
 8006490:	f403 7380 	and.w	r3, r3, #256	; 0x100
 8006494:	2b00      	cmp	r3, #0
 8006496:	d0f0      	beq.n	800647a <HAL_RCC_OscConfig+0x2de>
        }
      }
    }

    /* Set the new LSE configuration -----------------------------------------*/
    __HAL_RCC_LSE_CONFIG(RCC_OscInitStruct->LSEState);
 8006498:	687b      	ldr	r3, [r7, #4]
 800649a:	68db      	ldr	r3, [r3, #12]
 800649c:	2b01      	cmp	r3, #1
 800649e:	d106      	bne.n	80064ae <HAL_RCC_OscConfig+0x312>
 80064a0:	4b7b      	ldr	r3, [pc, #492]	; (8006690 <HAL_RCC_OscConfig+0x4f4>)
 80064a2:	6a1b      	ldr	r3, [r3, #32]
 80064a4:	4a7a      	ldr	r2, [pc, #488]	; (8006690 <HAL_RCC_OscConfig+0x4f4>)
 80064a6:	f043 0301 	orr.w	r3, r3, #1
 80064aa:	6213      	str	r3, [r2, #32]
 80064ac:	e02d      	b.n	800650a <HAL_RCC_OscConfig+0x36e>
 80064ae:	687b      	ldr	r3, [r7, #4]
 80064b0:	68db      	ldr	r3, [r3, #12]
 80064b2:	2b00      	cmp	r3, #0
 80064b4:	d10c      	bne.n	80064d0 <HAL_RCC_OscConfig+0x334>
 80064b6:	4b76      	ldr	r3, [pc, #472]	; (8006690 <HAL_RCC_OscConfig+0x4f4>)
 80064b8:	6a1b      	ldr	r3, [r3, #32]
 80064ba:	4a75      	ldr	r2, [pc, #468]	; (8006690 <HAL_RCC_OscConfig+0x4f4>)
 80064bc:	f023 0301 	bic.w	r3, r3, #1
 80064c0:	6213      	str	r3, [r2, #32]
 80064c2:	4b73      	ldr	r3, [pc, #460]	; (8006690 <HAL_RCC_OscConfig+0x4f4>)
 80064c4:	6a1b      	ldr	r3, [r3, #32]
 80064c6:	4a72      	ldr	r2, [pc, #456]	; (8006690 <HAL_RCC_OscConfig+0x4f4>)
 80064c8:	f023 0304 	bic.w	r3, r3, #4
 80064cc:	6213      	str	r3, [r2, #32]
 80064ce:	e01c      	b.n	800650a <HAL_RCC_OscConfig+0x36e>
 80064d0:	687b      	ldr	r3, [r7, #4]
 80064d2:	68db      	ldr	r3, [r3, #12]
 80064d4:	2b05      	cmp	r3, #5
 80064d6:	d10c      	bne.n	80064f2 <HAL_RCC_OscConfig+0x356>
 80064d8:	4b6d      	ldr	r3, [pc, #436]	; (8006690 <HAL_RCC_OscConfig+0x4f4>)
 80064da:	6a1b      	ldr	r3, [r3, #32]
 80064dc:	4a6c      	ldr	r2, [pc, #432]	; (8006690 <HAL_RCC_OscConfig+0x4f4>)
 80064de:	f043 0304 	orr.w	r3, r3, #4
 80064e2:	6213      	str	r3, [r2, #32]
 80064e4:	4b6a      	ldr	r3, [pc, #424]	; (8006690 <HAL_RCC_OscConfig+0x4f4>)
 80064e6:	6a1b      	ldr	r3, [r3, #32]
 80064e8:	4a69      	ldr	r2, [pc, #420]	; (8006690 <HAL_RCC_OscConfig+0x4f4>)
 80064ea:	f043 0301 	orr.w	r3, r3, #1
 80064ee:	6213      	str	r3, [r2, #32]
 80064f0:	e00b      	b.n	800650a <HAL_RCC_OscConfig+0x36e>
 80064f2:	4b67      	ldr	r3, [pc, #412]	; (8006690 <HAL_RCC_OscConfig+0x4f4>)
 80064f4:	6a1b      	ldr	r3, [r3, #32]
 80064f6:	4a66      	ldr	r2, [pc, #408]	; (8006690 <HAL_RCC_OscConfig+0x4f4>)
 80064f8:	f023 0301 	bic.w	r3, r3, #1
 80064fc:	6213      	str	r3, [r2, #32]
 80064fe:	4b64      	ldr	r3, [pc, #400]	; (8006690 <HAL_RCC_OscConfig+0x4f4>)
 8006500:	6a1b      	ldr	r3, [r3, #32]
 8006502:	4a63      	ldr	r2, [pc, #396]	; (8006690 <HAL_RCC_OscConfig+0x4f4>)
 8006504:	f023 0304 	bic.w	r3, r3, #4
 8006508:	6213      	str	r3, [r2, #32]
    /* Check the LSE State */
    if (RCC_OscInitStruct->LSEState != RCC_LSE_OFF)
 800650a:	687b      	ldr	r3, [r7, #4]
 800650c:	68db      	ldr	r3, [r3, #12]
 800650e:	2b00      	cmp	r3, #0
 8006510:	d015      	beq.n	800653e <HAL_RCC_OscConfig+0x3a2>
    {
      /* Get Start Tick */
      tickstart = HAL_GetTick();
 8006512:	f7fe fb1b 	bl	8004b4c <HAL_GetTick>
 8006516:	6138      	str	r0, [r7, #16]

      /* Wait till LSE is ready */
      while (__HAL_RCC_GET_FLAG(RCC_FLAG_LSERDY) == RESET)
 8006518:	e00a      	b.n	8006530 <HAL_RCC_OscConfig+0x394>
      {
        if ((HAL_GetTick() - tickstart) > RCC_LSE_TIMEOUT_VALUE)
 800651a:	f7fe fb17 	bl	8004b4c <HAL_GetTick>
 800651e:	4602      	mov	r2, r0
 8006520:	693b      	ldr	r3, [r7, #16]
 8006522:	1ad3      	subs	r3, r2, r3
 8006524:	f241 3288 	movw	r2, #5000	; 0x1388
 8006528:	4293      	cmp	r3, r2
 800652a:	d901      	bls.n	8006530 <HAL_RCC_OscConfig+0x394>
        {
          return HAL_TIMEOUT;
 800652c:	2303      	movs	r3, #3
 800652e:	e0ab      	b.n	8006688 <HAL_RCC_OscConfig+0x4ec>
      while (__HAL_RCC_GET_FLAG(RCC_FLAG_LSERDY) == RESET)
 8006530:	4b57      	ldr	r3, [pc, #348]	; (8006690 <HAL_RCC_OscConfig+0x4f4>)
 8006532:	6a1b      	ldr	r3, [r3, #32]
 8006534:	f003 0302 	and.w	r3, r3, #2
 8006538:	2b00      	cmp	r3, #0
 800653a:	d0ee      	beq.n	800651a <HAL_RCC_OscConfig+0x37e>
 800653c:	e014      	b.n	8006568 <HAL_RCC_OscConfig+0x3cc>
      }
    }
    else
    {
      /* Get Start Tick */
      tickstart = HAL_GetTick();
 800653e:	f7fe fb05 	bl	8004b4c <HAL_GetTick>
 8006542:	6138      	str	r0, [r7, #16]

      /* Wait till LSE is disabled */
      while (__HAL_RCC_GET_FLAG(RCC_FLAG_LSERDY) != RESET)
 8006544:	e00a      	b.n	800655c <HAL_RCC_OscConfig+0x3c0>
      {
        if ((HAL_GetTick() - tickstart) > RCC_LSE_TIMEOUT_VALUE)
 8006546:	f7fe fb01 	bl	8004b4c <HAL_GetTick>
 800654a:	4602      	mov	r2, r0
 800654c:	693b      	ldr	r3, [r7, #16]
 800654e:	1ad3      	subs	r3, r2, r3
 8006550:	f241 3288 	movw	r2, #5000	; 0x1388
 8006554:	4293      	cmp	r3, r2
 8006556:	d901      	bls.n	800655c <HAL_RCC_OscConfig+0x3c0>
        {
          return HAL_TIMEOUT;
 8006558:	2303      	movs	r3, #3
 800655a:	e095      	b.n	8006688 <HAL_RCC_OscConfig+0x4ec>
      while (__HAL_RCC_GET_FLAG(RCC_FLAG_LSERDY) != RESET)
 800655c:	4b4c      	ldr	r3, [pc, #304]	; (8006690 <HAL_RCC_OscConfig+0x4f4>)
 800655e:	6a1b      	ldr	r3, [r3, #32]
 8006560:	f003 0302 	and.w	r3, r3, #2
 8006564:	2b00      	cmp	r3, #0
 8006566:	d1ee      	bne.n	8006546 <HAL_RCC_OscConfig+0x3aa>
        }
      }
    }

    /* Require to disable power clock if necessary */
    if (pwrclkchanged == SET)
 8006568:	7dfb      	ldrb	r3, [r7, #23]
 800656a:	2b01      	cmp	r3, #1
 800656c:	d105      	bne.n	800657a <HAL_RCC_OscConfig+0x3de>
    {
      __HAL_RCC_PWR_CLK_DISABLE();
 800656e:	4b48      	ldr	r3, [pc, #288]	; (8006690 <HAL_RCC_OscConfig+0x4f4>)
 8006570:	69db      	ldr	r3, [r3, #28]
 8006572:	4a47      	ldr	r2, [pc, #284]	; (8006690 <HAL_RCC_OscConfig+0x4f4>)
 8006574:	f023 5380 	bic.w	r3, r3, #268435456	; 0x10000000
 8006578:	61d3      	str	r3, [r2, #28]

#endif /* RCC_CR_PLL2ON */
  /*-------------------------------- PLL Configuration -----------------------*/
  /* Check the parameters */
  assert_param(IS_RCC_PLL(RCC_OscInitStruct->PLL.PLLState));
  if ((RCC_OscInitStruct->PLL.PLLState) != RCC_PLL_NONE)
 800657a:	687b      	ldr	r3, [r7, #4]
 800657c:	69db      	ldr	r3, [r3, #28]
 800657e:	2b00      	cmp	r3, #0
 8006580:	f000 8081 	beq.w	8006686 <HAL_RCC_OscConfig+0x4ea>
  {
    /* Check if the PLL is used as system clock or not */
    if (__HAL_RCC_GET_SYSCLK_SOURCE() != RCC_SYSCLKSOURCE_STATUS_PLLCLK)
 8006584:	4b42      	ldr	r3, [pc, #264]	; (8006690 <HAL_RCC_OscConfig+0x4f4>)
 8006586:	685b      	ldr	r3, [r3, #4]
 8006588:	f003 030c 	and.w	r3, r3, #12
 800658c:	2b08      	cmp	r3, #8
 800658e:	d061      	beq.n	8006654 <HAL_RCC_OscConfig+0x4b8>
    {
      if ((RCC_OscInitStruct->PLL.PLLState) == RCC_PLL_ON)
 8006590:	687b      	ldr	r3, [r7, #4]
 8006592:	69db      	ldr	r3, [r3, #28]
 8006594:	2b02      	cmp	r3, #2
 8006596:	d146      	bne.n	8006626 <HAL_RCC_OscConfig+0x48a>
        /* Check the parameters */
        assert_param(IS_RCC_PLLSOURCE(RCC_OscInitStruct->PLL.PLLSource));
        assert_param(IS_RCC_PLL_MUL(RCC_OscInitStruct->PLL.PLLMUL));

        /* Disable the main PLL. */
        __HAL_RCC_PLL_DISABLE();
 8006598:	4b3f      	ldr	r3, [pc, #252]	; (8006698 <HAL_RCC_OscConfig+0x4fc>)
 800659a:	2200      	movs	r2, #0
 800659c:	601a      	str	r2, [r3, #0]

        /* Get Start Tick */
        tickstart = HAL_GetTick();
 800659e:	f7fe fad5 	bl	8004b4c <HAL_GetTick>
 80065a2:	6138      	str	r0, [r7, #16]

        /* Wait till PLL is disabled */
        while (__HAL_RCC_GET_FLAG(RCC_FLAG_PLLRDY)  != RESET)
 80065a4:	e008      	b.n	80065b8 <HAL_RCC_OscConfig+0x41c>
        {
          if ((HAL_GetTick() - tickstart) > PLL_TIMEOUT_VALUE)
 80065a6:	f7fe fad1 	bl	8004b4c <HAL_GetTick>
 80065aa:	4602      	mov	r2, r0
 80065ac:	693b      	ldr	r3, [r7, #16]
 80065ae:	1ad3      	subs	r3, r2, r3
 80065b0:	2b02      	cmp	r3, #2
 80065b2:	d901      	bls.n	80065b8 <HAL_RCC_OscConfig+0x41c>
          {
            return HAL_TIMEOUT;
 80065b4:	2303      	movs	r3, #3
 80065b6:	e067      	b.n	8006688 <HAL_RCC_OscConfig+0x4ec>
        while (__HAL_RCC_GET_FLAG(RCC_FLAG_PLLRDY)  != RESET)
 80065b8:	4b35      	ldr	r3, [pc, #212]	; (8006690 <HAL_RCC_OscConfig+0x4f4>)
 80065ba:	681b      	ldr	r3, [r3, #0]
 80065bc:	f003 7300 	and.w	r3, r3, #33554432	; 0x2000000
 80065c0:	2b00      	cmp	r3, #0
 80065c2:	d1f0      	bne.n	80065a6 <HAL_RCC_OscConfig+0x40a>
          }
        }

        /* Configure the HSE prediv factor --------------------------------*/
        /* It can be written only when the PLL is disabled. Not used in PLL source is different than HSE */
        if (RCC_OscInitStruct->PLL.PLLSource == RCC_PLLSOURCE_HSE)
 80065c4:	687b      	ldr	r3, [r7, #4]
 80065c6:	6a1b      	ldr	r3, [r3, #32]
 80065c8:	f5b3 3f80 	cmp.w	r3, #65536	; 0x10000
 80065cc:	d108      	bne.n	80065e0 <HAL_RCC_OscConfig+0x444>
          /* Set PREDIV1 source */
          SET_BIT(RCC->CFGR2, RCC_OscInitStruct->Prediv1Source);
#endif /* RCC_CFGR2_PREDIV1SRC */

          /* Set PREDIV1 Value */
          __HAL_RCC_HSE_PREDIV_CONFIG(RCC_OscInitStruct->HSEPredivValue);
 80065ce:	4b30      	ldr	r3, [pc, #192]	; (8006690 <HAL_RCC_OscConfig+0x4f4>)
 80065d0:	685b      	ldr	r3, [r3, #4]
 80065d2:	f423 3200 	bic.w	r2, r3, #131072	; 0x20000
 80065d6:	687b      	ldr	r3, [r7, #4]
 80065d8:	689b      	ldr	r3, [r3, #8]
 80065da:	492d      	ldr	r1, [pc, #180]	; (8006690 <HAL_RCC_OscConfig+0x4f4>)
 80065dc:	4313      	orrs	r3, r2
 80065de:	604b      	str	r3, [r1, #4]
        }

        /* Configure the main PLL clock source and multiplication factors. */
        __HAL_RCC_PLL_CONFIG(RCC_OscInitStruct->PLL.PLLSource,
 80065e0:	4b2b      	ldr	r3, [pc, #172]	; (8006690 <HAL_RCC_OscConfig+0x4f4>)
 80065e2:	685b      	ldr	r3, [r3, #4]
 80065e4:	f423 1274 	bic.w	r2, r3, #3997696	; 0x3d0000
 80065e8:	687b      	ldr	r3, [r7, #4]
 80065ea:	6a19      	ldr	r1, [r3, #32]
 80065ec:	687b      	ldr	r3, [r7, #4]
 80065ee:	6a5b      	ldr	r3, [r3, #36]	; 0x24
 80065f0:	430b      	orrs	r3, r1
 80065f2:	4927      	ldr	r1, [pc, #156]	; (8006690 <HAL_RCC_OscConfig+0x4f4>)
 80065f4:	4313      	orrs	r3, r2
 80065f6:	604b      	str	r3, [r1, #4]
                             RCC_OscInitStruct->PLL.PLLMUL);
        /* Enable the main PLL. */
        __HAL_RCC_PLL_ENABLE();
 80065f8:	4b27      	ldr	r3, [pc, #156]	; (8006698 <HAL_RCC_OscConfig+0x4fc>)
 80065fa:	2201      	movs	r2, #1
 80065fc:	601a      	str	r2, [r3, #0]

        /* Get Start Tick */
        tickstart = HAL_GetTick();
 80065fe:	f7fe faa5 	bl	8004b4c <HAL_GetTick>
 8006602:	6138      	str	r0, [r7, #16]

        /* Wait till PLL is ready */
        while (__HAL_RCC_GET_FLAG(RCC_FLAG_PLLRDY)  == RESET)
 8006604:	e008      	b.n	8006618 <HAL_RCC_OscConfig+0x47c>
        {
          if ((HAL_GetTick() - tickstart) > PLL_TIMEOUT_VALUE)
 8006606:	f7fe faa1 	bl	8004b4c <HAL_GetTick>
 800660a:	4602      	mov	r2, r0
 800660c:	693b      	ldr	r3, [r7, #16]
 800660e:	1ad3      	subs	r3, r2, r3
 8006610:	2b02      	cmp	r3, #2
 8006612:	d901      	bls.n	8006618 <HAL_RCC_OscConfig+0x47c>
          {
            return HAL_TIMEOUT;
 8006614:	2303      	movs	r3, #3
 8006616:	e037      	b.n	8006688 <HAL_RCC_OscConfig+0x4ec>
        while (__HAL_RCC_GET_FLAG(RCC_FLAG_PLLRDY)  == RESET)
 8006618:	4b1d      	ldr	r3, [pc, #116]	; (8006690 <HAL_RCC_OscConfig+0x4f4>)
 800661a:	681b      	ldr	r3, [r3, #0]
 800661c:	f003 7300 	and.w	r3, r3, #33554432	; 0x2000000
 8006620:	2b00      	cmp	r3, #0
 8006622:	d0f0      	beq.n	8006606 <HAL_RCC_OscConfig+0x46a>
 8006624:	e02f      	b.n	8006686 <HAL_RCC_OscConfig+0x4ea>
        }
      }
      else
      {
        /* Disable the main PLL. */
        __HAL_RCC_PLL_DISABLE();
 8006626:	4b1c      	ldr	r3, [pc, #112]	; (8006698 <HAL_RCC_OscConfig+0x4fc>)
 8006628:	2200      	movs	r2, #0
 800662a:	601a      	str	r2, [r3, #0]

        /* Get Start Tick */
        tickstart = HAL_GetTick();
 800662c:	f7fe fa8e 	bl	8004b4c <HAL_GetTick>
 8006630:	6138      	str	r0, [r7, #16]

        /* Wait till PLL is disabled */
        while (__HAL_RCC_GET_FLAG(RCC_FLAG_PLLRDY)  != RESET)
 8006632:	e008      	b.n	8006646 <HAL_RCC_OscConfig+0x4aa>
        {
          if ((HAL_GetTick() - tickstart) > PLL_TIMEOUT_VALUE)
 8006634:	f7fe fa8a 	bl	8004b4c <HAL_GetTick>
 8006638:	4602      	mov	r2, r0
 800663a:	693b      	ldr	r3, [r7, #16]
 800663c:	1ad3      	subs	r3, r2, r3
 800663e:	2b02      	cmp	r3, #2
 8006640:	d901      	bls.n	8006646 <HAL_RCC_OscConfig+0x4aa>
          {
            return HAL_TIMEOUT;
 8006642:	2303      	movs	r3, #3
 8006644:	e020      	b.n	8006688 <HAL_RCC_OscConfig+0x4ec>
        while (__HAL_RCC_GET_FLAG(RCC_FLAG_PLLRDY)  != RESET)
 8006646:	4b12      	ldr	r3, [pc, #72]	; (8006690 <HAL_RCC_OscConfig+0x4f4>)
 8006648:	681b      	ldr	r3, [r3, #0]
 800664a:	f003 7300 	and.w	r3, r3, #33554432	; 0x2000000
 800664e:	2b00      	cmp	r3, #0
 8006650:	d1f0      	bne.n	8006634 <HAL_RCC_OscConfig+0x498>
 8006652:	e018      	b.n	8006686 <HAL_RCC_OscConfig+0x4ea>
      }
    }
    else
    {
      /* Check if there is a request to disable the PLL used as System clock source */
      if ((RCC_OscInitStruct->PLL.PLLState) == RCC_PLL_OFF)
 8006654:	687b      	ldr	r3, [r7, #4]
 8006656:	69db      	ldr	r3, [r3, #28]
 8006658:	2b01      	cmp	r3, #1
 800665a:	d101      	bne.n	8006660 <HAL_RCC_OscConfig+0x4c4>
      {
        return HAL_ERROR;
 800665c:	2301      	movs	r3, #1
 800665e:	e013      	b.n	8006688 <HAL_RCC_OscConfig+0x4ec>
      }
      else
      {
        /* Do not return HAL_ERROR if request repeats the current configuration */
        pll_config = RCC->CFGR;
 8006660:	4b0b      	ldr	r3, [pc, #44]	; (8006690 <HAL_RCC_OscConfig+0x4f4>)
 8006662:	685b      	ldr	r3, [r3, #4]
 8006664:	60fb      	str	r3, [r7, #12]
        if ((READ_BIT(pll_config, RCC_CFGR_PLLSRC) != RCC_OscInitStruct->PLL.PLLSource) ||
 8006666:	68fb      	ldr	r3, [r7, #12]
 8006668:	f403 3280 	and.w	r2, r3, #65536	; 0x10000
 800666c:	687b      	ldr	r3, [r7, #4]
 800666e:	6a1b      	ldr	r3, [r3, #32]
 8006670:	429a      	cmp	r2, r3
 8006672:	d106      	bne.n	8006682 <HAL_RCC_OscConfig+0x4e6>
            (READ_BIT(pll_config, RCC_CFGR_PLLMULL) != RCC_OscInitStruct->PLL.PLLMUL))
 8006674:	68fb      	ldr	r3, [r7, #12]
 8006676:	f403 1270 	and.w	r2, r3, #3932160	; 0x3c0000
 800667a:	687b      	ldr	r3, [r7, #4]
 800667c:	6a5b      	ldr	r3, [r3, #36]	; 0x24
        if ((READ_BIT(pll_config, RCC_CFGR_PLLSRC) != RCC_OscInitStruct->PLL.PLLSource) ||
 800667e:	429a      	cmp	r2, r3
 8006680:	d001      	beq.n	8006686 <HAL_RCC_OscConfig+0x4ea>
        {
          return HAL_ERROR;
 8006682:	2301      	movs	r3, #1
 8006684:	e000      	b.n	8006688 <HAL_RCC_OscConfig+0x4ec>
        }
      }
    }
  }

  return HAL_OK;
 8006686:	2300      	movs	r3, #0
}
 8006688:	4618      	mov	r0, r3
 800668a:	3718      	adds	r7, #24
 800668c:	46bd      	mov	sp, r7
 800668e:	bd80      	pop	{r7, pc}
 8006690:	40021000 	.word	0x40021000
 8006694:	40007000 	.word	0x40007000
 8006698:	42420060 	.word	0x42420060

0800669c <HAL_RCC_ClockConfig>:
  *         You can use @ref HAL_RCC_GetClockConfig() function to know which clock is
  *         currently used as system clock source.
  * @retval HAL status
  */
HAL_StatusTypeDef HAL_RCC_ClockConfig(RCC_ClkInitTypeDef  *RCC_ClkInitStruct, uint32_t FLatency)
{
 800669c:	b580      	push	{r7, lr}
 800669e:	b084      	sub	sp, #16
 80066a0:	af00      	add	r7, sp, #0
 80066a2:	6078      	str	r0, [r7, #4]
 80066a4:	6039      	str	r1, [r7, #0]
  uint32_t tickstart;

  /* Check Null pointer */
  if (RCC_ClkInitStruct == NULL)
 80066a6:	687b      	ldr	r3, [r7, #4]
 80066a8:	2b00      	cmp	r3, #0
 80066aa:	d101      	bne.n	80066b0 <HAL_RCC_ClockConfig+0x14>
  {
    return HAL_ERROR;
 80066ac:	2301      	movs	r3, #1
 80066ae:	e0d0      	b.n	8006852 <HAL_RCC_ClockConfig+0x1b6>
  must be correctly programmed according to the frequency of the CPU clock
    (HCLK) of the device. */

#if defined(FLASH_ACR_LATENCY)
  /* Increasing the number of wait states because of higher CPU frequency */
  if (FLatency > __HAL_FLASH_GET_LATENCY())
 80066b0:	4b6a      	ldr	r3, [pc, #424]	; (800685c <HAL_RCC_ClockConfig+0x1c0>)
 80066b2:	681b      	ldr	r3, [r3, #0]
 80066b4:	f003 0307 	and.w	r3, r3, #7
 80066b8:	683a      	ldr	r2, [r7, #0]
 80066ba:	429a      	cmp	r2, r3
 80066bc:	d910      	bls.n	80066e0 <HAL_RCC_ClockConfig+0x44>
  {
    /* Program the new number of wait states to the LATENCY bits in the FLASH_ACR register */
    __HAL_FLASH_SET_LATENCY(FLatency);
 80066be:	4b67      	ldr	r3, [pc, #412]	; (800685c <HAL_RCC_ClockConfig+0x1c0>)
 80066c0:	681b      	ldr	r3, [r3, #0]
 80066c2:	f023 0207 	bic.w	r2, r3, #7
 80066c6:	4965      	ldr	r1, [pc, #404]	; (800685c <HAL_RCC_ClockConfig+0x1c0>)
 80066c8:	683b      	ldr	r3, [r7, #0]
 80066ca:	4313      	orrs	r3, r2
 80066cc:	600b      	str	r3, [r1, #0]

    /* Check that the new number of wait states is taken into account to access the Flash
    memory by reading the FLASH_ACR register */
    if (__HAL_FLASH_GET_LATENCY() != FLatency)
 80066ce:	4b63      	ldr	r3, [pc, #396]	; (800685c <HAL_RCC_ClockConfig+0x1c0>)
 80066d0:	681b      	ldr	r3, [r3, #0]
 80066d2:	f003 0307 	and.w	r3, r3, #7
 80066d6:	683a      	ldr	r2, [r7, #0]
 80066d8:	429a      	cmp	r2, r3
 80066da:	d001      	beq.n	80066e0 <HAL_RCC_ClockConfig+0x44>
  {
    return HAL_ERROR;
 80066dc:	2301      	movs	r3, #1
 80066de:	e0b8      	b.n	8006852 <HAL_RCC_ClockConfig+0x1b6>
  }
}

#endif /* FLASH_ACR_LATENCY */
/*-------------------------- HCLK Configuration --------------------------*/
if (((RCC_ClkInitStruct->ClockType) & RCC_CLOCKTYPE_HCLK) == RCC_CLOCKTYPE_HCLK)
 80066e0:	687b      	ldr	r3, [r7, #4]
 80066e2:	681b      	ldr	r3, [r3, #0]
 80066e4:	f003 0302 	and.w	r3, r3, #2
 80066e8:	2b00      	cmp	r3, #0
 80066ea:	d020      	beq.n	800672e <HAL_RCC_ClockConfig+0x92>
  {
    /* Set the highest APBx dividers in order to ensure that we do not go through
    a non-spec phase whatever we decrease or increase HCLK. */
    if (((RCC_ClkInitStruct->ClockType) & RCC_CLOCKTYPE_PCLK1) == RCC_CLOCKTYPE_PCLK1)
 80066ec:	687b      	ldr	r3, [r7, #4]
 80066ee:	681b      	ldr	r3, [r3, #0]
 80066f0:	f003 0304 	and.w	r3, r3, #4
 80066f4:	2b00      	cmp	r3, #0
 80066f6:	d005      	beq.n	8006704 <HAL_RCC_ClockConfig+0x68>
    {
      MODIFY_REG(RCC->CFGR, RCC_CFGR_PPRE1, RCC_HCLK_DIV16);
 80066f8:	4b59      	ldr	r3, [pc, #356]	; (8006860 <HAL_RCC_ClockConfig+0x1c4>)
 80066fa:	685b      	ldr	r3, [r3, #4]
 80066fc:	4a58      	ldr	r2, [pc, #352]	; (8006860 <HAL_RCC_ClockConfig+0x1c4>)
 80066fe:	f443 63e0 	orr.w	r3, r3, #1792	; 0x700
 8006702:	6053      	str	r3, [r2, #4]
    }

    if (((RCC_ClkInitStruct->ClockType) & RCC_CLOCKTYPE_PCLK2) == RCC_CLOCKTYPE_PCLK2)
 8006704:	687b      	ldr	r3, [r7, #4]
 8006706:	681b      	ldr	r3, [r3, #0]
 8006708:	f003 0308 	and.w	r3, r3, #8
 800670c:	2b00      	cmp	r3, #0
 800670e:	d005      	beq.n	800671c <HAL_RCC_ClockConfig+0x80>
    {
      MODIFY_REG(RCC->CFGR, RCC_CFGR_PPRE2, (RCC_HCLK_DIV16 << 3));
 8006710:	4b53      	ldr	r3, [pc, #332]	; (8006860 <HAL_RCC_ClockConfig+0x1c4>)
 8006712:	685b      	ldr	r3, [r3, #4]
 8006714:	4a52      	ldr	r2, [pc, #328]	; (8006860 <HAL_RCC_ClockConfig+0x1c4>)
 8006716:	f443 5360 	orr.w	r3, r3, #14336	; 0x3800
 800671a:	6053      	str	r3, [r2, #4]
    }

    /* Set the new HCLK clock divider */
    assert_param(IS_RCC_HCLK(RCC_ClkInitStruct->AHBCLKDivider));
    MODIFY_REG(RCC->CFGR, RCC_CFGR_HPRE, RCC_ClkInitStruct->AHBCLKDivider);
 800671c:	4b50      	ldr	r3, [pc, #320]	; (8006860 <HAL_RCC_ClockConfig+0x1c4>)
 800671e:	685b      	ldr	r3, [r3, #4]
 8006720:	f023 02f0 	bic.w	r2, r3, #240	; 0xf0
 8006724:	687b      	ldr	r3, [r7, #4]
 8006726:	689b      	ldr	r3, [r3, #8]
 8006728:	494d      	ldr	r1, [pc, #308]	; (8006860 <HAL_RCC_ClockConfig+0x1c4>)
 800672a:	4313      	orrs	r3, r2
 800672c:	604b      	str	r3, [r1, #4]
  }

  /*------------------------- SYSCLK Configuration ---------------------------*/
  if (((RCC_ClkInitStruct->ClockType) & RCC_CLOCKTYPE_SYSCLK) == RCC_CLOCKTYPE_SYSCLK)
 800672e:	687b      	ldr	r3, [r7, #4]
 8006730:	681b      	ldr	r3, [r3, #0]
 8006732:	f003 0301 	and.w	r3, r3, #1
 8006736:	2b00      	cmp	r3, #0
 8006738:	d040      	beq.n	80067bc <HAL_RCC_ClockConfig+0x120>
  {
    assert_param(IS_RCC_SYSCLKSOURCE(RCC_ClkInitStruct->SYSCLKSource));

    /* HSE is selected as System Clock Source */
    if (RCC_ClkInitStruct->SYSCLKSource == RCC_SYSCLKSOURCE_HSE)
 800673a:	687b      	ldr	r3, [r7, #4]
 800673c:	685b      	ldr	r3, [r3, #4]
 800673e:	2b01      	cmp	r3, #1
 8006740:	d107      	bne.n	8006752 <HAL_RCC_ClockConfig+0xb6>
    {
      /* Check the HSE ready flag */
      if (__HAL_RCC_GET_FLAG(RCC_FLAG_HSERDY) == RESET)
 8006742:	4b47      	ldr	r3, [pc, #284]	; (8006860 <HAL_RCC_ClockConfig+0x1c4>)
 8006744:	681b      	ldr	r3, [r3, #0]
 8006746:	f403 3300 	and.w	r3, r3, #131072	; 0x20000
 800674a:	2b00      	cmp	r3, #0
 800674c:	d115      	bne.n	800677a <HAL_RCC_ClockConfig+0xde>
      {
        return HAL_ERROR;
 800674e:	2301      	movs	r3, #1
 8006750:	e07f      	b.n	8006852 <HAL_RCC_ClockConfig+0x1b6>
      }
    }
    /* PLL is selected as System Clock Source */
    else if (RCC_ClkInitStruct->SYSCLKSource == RCC_SYSCLKSOURCE_PLLCLK)
 8006752:	687b      	ldr	r3, [r7, #4]
 8006754:	685b      	ldr	r3, [r3, #4]
 8006756:	2b02      	cmp	r3, #2
 8006758:	d107      	bne.n	800676a <HAL_RCC_ClockConfig+0xce>
    {
      /* Check the PLL ready flag */
      if (__HAL_RCC_GET_FLAG(RCC_FLAG_PLLRDY) == RESET)
 800675a:	4b41      	ldr	r3, [pc, #260]	; (8006860 <HAL_RCC_ClockConfig+0x1c4>)
 800675c:	681b      	ldr	r3, [r3, #0]
 800675e:	f003 7300 	and.w	r3, r3, #33554432	; 0x2000000
 8006762:	2b00      	cmp	r3, #0
 8006764:	d109      	bne.n	800677a <HAL_RCC_ClockConfig+0xde>
      {
        return HAL_ERROR;
 8006766:	2301      	movs	r3, #1
 8006768:	e073      	b.n	8006852 <HAL_RCC_ClockConfig+0x1b6>
    }
    /* HSI is selected as System Clock Source */
    else
    {
      /* Check the HSI ready flag */
      if (__HAL_RCC_GET_FLAG(RCC_FLAG_HSIRDY) == RESET)
 800676a:	4b3d      	ldr	r3, [pc, #244]	; (8006860 <HAL_RCC_ClockConfig+0x1c4>)
 800676c:	681b      	ldr	r3, [r3, #0]
 800676e:	f003 0302 	and.w	r3, r3, #2
 8006772:	2b00      	cmp	r3, #0
 8006774:	d101      	bne.n	800677a <HAL_RCC_ClockConfig+0xde>
      {
        return HAL_ERROR;
 8006776:	2301      	movs	r3, #1
 8006778:	e06b      	b.n	8006852 <HAL_RCC_ClockConfig+0x1b6>
      }
    }
    __HAL_RCC_SYSCLK_CONFIG(RCC_ClkInitStruct->SYSCLKSource);
 800677a:	4b39      	ldr	r3, [pc, #228]	; (8006860 <HAL_RCC_ClockConfig+0x1c4>)
 800677c:	685b      	ldr	r3, [r3, #4]
 800677e:	f023 0203 	bic.w	r2, r3, #3
 8006782:	687b      	ldr	r3, [r7, #4]
 8006784:	685b      	ldr	r3, [r3, #4]
 8006786:	4936      	ldr	r1, [pc, #216]	; (8006860 <HAL_RCC_ClockConfig+0x1c4>)
 8006788:	4313      	orrs	r3, r2
 800678a:	604b      	str	r3, [r1, #4]

    /* Get Start Tick */
    tickstart = HAL_GetTick();
 800678c:	f7fe f9de 	bl	8004b4c <HAL_GetTick>
 8006790:	60f8      	str	r0, [r7, #12]

    while (__HAL_RCC_GET_SYSCLK_SOURCE() != (RCC_ClkInitStruct->SYSCLKSource << RCC_CFGR_SWS_Pos))
 8006792:	e00a      	b.n	80067aa <HAL_RCC_ClockConfig+0x10e>
    {
      if ((HAL_GetTick() - tickstart) > CLOCKSWITCH_TIMEOUT_VALUE)
 8006794:	f7fe f9da 	bl	8004b4c <HAL_GetTick>
 8006798:	4602      	mov	r2, r0
 800679a:	68fb      	ldr	r3, [r7, #12]
 800679c:	1ad3      	subs	r3, r2, r3
 800679e:	f241 3288 	movw	r2, #5000	; 0x1388
 80067a2:	4293      	cmp	r3, r2
 80067a4:	d901      	bls.n	80067aa <HAL_RCC_ClockConfig+0x10e>
      {
        return HAL_TIMEOUT;
 80067a6:	2303      	movs	r3, #3
 80067a8:	e053      	b.n	8006852 <HAL_RCC_ClockConfig+0x1b6>
    while (__HAL_RCC_GET_SYSCLK_SOURCE() != (RCC_ClkInitStruct->SYSCLKSource << RCC_CFGR_SWS_Pos))
 80067aa:	4b2d      	ldr	r3, [pc, #180]	; (8006860 <HAL_RCC_ClockConfig+0x1c4>)
 80067ac:	685b      	ldr	r3, [r3, #4]
 80067ae:	f003 020c 	and.w	r2, r3, #12
 80067b2:	687b      	ldr	r3, [r7, #4]
 80067b4:	685b      	ldr	r3, [r3, #4]
 80067b6:	009b      	lsls	r3, r3, #2
 80067b8:	429a      	cmp	r2, r3
 80067ba:	d1eb      	bne.n	8006794 <HAL_RCC_ClockConfig+0xf8>
    }
  }

#if defined(FLASH_ACR_LATENCY)
  /* Decreasing the number of wait states because of lower CPU frequency */
  if (FLatency < __HAL_FLASH_GET_LATENCY())
 80067bc:	4b27      	ldr	r3, [pc, #156]	; (800685c <HAL_RCC_ClockConfig+0x1c0>)
 80067be:	681b      	ldr	r3, [r3, #0]
 80067c0:	f003 0307 	and.w	r3, r3, #7
 80067c4:	683a      	ldr	r2, [r7, #0]
 80067c6:	429a      	cmp	r2, r3
 80067c8:	d210      	bcs.n	80067ec <HAL_RCC_ClockConfig+0x150>
  {
    /* Program the new number of wait states to the LATENCY bits in the FLASH_ACR register */
    __HAL_FLASH_SET_LATENCY(FLatency);
 80067ca:	4b24      	ldr	r3, [pc, #144]	; (800685c <HAL_RCC_ClockConfig+0x1c0>)
 80067cc:	681b      	ldr	r3, [r3, #0]
 80067ce:	f023 0207 	bic.w	r2, r3, #7
 80067d2:	4922      	ldr	r1, [pc, #136]	; (800685c <HAL_RCC_ClockConfig+0x1c0>)
 80067d4:	683b      	ldr	r3, [r7, #0]
 80067d6:	4313      	orrs	r3, r2
 80067d8:	600b      	str	r3, [r1, #0]

    /* Check that the new number of wait states is taken into account to access the Flash
    memory by reading the FLASH_ACR register */
    if (__HAL_FLASH_GET_LATENCY() != FLatency)
 80067da:	4b20      	ldr	r3, [pc, #128]	; (800685c <HAL_RCC_ClockConfig+0x1c0>)
 80067dc:	681b      	ldr	r3, [r3, #0]
 80067de:	f003 0307 	and.w	r3, r3, #7
 80067e2:	683a      	ldr	r2, [r7, #0]
 80067e4:	429a      	cmp	r2, r3
 80067e6:	d001      	beq.n	80067ec <HAL_RCC_ClockConfig+0x150>
  {
    return HAL_ERROR;
 80067e8:	2301      	movs	r3, #1
 80067ea:	e032      	b.n	8006852 <HAL_RCC_ClockConfig+0x1b6>
  }
}
#endif /* FLASH_ACR_LATENCY */

/*-------------------------- PCLK1 Configuration ---------------------------*/
if (((RCC_ClkInitStruct->ClockType) & RCC_CLOCKTYPE_PCLK1) == RCC_CLOCKTYPE_PCLK1)
 80067ec:	687b      	ldr	r3, [r7, #4]
 80067ee:	681b      	ldr	r3, [r3, #0]
 80067f0:	f003 0304 	and.w	r3, r3, #4
 80067f4:	2b00      	cmp	r3, #0
 80067f6:	d008      	beq.n	800680a <HAL_RCC_ClockConfig+0x16e>
  {
    assert_param(IS_RCC_PCLK(RCC_ClkInitStruct->APB1CLKDivider));
    MODIFY_REG(RCC->CFGR, RCC_CFGR_PPRE1, RCC_ClkInitStruct->APB1CLKDivider);
 80067f8:	4b19      	ldr	r3, [pc, #100]	; (8006860 <HAL_RCC_ClockConfig+0x1c4>)
 80067fa:	685b      	ldr	r3, [r3, #4]
 80067fc:	f423 62e0 	bic.w	r2, r3, #1792	; 0x700
 8006800:	687b      	ldr	r3, [r7, #4]
 8006802:	68db      	ldr	r3, [r3, #12]
 8006804:	4916      	ldr	r1, [pc, #88]	; (8006860 <HAL_RCC_ClockConfig+0x1c4>)
 8006806:	4313      	orrs	r3, r2
 8006808:	604b      	str	r3, [r1, #4]
  }

  /*-------------------------- PCLK2 Configuration ---------------------------*/
  if (((RCC_ClkInitStruct->ClockType) & RCC_CLOCKTYPE_PCLK2) == RCC_CLOCKTYPE_PCLK2)
 800680a:	687b      	ldr	r3, [r7, #4]
 800680c:	681b      	ldr	r3, [r3, #0]
 800680e:	f003 0308 	and.w	r3, r3, #8
 8006812:	2b00      	cmp	r3, #0
 8006814:	d009      	beq.n	800682a <HAL_RCC_ClockConfig+0x18e>
  {
    assert_param(IS_RCC_PCLK(RCC_ClkInitStruct->APB2CLKDivider));
    MODIFY_REG(RCC->CFGR, RCC_CFGR_PPRE2, ((RCC_ClkInitStruct->APB2CLKDivider) << 3));
 8006816:	4b12      	ldr	r3, [pc, #72]	; (8006860 <HAL_RCC_ClockConfig+0x1c4>)
 8006818:	685b      	ldr	r3, [r3, #4]
 800681a:	f423 5260 	bic.w	r2, r3, #14336	; 0x3800
 800681e:	687b      	ldr	r3, [r7, #4]
 8006820:	691b      	ldr	r3, [r3, #16]
 8006822:	00db      	lsls	r3, r3, #3
 8006824:	490e      	ldr	r1, [pc, #56]	; (8006860 <HAL_RCC_ClockConfig+0x1c4>)
 8006826:	4313      	orrs	r3, r2
 8006828:	604b      	str	r3, [r1, #4]
  }

  /* Update the SystemCoreClock global variable */
  SystemCoreClock = HAL_RCC_GetSysClockFreq() >> AHBPrescTable[(RCC->CFGR & RCC_CFGR_HPRE) >> RCC_CFGR_HPRE_Pos];
 800682a:	f000 f821 	bl	8006870 <HAL_RCC_GetSysClockFreq>
 800682e:	4601      	mov	r1, r0
 8006830:	4b0b      	ldr	r3, [pc, #44]	; (8006860 <HAL_RCC_ClockConfig+0x1c4>)
 8006832:	685b      	ldr	r3, [r3, #4]
 8006834:	091b      	lsrs	r3, r3, #4
 8006836:	f003 030f 	and.w	r3, r3, #15
 800683a:	4a0a      	ldr	r2, [pc, #40]	; (8006864 <HAL_RCC_ClockConfig+0x1c8>)
 800683c:	5cd3      	ldrb	r3, [r2, r3]
 800683e:	fa21 f303 	lsr.w	r3, r1, r3
 8006842:	4a09      	ldr	r2, [pc, #36]	; (8006868 <HAL_RCC_ClockConfig+0x1cc>)
 8006844:	6013      	str	r3, [r2, #0]

  /* Configure the source of time base considering new system clocks settings*/
  HAL_InitTick(uwTickPrio);
 8006846:	4b09      	ldr	r3, [pc, #36]	; (800686c <HAL_RCC_ClockConfig+0x1d0>)
 8006848:	681b      	ldr	r3, [r3, #0]
 800684a:	4618      	mov	r0, r3
 800684c:	f7fe f93c 	bl	8004ac8 <HAL_InitTick>

  return HAL_OK;
 8006850:	2300      	movs	r3, #0
}
 8006852:	4618      	mov	r0, r3
 8006854:	3710      	adds	r7, #16
 8006856:	46bd      	mov	sp, r7
 8006858:	bd80      	pop	{r7, pc}
 800685a:	bf00      	nop
 800685c:	40022000 	.word	0x40022000
 8006860:	40021000 	.word	0x40021000
 8006864:	08008b54 	.word	0x08008b54
 8006868:	200000ac 	.word	0x200000ac
 800686c:	200000b0 	.word	0x200000b0

08006870 <HAL_RCC_GetSysClockFreq>:
  *         right SYSCLK value. Otherwise, any configuration based on this function will be incorrect.
  *
  * @retval SYSCLK frequency
  */
uint32_t HAL_RCC_GetSysClockFreq(void)
{
 8006870:	b490      	push	{r4, r7}
 8006872:	b08a      	sub	sp, #40	; 0x28
 8006874:	af00      	add	r7, sp, #0
#if defined(RCC_CFGR2_PREDIV1SRC)
  const uint8_t aPLLMULFactorTable[14] = {0, 0, 4, 5, 6, 7, 8, 9, 0, 0, 0, 0, 0, 13};
  const uint8_t aPredivFactorTable[16] = {1, 2, 3, 4, 5, 6, 7, 8, 9, 10, 11, 12, 13, 14, 15, 16};
#else
  const uint8_t aPLLMULFactorTable[16] = {2, 3, 4, 5, 6, 7, 8, 9, 10, 11, 12, 13, 14, 15, 16, 16};
 8006876:	4b2a      	ldr	r3, [pc, #168]	; (8006920 <HAL_RCC_GetSysClockFreq+0xb0>)
 8006878:	1d3c      	adds	r4, r7, #4
 800687a:	cb0f      	ldmia	r3, {r0, r1, r2, r3}
 800687c:	e884 000f 	stmia.w	r4, {r0, r1, r2, r3}
#if defined(RCC_CFGR2_PREDIV1)
  const uint8_t aPredivFactorTable[16] = {1, 2, 3, 4, 5, 6, 7, 8, 9, 10, 11, 12, 13, 14, 15, 16};
#else
  const uint8_t aPredivFactorTable[2] = {1, 2};
 8006880:	4b28      	ldr	r3, [pc, #160]	; (8006924 <HAL_RCC_GetSysClockFreq+0xb4>)
 8006882:	881b      	ldrh	r3, [r3, #0]
 8006884:	803b      	strh	r3, [r7, #0]
#endif /*RCC_CFGR2_PREDIV1*/

#endif
  uint32_t tmpreg = 0U, prediv = 0U, pllclk = 0U, pllmul = 0U;
 8006886:	2300      	movs	r3, #0
 8006888:	61fb      	str	r3, [r7, #28]
 800688a:	2300      	movs	r3, #0
 800688c:	61bb      	str	r3, [r7, #24]
 800688e:	2300      	movs	r3, #0
 8006890:	627b      	str	r3, [r7, #36]	; 0x24
 8006892:	2300      	movs	r3, #0
 8006894:	617b      	str	r3, [r7, #20]
  uint32_t sysclockfreq = 0U;
 8006896:	2300      	movs	r3, #0
 8006898:	623b      	str	r3, [r7, #32]
#if defined(RCC_CFGR2_PREDIV1SRC)
  uint32_t prediv2 = 0U, pll2mul = 0U;
#endif /*RCC_CFGR2_PREDIV1SRC*/

  tmpreg = RCC->CFGR;
 800689a:	4b23      	ldr	r3, [pc, #140]	; (8006928 <HAL_RCC_GetSysClockFreq+0xb8>)
 800689c:	685b      	ldr	r3, [r3, #4]
 800689e:	61fb      	str	r3, [r7, #28]

  /* Get SYSCLK source -------------------------------------------------------*/
  switch (tmpreg & RCC_CFGR_SWS)
 80068a0:	69fb      	ldr	r3, [r7, #28]
 80068a2:	f003 030c 	and.w	r3, r3, #12
 80068a6:	2b04      	cmp	r3, #4
 80068a8:	d002      	beq.n	80068b0 <HAL_RCC_GetSysClockFreq+0x40>
 80068aa:	2b08      	cmp	r3, #8
 80068ac:	d003      	beq.n	80068b6 <HAL_RCC_GetSysClockFreq+0x46>
 80068ae:	e02d      	b.n	800690c <HAL_RCC_GetSysClockFreq+0x9c>
  {
    case RCC_SYSCLKSOURCE_STATUS_HSE:  /* HSE used as system clock */
    {
      sysclockfreq = HSE_VALUE;
 80068b0:	4b1e      	ldr	r3, [pc, #120]	; (800692c <HAL_RCC_GetSysClockFreq+0xbc>)
 80068b2:	623b      	str	r3, [r7, #32]
      break;
 80068b4:	e02d      	b.n	8006912 <HAL_RCC_GetSysClockFreq+0xa2>
    }
    case RCC_SYSCLKSOURCE_STATUS_PLLCLK:  /* PLL used as system clock */
    {
      pllmul = aPLLMULFactorTable[(uint32_t)(tmpreg & RCC_CFGR_PLLMULL) >> RCC_CFGR_PLLMULL_Pos];
 80068b6:	69fb      	ldr	r3, [r7, #28]
 80068b8:	0c9b      	lsrs	r3, r3, #18
 80068ba:	f003 030f 	and.w	r3, r3, #15
 80068be:	f107 0228 	add.w	r2, r7, #40	; 0x28
 80068c2:	4413      	add	r3, r2
 80068c4:	f813 3c24 	ldrb.w	r3, [r3, #-36]
 80068c8:	617b      	str	r3, [r7, #20]
      if ((tmpreg & RCC_CFGR_PLLSRC) != RCC_PLLSOURCE_HSI_DIV2)
 80068ca:	69fb      	ldr	r3, [r7, #28]
 80068cc:	f403 3380 	and.w	r3, r3, #65536	; 0x10000
 80068d0:	2b00      	cmp	r3, #0
 80068d2:	d013      	beq.n	80068fc <HAL_RCC_GetSysClockFreq+0x8c>
      {
#if defined(RCC_CFGR2_PREDIV1)
        prediv = aPredivFactorTable[(uint32_t)(RCC->CFGR2 & RCC_CFGR2_PREDIV1) >> RCC_CFGR2_PREDIV1_Pos];
#else
        prediv = aPredivFactorTable[(uint32_t)(RCC->CFGR & RCC_CFGR_PLLXTPRE) >> RCC_CFGR_PLLXTPRE_Pos];
 80068d4:	4b14      	ldr	r3, [pc, #80]	; (8006928 <HAL_RCC_GetSysClockFreq+0xb8>)
 80068d6:	685b      	ldr	r3, [r3, #4]
 80068d8:	0c5b      	lsrs	r3, r3, #17
 80068da:	f003 0301 	and.w	r3, r3, #1
 80068de:	f107 0228 	add.w	r2, r7, #40	; 0x28
 80068e2:	4413      	add	r3, r2
 80068e4:	f813 3c28 	ldrb.w	r3, [r3, #-40]
 80068e8:	61bb      	str	r3, [r7, #24]
        {
          pllclk = pllclk / 2;
        }
#else
        /* HSE used as PLL clock source : PLLCLK = HSE/PREDIV1 * PLLMUL */
        pllclk = (uint32_t)((HSE_VALUE  * pllmul) / prediv);
 80068ea:	697b      	ldr	r3, [r7, #20]
 80068ec:	4a0f      	ldr	r2, [pc, #60]	; (800692c <HAL_RCC_GetSysClockFreq+0xbc>)
 80068ee:	fb02 f203 	mul.w	r2, r2, r3
 80068f2:	69bb      	ldr	r3, [r7, #24]
 80068f4:	fbb2 f3f3 	udiv	r3, r2, r3
 80068f8:	627b      	str	r3, [r7, #36]	; 0x24
 80068fa:	e004      	b.n	8006906 <HAL_RCC_GetSysClockFreq+0x96>
#endif /*RCC_CFGR2_PREDIV1SRC*/
      }
      else
      {
        /* HSI used as PLL clock source : PLLCLK = HSI/2 * PLLMUL */
        pllclk = (uint32_t)((HSI_VALUE >> 1) * pllmul);
 80068fc:	697b      	ldr	r3, [r7, #20]
 80068fe:	4a0c      	ldr	r2, [pc, #48]	; (8006930 <HAL_RCC_GetSysClockFreq+0xc0>)
 8006900:	fb02 f303 	mul.w	r3, r2, r3
 8006904:	627b      	str	r3, [r7, #36]	; 0x24
      }
      sysclockfreq = pllclk;
 8006906:	6a7b      	ldr	r3, [r7, #36]	; 0x24
 8006908:	623b      	str	r3, [r7, #32]
      break;
 800690a:	e002      	b.n	8006912 <HAL_RCC_GetSysClockFreq+0xa2>
    }
    case RCC_SYSCLKSOURCE_STATUS_HSI:  /* HSI used as system clock source */
    default: /* HSI used as system clock */
    {
      sysclockfreq = HSI_VALUE;
 800690c:	4b07      	ldr	r3, [pc, #28]	; (800692c <HAL_RCC_GetSysClockFreq+0xbc>)
 800690e:	623b      	str	r3, [r7, #32]
      break;
 8006910:	bf00      	nop
    }
  }
  return sysclockfreq;
 8006912:	6a3b      	ldr	r3, [r7, #32]
}
 8006914:	4618      	mov	r0, r3
 8006916:	3728      	adds	r7, #40	; 0x28
 8006918:	46bd      	mov	sp, r7
 800691a:	bc90      	pop	{r4, r7}
 800691c:	4770      	bx	lr
 800691e:	bf00      	nop
 8006920:	08008880 	.word	0x08008880
 8006924:	08008890 	.word	0x08008890
 8006928:	40021000 	.word	0x40021000
 800692c:	007a1200 	.word	0x007a1200
 8006930:	003d0900 	.word	0x003d0900

08006934 <HAL_RCC_GetHCLKFreq>:
  * @note   The SystemCoreClock CMSIS variable is used to store System Clock Frequency
  *         and updated within this function
  * @retval HCLK frequency
  */
uint32_t HAL_RCC_GetHCLKFreq(void)
{
 8006934:	b480      	push	{r7}
 8006936:	af00      	add	r7, sp, #0
  return SystemCoreClock;
 8006938:	4b02      	ldr	r3, [pc, #8]	; (8006944 <HAL_RCC_GetHCLKFreq+0x10>)
 800693a:	681b      	ldr	r3, [r3, #0]
}
 800693c:	4618      	mov	r0, r3
 800693e:	46bd      	mov	sp, r7
 8006940:	bc80      	pop	{r7}
 8006942:	4770      	bx	lr
 8006944:	200000ac 	.word	0x200000ac

08006948 <HAL_RCC_GetPCLK1Freq>:
  * @note   Each time PCLK1 changes, this function must be called to update the
  *         right PCLK1 value. Otherwise, any configuration based on this function will be incorrect.
  * @retval PCLK1 frequency
  */
uint32_t HAL_RCC_GetPCLK1Freq(void)
{
 8006948:	b580      	push	{r7, lr}
 800694a:	af00      	add	r7, sp, #0
  /* Get HCLK source and Compute PCLK1 frequency ---------------------------*/
  return (HAL_RCC_GetHCLKFreq() >> APBPrescTable[(RCC->CFGR & RCC_CFGR_PPRE1) >> RCC_CFGR_PPRE1_Pos]);
 800694c:	f7ff fff2 	bl	8006934 <HAL_RCC_GetHCLKFreq>
 8006950:	4601      	mov	r1, r0
 8006952:	4b05      	ldr	r3, [pc, #20]	; (8006968 <HAL_RCC_GetPCLK1Freq+0x20>)
 8006954:	685b      	ldr	r3, [r3, #4]
 8006956:	0a1b      	lsrs	r3, r3, #8
 8006958:	f003 0307 	and.w	r3, r3, #7
 800695c:	4a03      	ldr	r2, [pc, #12]	; (800696c <HAL_RCC_GetPCLK1Freq+0x24>)
 800695e:	5cd3      	ldrb	r3, [r2, r3]
 8006960:	fa21 f303 	lsr.w	r3, r1, r3
}
 8006964:	4618      	mov	r0, r3
 8006966:	bd80      	pop	{r7, pc}
 8006968:	40021000 	.word	0x40021000
 800696c:	08008b64 	.word	0x08008b64

08006970 <HAL_RCC_GetPCLK2Freq>:
  * @note   Each time PCLK2 changes, this function must be called to update the
  *         right PCLK2 value. Otherwise, any configuration based on this function will be incorrect.
  * @retval PCLK2 frequency
  */
uint32_t HAL_RCC_GetPCLK2Freq(void)
{
 8006970:	b580      	push	{r7, lr}
 8006972:	af00      	add	r7, sp, #0
  /* Get HCLK source and Compute PCLK2 frequency ---------------------------*/
  return (HAL_RCC_GetHCLKFreq() >> APBPrescTable[(RCC->CFGR & RCC_CFGR_PPRE2) >> RCC_CFGR_PPRE2_Pos]);
 8006974:	f7ff ffde 	bl	8006934 <HAL_RCC_GetHCLKFreq>
 8006978:	4601      	mov	r1, r0
 800697a:	4b05      	ldr	r3, [pc, #20]	; (8006990 <HAL_RCC_GetPCLK2Freq+0x20>)
 800697c:	685b      	ldr	r3, [r3, #4]
 800697e:	0adb      	lsrs	r3, r3, #11
 8006980:	f003 0307 	and.w	r3, r3, #7
 8006984:	4a03      	ldr	r2, [pc, #12]	; (8006994 <HAL_RCC_GetPCLK2Freq+0x24>)
 8006986:	5cd3      	ldrb	r3, [r2, r3]
 8006988:	fa21 f303 	lsr.w	r3, r1, r3
}
 800698c:	4618      	mov	r0, r3
 800698e:	bd80      	pop	{r7, pc}
 8006990:	40021000 	.word	0x40021000
 8006994:	08008b64 	.word	0x08008b64

08006998 <RCC_Delay>:
  * @brief  This function provides delay (in milliseconds) based on CPU cycles method.
  * @param  mdelay: specifies the delay time length, in milliseconds.
  * @retval None
  */
static void RCC_Delay(uint32_t mdelay)
{
 8006998:	b480      	push	{r7}
 800699a:	b085      	sub	sp, #20
 800699c:	af00      	add	r7, sp, #0
 800699e:	6078      	str	r0, [r7, #4]
  __IO uint32_t Delay = mdelay * (SystemCoreClock / 8U / 1000U);
 80069a0:	4b0a      	ldr	r3, [pc, #40]	; (80069cc <RCC_Delay+0x34>)
 80069a2:	681b      	ldr	r3, [r3, #0]
 80069a4:	4a0a      	ldr	r2, [pc, #40]	; (80069d0 <RCC_Delay+0x38>)
 80069a6:	fba2 2303 	umull	r2, r3, r2, r3
 80069aa:	0a5b      	lsrs	r3, r3, #9
 80069ac:	687a      	ldr	r2, [r7, #4]
 80069ae:	fb02 f303 	mul.w	r3, r2, r3
 80069b2:	60fb      	str	r3, [r7, #12]
  do
  {
    __NOP();
 80069b4:	bf00      	nop
  }
  while (Delay --);
 80069b6:	68fb      	ldr	r3, [r7, #12]
 80069b8:	1e5a      	subs	r2, r3, #1
 80069ba:	60fa      	str	r2, [r7, #12]
 80069bc:	2b00      	cmp	r3, #0
 80069be:	d1f9      	bne.n	80069b4 <RCC_Delay+0x1c>
}
 80069c0:	bf00      	nop
 80069c2:	3714      	adds	r7, #20
 80069c4:	46bd      	mov	sp, r7
 80069c6:	bc80      	pop	{r7}
 80069c8:	4770      	bx	lr
 80069ca:	bf00      	nop
 80069cc:	200000ac 	.word	0x200000ac
 80069d0:	10624dd3 	.word	0x10624dd3

080069d4 <HAL_TIM_Base_Init>:
  *         Ex: call @ref HAL_TIM_Base_DeInit() before HAL_TIM_Base_Init()
  * @param  htim TIM Base handle
  * @retval HAL status
  */
HAL_StatusTypeDef HAL_TIM_Base_Init(TIM_HandleTypeDef *htim)
{
 80069d4:	b580      	push	{r7, lr}
 80069d6:	b082      	sub	sp, #8
 80069d8:	af00      	add	r7, sp, #0
 80069da:	6078      	str	r0, [r7, #4]
  /* Check the TIM handle allocation */
  if (htim == NULL)
 80069dc:	687b      	ldr	r3, [r7, #4]
 80069de:	2b00      	cmp	r3, #0
 80069e0:	d101      	bne.n	80069e6 <HAL_TIM_Base_Init+0x12>
  {
    return HAL_ERROR;
 80069e2:	2301      	movs	r3, #1
 80069e4:	e041      	b.n	8006a6a <HAL_TIM_Base_Init+0x96>
  assert_param(IS_TIM_INSTANCE(htim->Instance));
  assert_param(IS_TIM_COUNTER_MODE(htim->Init.CounterMode));
  assert_param(IS_TIM_CLOCKDIVISION_DIV(htim->Init.ClockDivision));
  assert_param(IS_TIM_AUTORELOAD_PRELOAD(htim->Init.AutoReloadPreload));

  if (htim->State == HAL_TIM_STATE_RESET)
 80069e6:	687b      	ldr	r3, [r7, #4]
 80069e8:	f893 303d 	ldrb.w	r3, [r3, #61]	; 0x3d
 80069ec:	b2db      	uxtb	r3, r3
 80069ee:	2b00      	cmp	r3, #0
 80069f0:	d106      	bne.n	8006a00 <HAL_TIM_Base_Init+0x2c>
  {
    /* Allocate lock resource and initialize it */
    htim->Lock = HAL_UNLOCKED;
 80069f2:	687b      	ldr	r3, [r7, #4]
 80069f4:	2200      	movs	r2, #0
 80069f6:	f883 203c 	strb.w	r2, [r3, #60]	; 0x3c
    }
    /* Init the low level hardware : GPIO, CLOCK, NVIC */
    htim->Base_MspInitCallback(htim);
#else
    /* Init the low level hardware : GPIO, CLOCK, NVIC */
    HAL_TIM_Base_MspInit(htim);
 80069fa:	6878      	ldr	r0, [r7, #4]
 80069fc:	f7fd fed4 	bl	80047a8 <HAL_TIM_Base_MspInit>
#endif /* USE_HAL_TIM_REGISTER_CALLBACKS */
  }

  /* Set the TIM state */
  htim->State = HAL_TIM_STATE_BUSY;
 8006a00:	687b      	ldr	r3, [r7, #4]
 8006a02:	2202      	movs	r2, #2
 8006a04:	f883 203d 	strb.w	r2, [r3, #61]	; 0x3d

  /* Set the Time Base configuration */
  TIM_Base_SetConfig(htim->Instance, &htim->Init);
 8006a08:	687b      	ldr	r3, [r7, #4]
 8006a0a:	681a      	ldr	r2, [r3, #0]
 8006a0c:	687b      	ldr	r3, [r7, #4]
 8006a0e:	3304      	adds	r3, #4
 8006a10:	4619      	mov	r1, r3
 8006a12:	4610      	mov	r0, r2
 8006a14:	f000 fc14 	bl	8007240 <TIM_Base_SetConfig>

  /* Initialize the DMA burst operation state */
  htim->DMABurstState = HAL_DMA_BURST_STATE_READY;
 8006a18:	687b      	ldr	r3, [r7, #4]
 8006a1a:	2201      	movs	r2, #1
 8006a1c:	f883 2046 	strb.w	r2, [r3, #70]	; 0x46

  /* Initialize the TIM channels state */
  TIM_CHANNEL_STATE_SET_ALL(htim, HAL_TIM_CHANNEL_STATE_READY);
 8006a20:	687b      	ldr	r3, [r7, #4]
 8006a22:	2201      	movs	r2, #1
 8006a24:	f883 203e 	strb.w	r2, [r3, #62]	; 0x3e
 8006a28:	687b      	ldr	r3, [r7, #4]
 8006a2a:	2201      	movs	r2, #1
 8006a2c:	f883 203f 	strb.w	r2, [r3, #63]	; 0x3f
 8006a30:	687b      	ldr	r3, [r7, #4]
 8006a32:	2201      	movs	r2, #1
 8006a34:	f883 2040 	strb.w	r2, [r3, #64]	; 0x40
 8006a38:	687b      	ldr	r3, [r7, #4]
 8006a3a:	2201      	movs	r2, #1
 8006a3c:	f883 2041 	strb.w	r2, [r3, #65]	; 0x41
  TIM_CHANNEL_N_STATE_SET_ALL(htim, HAL_TIM_CHANNEL_STATE_READY);
 8006a40:	687b      	ldr	r3, [r7, #4]
 8006a42:	2201      	movs	r2, #1
 8006a44:	f883 2042 	strb.w	r2, [r3, #66]	; 0x42
 8006a48:	687b      	ldr	r3, [r7, #4]
 8006a4a:	2201      	movs	r2, #1
 8006a4c:	f883 2043 	strb.w	r2, [r3, #67]	; 0x43
 8006a50:	687b      	ldr	r3, [r7, #4]
 8006a52:	2201      	movs	r2, #1
 8006a54:	f883 2044 	strb.w	r2, [r3, #68]	; 0x44
 8006a58:	687b      	ldr	r3, [r7, #4]
 8006a5a:	2201      	movs	r2, #1
 8006a5c:	f883 2045 	strb.w	r2, [r3, #69]	; 0x45

  /* Initialize the TIM state*/
  htim->State = HAL_TIM_STATE_READY;
 8006a60:	687b      	ldr	r3, [r7, #4]
 8006a62:	2201      	movs	r2, #1
 8006a64:	f883 203d 	strb.w	r2, [r3, #61]	; 0x3d

  return HAL_OK;
 8006a68:	2300      	movs	r3, #0
}
 8006a6a:	4618      	mov	r0, r3
 8006a6c:	3708      	adds	r7, #8
 8006a6e:	46bd      	mov	sp, r7
 8006a70:	bd80      	pop	{r7, pc}
	...

08006a74 <HAL_TIM_Base_Start_IT>:
  * @brief  Starts the TIM Base generation in interrupt mode.
  * @param  htim TIM Base handle
  * @retval HAL status
  */
HAL_StatusTypeDef HAL_TIM_Base_Start_IT(TIM_HandleTypeDef *htim)
{
 8006a74:	b480      	push	{r7}
 8006a76:	b085      	sub	sp, #20
 8006a78:	af00      	add	r7, sp, #0
 8006a7a:	6078      	str	r0, [r7, #4]

  /* Check the parameters */
  assert_param(IS_TIM_INSTANCE(htim->Instance));

  /* Check the TIM state */
  if (htim->State != HAL_TIM_STATE_READY)
 8006a7c:	687b      	ldr	r3, [r7, #4]
 8006a7e:	f893 303d 	ldrb.w	r3, [r3, #61]	; 0x3d
 8006a82:	b2db      	uxtb	r3, r3
 8006a84:	2b01      	cmp	r3, #1
 8006a86:	d001      	beq.n	8006a8c <HAL_TIM_Base_Start_IT+0x18>
  {
    return HAL_ERROR;
 8006a88:	2301      	movs	r3, #1
 8006a8a:	e03a      	b.n	8006b02 <HAL_TIM_Base_Start_IT+0x8e>
  }

  /* Set the TIM state */
  htim->State = HAL_TIM_STATE_BUSY;
 8006a8c:	687b      	ldr	r3, [r7, #4]
 8006a8e:	2202      	movs	r2, #2
 8006a90:	f883 203d 	strb.w	r2, [r3, #61]	; 0x3d

  /* Enable the TIM Update interrupt */
  __HAL_TIM_ENABLE_IT(htim, TIM_IT_UPDATE);
 8006a94:	687b      	ldr	r3, [r7, #4]
 8006a96:	681b      	ldr	r3, [r3, #0]
 8006a98:	68da      	ldr	r2, [r3, #12]
 8006a9a:	687b      	ldr	r3, [r7, #4]
 8006a9c:	681b      	ldr	r3, [r3, #0]
 8006a9e:	f042 0201 	orr.w	r2, r2, #1
 8006aa2:	60da      	str	r2, [r3, #12]

  /* Enable the Peripheral, except in trigger mode where enable is automatically done with trigger */
  if (IS_TIM_SLAVE_INSTANCE(htim->Instance))
 8006aa4:	687b      	ldr	r3, [r7, #4]
 8006aa6:	681b      	ldr	r3, [r3, #0]
 8006aa8:	4a18      	ldr	r2, [pc, #96]	; (8006b0c <HAL_TIM_Base_Start_IT+0x98>)
 8006aaa:	4293      	cmp	r3, r2
 8006aac:	d00e      	beq.n	8006acc <HAL_TIM_Base_Start_IT+0x58>
 8006aae:	687b      	ldr	r3, [r7, #4]
 8006ab0:	681b      	ldr	r3, [r3, #0]
 8006ab2:	f1b3 4f80 	cmp.w	r3, #1073741824	; 0x40000000
 8006ab6:	d009      	beq.n	8006acc <HAL_TIM_Base_Start_IT+0x58>
 8006ab8:	687b      	ldr	r3, [r7, #4]
 8006aba:	681b      	ldr	r3, [r3, #0]
 8006abc:	4a14      	ldr	r2, [pc, #80]	; (8006b10 <HAL_TIM_Base_Start_IT+0x9c>)
 8006abe:	4293      	cmp	r3, r2
 8006ac0:	d004      	beq.n	8006acc <HAL_TIM_Base_Start_IT+0x58>
 8006ac2:	687b      	ldr	r3, [r7, #4]
 8006ac4:	681b      	ldr	r3, [r3, #0]
 8006ac6:	4a13      	ldr	r2, [pc, #76]	; (8006b14 <HAL_TIM_Base_Start_IT+0xa0>)
 8006ac8:	4293      	cmp	r3, r2
 8006aca:	d111      	bne.n	8006af0 <HAL_TIM_Base_Start_IT+0x7c>
  {
    tmpsmcr = htim->Instance->SMCR & TIM_SMCR_SMS;
 8006acc:	687b      	ldr	r3, [r7, #4]
 8006ace:	681b      	ldr	r3, [r3, #0]
 8006ad0:	689b      	ldr	r3, [r3, #8]
 8006ad2:	f003 0307 	and.w	r3, r3, #7
 8006ad6:	60fb      	str	r3, [r7, #12]
    if (!IS_TIM_SLAVEMODE_TRIGGER_ENABLED(tmpsmcr))
 8006ad8:	68fb      	ldr	r3, [r7, #12]
 8006ada:	2b06      	cmp	r3, #6
 8006adc:	d010      	beq.n	8006b00 <HAL_TIM_Base_Start_IT+0x8c>
    {
      __HAL_TIM_ENABLE(htim);
 8006ade:	687b      	ldr	r3, [r7, #4]
 8006ae0:	681b      	ldr	r3, [r3, #0]
 8006ae2:	681a      	ldr	r2, [r3, #0]
 8006ae4:	687b      	ldr	r3, [r7, #4]
 8006ae6:	681b      	ldr	r3, [r3, #0]
 8006ae8:	f042 0201 	orr.w	r2, r2, #1
 8006aec:	601a      	str	r2, [r3, #0]
    if (!IS_TIM_SLAVEMODE_TRIGGER_ENABLED(tmpsmcr))
 8006aee:	e007      	b.n	8006b00 <HAL_TIM_Base_Start_IT+0x8c>
    }
  }
  else
  {
    __HAL_TIM_ENABLE(htim);
 8006af0:	687b      	ldr	r3, [r7, #4]
 8006af2:	681b      	ldr	r3, [r3, #0]
 8006af4:	681a      	ldr	r2, [r3, #0]
 8006af6:	687b      	ldr	r3, [r7, #4]
 8006af8:	681b      	ldr	r3, [r3, #0]
 8006afa:	f042 0201 	orr.w	r2, r2, #1
 8006afe:	601a      	str	r2, [r3, #0]
  }

  /* Return function status */
  return HAL_OK;
 8006b00:	2300      	movs	r3, #0
}
 8006b02:	4618      	mov	r0, r3
 8006b04:	3714      	adds	r7, #20
 8006b06:	46bd      	mov	sp, r7
 8006b08:	bc80      	pop	{r7}
 8006b0a:	4770      	bx	lr
 8006b0c:	40012c00 	.word	0x40012c00
 8006b10:	40000400 	.word	0x40000400
 8006b14:	40000800 	.word	0x40000800

08006b18 <HAL_TIM_PWM_Init>:
  *         Ex: call @ref HAL_TIM_PWM_DeInit() before HAL_TIM_PWM_Init()
  * @param  htim TIM PWM handle
  * @retval HAL status
  */
HAL_StatusTypeDef HAL_TIM_PWM_Init(TIM_HandleTypeDef *htim)
{
 8006b18:	b580      	push	{r7, lr}
 8006b1a:	b082      	sub	sp, #8
 8006b1c:	af00      	add	r7, sp, #0
 8006b1e:	6078      	str	r0, [r7, #4]
  /* Check the TIM handle allocation */
  if (htim == NULL)
 8006b20:	687b      	ldr	r3, [r7, #4]
 8006b22:	2b00      	cmp	r3, #0
 8006b24:	d101      	bne.n	8006b2a <HAL_TIM_PWM_Init+0x12>
  {
    return HAL_ERROR;
 8006b26:	2301      	movs	r3, #1
 8006b28:	e041      	b.n	8006bae <HAL_TIM_PWM_Init+0x96>
  assert_param(IS_TIM_INSTANCE(htim->Instance));
  assert_param(IS_TIM_COUNTER_MODE(htim->Init.CounterMode));
  assert_param(IS_TIM_CLOCKDIVISION_DIV(htim->Init.ClockDivision));
  assert_param(IS_TIM_AUTORELOAD_PRELOAD(htim->Init.AutoReloadPreload));

  if (htim->State == HAL_TIM_STATE_RESET)
 8006b2a:	687b      	ldr	r3, [r7, #4]
 8006b2c:	f893 303d 	ldrb.w	r3, [r3, #61]	; 0x3d
 8006b30:	b2db      	uxtb	r3, r3
 8006b32:	2b00      	cmp	r3, #0
 8006b34:	d106      	bne.n	8006b44 <HAL_TIM_PWM_Init+0x2c>
  {
    /* Allocate lock resource and initialize it */
    htim->Lock = HAL_UNLOCKED;
 8006b36:	687b      	ldr	r3, [r7, #4]
 8006b38:	2200      	movs	r2, #0
 8006b3a:	f883 203c 	strb.w	r2, [r3, #60]	; 0x3c
    }
    /* Init the low level hardware : GPIO, CLOCK, NVIC */
    htim->PWM_MspInitCallback(htim);
#else
    /* Init the low level hardware : GPIO, CLOCK, NVIC and DMA */
    HAL_TIM_PWM_MspInit(htim);
 8006b3e:	6878      	ldr	r0, [r7, #4]
 8006b40:	f7fd fe58 	bl	80047f4 <HAL_TIM_PWM_MspInit>
#endif /* USE_HAL_TIM_REGISTER_CALLBACKS */
  }

  /* Set the TIM state */
  htim->State = HAL_TIM_STATE_BUSY;
 8006b44:	687b      	ldr	r3, [r7, #4]
 8006b46:	2202      	movs	r2, #2
 8006b48:	f883 203d 	strb.w	r2, [r3, #61]	; 0x3d

  /* Init the base time for the PWM */
  TIM_Base_SetConfig(htim->Instance, &htim->Init);
 8006b4c:	687b      	ldr	r3, [r7, #4]
 8006b4e:	681a      	ldr	r2, [r3, #0]
 8006b50:	687b      	ldr	r3, [r7, #4]
 8006b52:	3304      	adds	r3, #4
 8006b54:	4619      	mov	r1, r3
 8006b56:	4610      	mov	r0, r2
 8006b58:	f000 fb72 	bl	8007240 <TIM_Base_SetConfig>

  /* Initialize the DMA burst operation state */
  htim->DMABurstState = HAL_DMA_BURST_STATE_READY;
 8006b5c:	687b      	ldr	r3, [r7, #4]
 8006b5e:	2201      	movs	r2, #1
 8006b60:	f883 2046 	strb.w	r2, [r3, #70]	; 0x46

  /* Initialize the TIM channels state */
  TIM_CHANNEL_STATE_SET_ALL(htim, HAL_TIM_CHANNEL_STATE_READY);
 8006b64:	687b      	ldr	r3, [r7, #4]
 8006b66:	2201      	movs	r2, #1
 8006b68:	f883 203e 	strb.w	r2, [r3, #62]	; 0x3e
 8006b6c:	687b      	ldr	r3, [r7, #4]
 8006b6e:	2201      	movs	r2, #1
 8006b70:	f883 203f 	strb.w	r2, [r3, #63]	; 0x3f
 8006b74:	687b      	ldr	r3, [r7, #4]
 8006b76:	2201      	movs	r2, #1
 8006b78:	f883 2040 	strb.w	r2, [r3, #64]	; 0x40
 8006b7c:	687b      	ldr	r3, [r7, #4]
 8006b7e:	2201      	movs	r2, #1
 8006b80:	f883 2041 	strb.w	r2, [r3, #65]	; 0x41
  TIM_CHANNEL_N_STATE_SET_ALL(htim, HAL_TIM_CHANNEL_STATE_READY);
 8006b84:	687b      	ldr	r3, [r7, #4]
 8006b86:	2201      	movs	r2, #1
 8006b88:	f883 2042 	strb.w	r2, [r3, #66]	; 0x42
 8006b8c:	687b      	ldr	r3, [r7, #4]
 8006b8e:	2201      	movs	r2, #1
 8006b90:	f883 2043 	strb.w	r2, [r3, #67]	; 0x43
 8006b94:	687b      	ldr	r3, [r7, #4]
 8006b96:	2201      	movs	r2, #1
 8006b98:	f883 2044 	strb.w	r2, [r3, #68]	; 0x44
 8006b9c:	687b      	ldr	r3, [r7, #4]
 8006b9e:	2201      	movs	r2, #1
 8006ba0:	f883 2045 	strb.w	r2, [r3, #69]	; 0x45

  /* Initialize the TIM state*/
  htim->State = HAL_TIM_STATE_READY;
 8006ba4:	687b      	ldr	r3, [r7, #4]
 8006ba6:	2201      	movs	r2, #1
 8006ba8:	f883 203d 	strb.w	r2, [r3, #61]	; 0x3d

  return HAL_OK;
 8006bac:	2300      	movs	r3, #0
}
 8006bae:	4618      	mov	r0, r3
 8006bb0:	3708      	adds	r7, #8
 8006bb2:	46bd      	mov	sp, r7
 8006bb4:	bd80      	pop	{r7, pc}
	...

08006bb8 <HAL_TIM_PWM_Start>:
  *            @arg TIM_CHANNEL_3: TIM Channel 3 selected
  *            @arg TIM_CHANNEL_4: TIM Channel 4 selected
  * @retval HAL status
  */
HAL_StatusTypeDef HAL_TIM_PWM_Start(TIM_HandleTypeDef *htim, uint32_t Channel)
{
 8006bb8:	b580      	push	{r7, lr}
 8006bba:	b084      	sub	sp, #16
 8006bbc:	af00      	add	r7, sp, #0
 8006bbe:	6078      	str	r0, [r7, #4]
 8006bc0:	6039      	str	r1, [r7, #0]

  /* Check the parameters */
  assert_param(IS_TIM_CCX_INSTANCE(htim->Instance, Channel));

  /* Check the TIM channel state */
  if (TIM_CHANNEL_STATE_GET(htim, Channel) != HAL_TIM_CHANNEL_STATE_READY)
 8006bc2:	683b      	ldr	r3, [r7, #0]
 8006bc4:	2b00      	cmp	r3, #0
 8006bc6:	d109      	bne.n	8006bdc <HAL_TIM_PWM_Start+0x24>
 8006bc8:	687b      	ldr	r3, [r7, #4]
 8006bca:	f893 303e 	ldrb.w	r3, [r3, #62]	; 0x3e
 8006bce:	b2db      	uxtb	r3, r3
 8006bd0:	2b01      	cmp	r3, #1
 8006bd2:	bf14      	ite	ne
 8006bd4:	2301      	movne	r3, #1
 8006bd6:	2300      	moveq	r3, #0
 8006bd8:	b2db      	uxtb	r3, r3
 8006bda:	e022      	b.n	8006c22 <HAL_TIM_PWM_Start+0x6a>
 8006bdc:	683b      	ldr	r3, [r7, #0]
 8006bde:	2b04      	cmp	r3, #4
 8006be0:	d109      	bne.n	8006bf6 <HAL_TIM_PWM_Start+0x3e>
 8006be2:	687b      	ldr	r3, [r7, #4]
 8006be4:	f893 303f 	ldrb.w	r3, [r3, #63]	; 0x3f
 8006be8:	b2db      	uxtb	r3, r3
 8006bea:	2b01      	cmp	r3, #1
 8006bec:	bf14      	ite	ne
 8006bee:	2301      	movne	r3, #1
 8006bf0:	2300      	moveq	r3, #0
 8006bf2:	b2db      	uxtb	r3, r3
 8006bf4:	e015      	b.n	8006c22 <HAL_TIM_PWM_Start+0x6a>
 8006bf6:	683b      	ldr	r3, [r7, #0]
 8006bf8:	2b08      	cmp	r3, #8
 8006bfa:	d109      	bne.n	8006c10 <HAL_TIM_PWM_Start+0x58>
 8006bfc:	687b      	ldr	r3, [r7, #4]
 8006bfe:	f893 3040 	ldrb.w	r3, [r3, #64]	; 0x40
 8006c02:	b2db      	uxtb	r3, r3
 8006c04:	2b01      	cmp	r3, #1
 8006c06:	bf14      	ite	ne
 8006c08:	2301      	movne	r3, #1
 8006c0a:	2300      	moveq	r3, #0
 8006c0c:	b2db      	uxtb	r3, r3
 8006c0e:	e008      	b.n	8006c22 <HAL_TIM_PWM_Start+0x6a>
 8006c10:	687b      	ldr	r3, [r7, #4]
 8006c12:	f893 3041 	ldrb.w	r3, [r3, #65]	; 0x41
 8006c16:	b2db      	uxtb	r3, r3
 8006c18:	2b01      	cmp	r3, #1
 8006c1a:	bf14      	ite	ne
 8006c1c:	2301      	movne	r3, #1
 8006c1e:	2300      	moveq	r3, #0
 8006c20:	b2db      	uxtb	r3, r3
 8006c22:	2b00      	cmp	r3, #0
 8006c24:	d001      	beq.n	8006c2a <HAL_TIM_PWM_Start+0x72>
  {
    return HAL_ERROR;
 8006c26:	2301      	movs	r3, #1
 8006c28:	e05e      	b.n	8006ce8 <HAL_TIM_PWM_Start+0x130>
  }

  /* Set the TIM channel state */
  TIM_CHANNEL_STATE_SET(htim, Channel, HAL_TIM_CHANNEL_STATE_BUSY);
 8006c2a:	683b      	ldr	r3, [r7, #0]
 8006c2c:	2b00      	cmp	r3, #0
 8006c2e:	d104      	bne.n	8006c3a <HAL_TIM_PWM_Start+0x82>
 8006c30:	687b      	ldr	r3, [r7, #4]
 8006c32:	2202      	movs	r2, #2
 8006c34:	f883 203e 	strb.w	r2, [r3, #62]	; 0x3e
 8006c38:	e013      	b.n	8006c62 <HAL_TIM_PWM_Start+0xaa>
 8006c3a:	683b      	ldr	r3, [r7, #0]
 8006c3c:	2b04      	cmp	r3, #4
 8006c3e:	d104      	bne.n	8006c4a <HAL_TIM_PWM_Start+0x92>
 8006c40:	687b      	ldr	r3, [r7, #4]
 8006c42:	2202      	movs	r2, #2
 8006c44:	f883 203f 	strb.w	r2, [r3, #63]	; 0x3f
 8006c48:	e00b      	b.n	8006c62 <HAL_TIM_PWM_Start+0xaa>
 8006c4a:	683b      	ldr	r3, [r7, #0]
 8006c4c:	2b08      	cmp	r3, #8
 8006c4e:	d104      	bne.n	8006c5a <HAL_TIM_PWM_Start+0xa2>
 8006c50:	687b      	ldr	r3, [r7, #4]
 8006c52:	2202      	movs	r2, #2
 8006c54:	f883 2040 	strb.w	r2, [r3, #64]	; 0x40
 8006c58:	e003      	b.n	8006c62 <HAL_TIM_PWM_Start+0xaa>
 8006c5a:	687b      	ldr	r3, [r7, #4]
 8006c5c:	2202      	movs	r2, #2
 8006c5e:	f883 2041 	strb.w	r2, [r3, #65]	; 0x41

  /* Enable the Capture compare channel */
  TIM_CCxChannelCmd(htim->Instance, Channel, TIM_CCx_ENABLE);
 8006c62:	687b      	ldr	r3, [r7, #4]
 8006c64:	681b      	ldr	r3, [r3, #0]
 8006c66:	2201      	movs	r2, #1
 8006c68:	6839      	ldr	r1, [r7, #0]
 8006c6a:	4618      	mov	r0, r3
 8006c6c:	f000 fd68 	bl	8007740 <TIM_CCxChannelCmd>

  if (IS_TIM_BREAK_INSTANCE(htim->Instance) != RESET)
 8006c70:	687b      	ldr	r3, [r7, #4]
 8006c72:	681b      	ldr	r3, [r3, #0]
 8006c74:	4a1e      	ldr	r2, [pc, #120]	; (8006cf0 <HAL_TIM_PWM_Start+0x138>)
 8006c76:	4293      	cmp	r3, r2
 8006c78:	d107      	bne.n	8006c8a <HAL_TIM_PWM_Start+0xd2>
  {
    /* Enable the main output */
    __HAL_TIM_MOE_ENABLE(htim);
 8006c7a:	687b      	ldr	r3, [r7, #4]
 8006c7c:	681b      	ldr	r3, [r3, #0]
 8006c7e:	6c5a      	ldr	r2, [r3, #68]	; 0x44
 8006c80:	687b      	ldr	r3, [r7, #4]
 8006c82:	681b      	ldr	r3, [r3, #0]
 8006c84:	f442 4200 	orr.w	r2, r2, #32768	; 0x8000
 8006c88:	645a      	str	r2, [r3, #68]	; 0x44
  }

  /* Enable the Peripheral, except in trigger mode where enable is automatically done with trigger */
  if (IS_TIM_SLAVE_INSTANCE(htim->Instance))
 8006c8a:	687b      	ldr	r3, [r7, #4]
 8006c8c:	681b      	ldr	r3, [r3, #0]
 8006c8e:	4a18      	ldr	r2, [pc, #96]	; (8006cf0 <HAL_TIM_PWM_Start+0x138>)
 8006c90:	4293      	cmp	r3, r2
 8006c92:	d00e      	beq.n	8006cb2 <HAL_TIM_PWM_Start+0xfa>
 8006c94:	687b      	ldr	r3, [r7, #4]
 8006c96:	681b      	ldr	r3, [r3, #0]
 8006c98:	f1b3 4f80 	cmp.w	r3, #1073741824	; 0x40000000
 8006c9c:	d009      	beq.n	8006cb2 <HAL_TIM_PWM_Start+0xfa>
 8006c9e:	687b      	ldr	r3, [r7, #4]
 8006ca0:	681b      	ldr	r3, [r3, #0]
 8006ca2:	4a14      	ldr	r2, [pc, #80]	; (8006cf4 <HAL_TIM_PWM_Start+0x13c>)
 8006ca4:	4293      	cmp	r3, r2
 8006ca6:	d004      	beq.n	8006cb2 <HAL_TIM_PWM_Start+0xfa>
 8006ca8:	687b      	ldr	r3, [r7, #4]
 8006caa:	681b      	ldr	r3, [r3, #0]
 8006cac:	4a12      	ldr	r2, [pc, #72]	; (8006cf8 <HAL_TIM_PWM_Start+0x140>)
 8006cae:	4293      	cmp	r3, r2
 8006cb0:	d111      	bne.n	8006cd6 <HAL_TIM_PWM_Start+0x11e>
  {
    tmpsmcr = htim->Instance->SMCR & TIM_SMCR_SMS;
 8006cb2:	687b      	ldr	r3, [r7, #4]
 8006cb4:	681b      	ldr	r3, [r3, #0]
 8006cb6:	689b      	ldr	r3, [r3, #8]
 8006cb8:	f003 0307 	and.w	r3, r3, #7
 8006cbc:	60fb      	str	r3, [r7, #12]
    if (!IS_TIM_SLAVEMODE_TRIGGER_ENABLED(tmpsmcr))
 8006cbe:	68fb      	ldr	r3, [r7, #12]
 8006cc0:	2b06      	cmp	r3, #6
 8006cc2:	d010      	beq.n	8006ce6 <HAL_TIM_PWM_Start+0x12e>
    {
      __HAL_TIM_ENABLE(htim);
 8006cc4:	687b      	ldr	r3, [r7, #4]
 8006cc6:	681b      	ldr	r3, [r3, #0]
 8006cc8:	681a      	ldr	r2, [r3, #0]
 8006cca:	687b      	ldr	r3, [r7, #4]
 8006ccc:	681b      	ldr	r3, [r3, #0]
 8006cce:	f042 0201 	orr.w	r2, r2, #1
 8006cd2:	601a      	str	r2, [r3, #0]
    if (!IS_TIM_SLAVEMODE_TRIGGER_ENABLED(tmpsmcr))
 8006cd4:	e007      	b.n	8006ce6 <HAL_TIM_PWM_Start+0x12e>
    }
  }
  else
  {
    __HAL_TIM_ENABLE(htim);
 8006cd6:	687b      	ldr	r3, [r7, #4]
 8006cd8:	681b      	ldr	r3, [r3, #0]
 8006cda:	681a      	ldr	r2, [r3, #0]
 8006cdc:	687b      	ldr	r3, [r7, #4]
 8006cde:	681b      	ldr	r3, [r3, #0]
 8006ce0:	f042 0201 	orr.w	r2, r2, #1
 8006ce4:	601a      	str	r2, [r3, #0]
  }

  /* Return function status */
  return HAL_OK;
 8006ce6:	2300      	movs	r3, #0
}
 8006ce8:	4618      	mov	r0, r3
 8006cea:	3710      	adds	r7, #16
 8006cec:	46bd      	mov	sp, r7
 8006cee:	bd80      	pop	{r7, pc}
 8006cf0:	40012c00 	.word	0x40012c00
 8006cf4:	40000400 	.word	0x40000400
 8006cf8:	40000800 	.word	0x40000800

08006cfc <HAL_TIM_IRQHandler>:
  * @brief  This function handles TIM interrupts requests.
  * @param  htim TIM  handle
  * @retval None
  */
void HAL_TIM_IRQHandler(TIM_HandleTypeDef *htim)
{
 8006cfc:	b580      	push	{r7, lr}
 8006cfe:	b082      	sub	sp, #8
 8006d00:	af00      	add	r7, sp, #0
 8006d02:	6078      	str	r0, [r7, #4]
  /* Capture compare 1 event */
  if (__HAL_TIM_GET_FLAG(htim, TIM_FLAG_CC1) != RESET)
 8006d04:	687b      	ldr	r3, [r7, #4]
 8006d06:	681b      	ldr	r3, [r3, #0]
 8006d08:	691b      	ldr	r3, [r3, #16]
 8006d0a:	f003 0302 	and.w	r3, r3, #2
 8006d0e:	2b02      	cmp	r3, #2
 8006d10:	d122      	bne.n	8006d58 <HAL_TIM_IRQHandler+0x5c>
  {
    if (__HAL_TIM_GET_IT_SOURCE(htim, TIM_IT_CC1) != RESET)
 8006d12:	687b      	ldr	r3, [r7, #4]
 8006d14:	681b      	ldr	r3, [r3, #0]
 8006d16:	68db      	ldr	r3, [r3, #12]
 8006d18:	f003 0302 	and.w	r3, r3, #2
 8006d1c:	2b02      	cmp	r3, #2
 8006d1e:	d11b      	bne.n	8006d58 <HAL_TIM_IRQHandler+0x5c>
    {
      {
        __HAL_TIM_CLEAR_IT(htim, TIM_IT_CC1);
 8006d20:	687b      	ldr	r3, [r7, #4]
 8006d22:	681b      	ldr	r3, [r3, #0]
 8006d24:	f06f 0202 	mvn.w	r2, #2
 8006d28:	611a      	str	r2, [r3, #16]
        htim->Channel = HAL_TIM_ACTIVE_CHANNEL_1;
 8006d2a:	687b      	ldr	r3, [r7, #4]
 8006d2c:	2201      	movs	r2, #1
 8006d2e:	771a      	strb	r2, [r3, #28]

        /* Input capture event */
        if ((htim->Instance->CCMR1 & TIM_CCMR1_CC1S) != 0x00U)
 8006d30:	687b      	ldr	r3, [r7, #4]
 8006d32:	681b      	ldr	r3, [r3, #0]
 8006d34:	699b      	ldr	r3, [r3, #24]
 8006d36:	f003 0303 	and.w	r3, r3, #3
 8006d3a:	2b00      	cmp	r3, #0
 8006d3c:	d003      	beq.n	8006d46 <HAL_TIM_IRQHandler+0x4a>
        {
#if (USE_HAL_TIM_REGISTER_CALLBACKS == 1)
          htim->IC_CaptureCallback(htim);
#else
          HAL_TIM_IC_CaptureCallback(htim);
 8006d3e:	6878      	ldr	r0, [r7, #4]
 8006d40:	f000 fa62 	bl	8007208 <HAL_TIM_IC_CaptureCallback>
 8006d44:	e005      	b.n	8006d52 <HAL_TIM_IRQHandler+0x56>
        {
#if (USE_HAL_TIM_REGISTER_CALLBACKS == 1)
          htim->OC_DelayElapsedCallback(htim);
          htim->PWM_PulseFinishedCallback(htim);
#else
          HAL_TIM_OC_DelayElapsedCallback(htim);
 8006d46:	6878      	ldr	r0, [r7, #4]
 8006d48:	f000 fa55 	bl	80071f6 <HAL_TIM_OC_DelayElapsedCallback>
          HAL_TIM_PWM_PulseFinishedCallback(htim);
 8006d4c:	6878      	ldr	r0, [r7, #4]
 8006d4e:	f000 fa64 	bl	800721a <HAL_TIM_PWM_PulseFinishedCallback>
#endif /* USE_HAL_TIM_REGISTER_CALLBACKS */
        }
        htim->Channel = HAL_TIM_ACTIVE_CHANNEL_CLEARED;
 8006d52:	687b      	ldr	r3, [r7, #4]
 8006d54:	2200      	movs	r2, #0
 8006d56:	771a      	strb	r2, [r3, #28]
      }
    }
  }
  /* Capture compare 2 event */
  if (__HAL_TIM_GET_FLAG(htim, TIM_FLAG_CC2) != RESET)
 8006d58:	687b      	ldr	r3, [r7, #4]
 8006d5a:	681b      	ldr	r3, [r3, #0]
 8006d5c:	691b      	ldr	r3, [r3, #16]
 8006d5e:	f003 0304 	and.w	r3, r3, #4
 8006d62:	2b04      	cmp	r3, #4
 8006d64:	d122      	bne.n	8006dac <HAL_TIM_IRQHandler+0xb0>
  {
    if (__HAL_TIM_GET_IT_SOURCE(htim, TIM_IT_CC2) != RESET)
 8006d66:	687b      	ldr	r3, [r7, #4]
 8006d68:	681b      	ldr	r3, [r3, #0]
 8006d6a:	68db      	ldr	r3, [r3, #12]
 8006d6c:	f003 0304 	and.w	r3, r3, #4
 8006d70:	2b04      	cmp	r3, #4
 8006d72:	d11b      	bne.n	8006dac <HAL_TIM_IRQHandler+0xb0>
    {
      __HAL_TIM_CLEAR_IT(htim, TIM_IT_CC2);
 8006d74:	687b      	ldr	r3, [r7, #4]
 8006d76:	681b      	ldr	r3, [r3, #0]
 8006d78:	f06f 0204 	mvn.w	r2, #4
 8006d7c:	611a      	str	r2, [r3, #16]
      htim->Channel = HAL_TIM_ACTIVE_CHANNEL_2;
 8006d7e:	687b      	ldr	r3, [r7, #4]
 8006d80:	2202      	movs	r2, #2
 8006d82:	771a      	strb	r2, [r3, #28]
      /* Input capture event */
      if ((htim->Instance->CCMR1 & TIM_CCMR1_CC2S) != 0x00U)
 8006d84:	687b      	ldr	r3, [r7, #4]
 8006d86:	681b      	ldr	r3, [r3, #0]
 8006d88:	699b      	ldr	r3, [r3, #24]
 8006d8a:	f403 7340 	and.w	r3, r3, #768	; 0x300
 8006d8e:	2b00      	cmp	r3, #0
 8006d90:	d003      	beq.n	8006d9a <HAL_TIM_IRQHandler+0x9e>
      {
#if (USE_HAL_TIM_REGISTER_CALLBACKS == 1)
        htim->IC_CaptureCallback(htim);
#else
        HAL_TIM_IC_CaptureCallback(htim);
 8006d92:	6878      	ldr	r0, [r7, #4]
 8006d94:	f000 fa38 	bl	8007208 <HAL_TIM_IC_CaptureCallback>
 8006d98:	e005      	b.n	8006da6 <HAL_TIM_IRQHandler+0xaa>
      {
#if (USE_HAL_TIM_REGISTER_CALLBACKS == 1)
        htim->OC_DelayElapsedCallback(htim);
        htim->PWM_PulseFinishedCallback(htim);
#else
        HAL_TIM_OC_DelayElapsedCallback(htim);
 8006d9a:	6878      	ldr	r0, [r7, #4]
 8006d9c:	f000 fa2b 	bl	80071f6 <HAL_TIM_OC_DelayElapsedCallback>
        HAL_TIM_PWM_PulseFinishedCallback(htim);
 8006da0:	6878      	ldr	r0, [r7, #4]
 8006da2:	f000 fa3a 	bl	800721a <HAL_TIM_PWM_PulseFinishedCallback>
#endif /* USE_HAL_TIM_REGISTER_CALLBACKS */
      }
      htim->Channel = HAL_TIM_ACTIVE_CHANNEL_CLEARED;
 8006da6:	687b      	ldr	r3, [r7, #4]
 8006da8:	2200      	movs	r2, #0
 8006daa:	771a      	strb	r2, [r3, #28]
    }
  }
  /* Capture compare 3 event */
  if (__HAL_TIM_GET_FLAG(htim, TIM_FLAG_CC3) != RESET)
 8006dac:	687b      	ldr	r3, [r7, #4]
 8006dae:	681b      	ldr	r3, [r3, #0]
 8006db0:	691b      	ldr	r3, [r3, #16]
 8006db2:	f003 0308 	and.w	r3, r3, #8
 8006db6:	2b08      	cmp	r3, #8
 8006db8:	d122      	bne.n	8006e00 <HAL_TIM_IRQHandler+0x104>
  {
    if (__HAL_TIM_GET_IT_SOURCE(htim, TIM_IT_CC3) != RESET)
 8006dba:	687b      	ldr	r3, [r7, #4]
 8006dbc:	681b      	ldr	r3, [r3, #0]
 8006dbe:	68db      	ldr	r3, [r3, #12]
 8006dc0:	f003 0308 	and.w	r3, r3, #8
 8006dc4:	2b08      	cmp	r3, #8
 8006dc6:	d11b      	bne.n	8006e00 <HAL_TIM_IRQHandler+0x104>
    {
      __HAL_TIM_CLEAR_IT(htim, TIM_IT_CC3);
 8006dc8:	687b      	ldr	r3, [r7, #4]
 8006dca:	681b      	ldr	r3, [r3, #0]
 8006dcc:	f06f 0208 	mvn.w	r2, #8
 8006dd0:	611a      	str	r2, [r3, #16]
      htim->Channel = HAL_TIM_ACTIVE_CHANNEL_3;
 8006dd2:	687b      	ldr	r3, [r7, #4]
 8006dd4:	2204      	movs	r2, #4
 8006dd6:	771a      	strb	r2, [r3, #28]
      /* Input capture event */
      if ((htim->Instance->CCMR2 & TIM_CCMR2_CC3S) != 0x00U)
 8006dd8:	687b      	ldr	r3, [r7, #4]
 8006dda:	681b      	ldr	r3, [r3, #0]
 8006ddc:	69db      	ldr	r3, [r3, #28]
 8006dde:	f003 0303 	and.w	r3, r3, #3
 8006de2:	2b00      	cmp	r3, #0
 8006de4:	d003      	beq.n	8006dee <HAL_TIM_IRQHandler+0xf2>
      {
#if (USE_HAL_TIM_REGISTER_CALLBACKS == 1)
        htim->IC_CaptureCallback(htim);
#else
        HAL_TIM_IC_CaptureCallback(htim);
 8006de6:	6878      	ldr	r0, [r7, #4]
 8006de8:	f000 fa0e 	bl	8007208 <HAL_TIM_IC_CaptureCallback>
 8006dec:	e005      	b.n	8006dfa <HAL_TIM_IRQHandler+0xfe>
      {
#if (USE_HAL_TIM_REGISTER_CALLBACKS == 1)
        htim->OC_DelayElapsedCallback(htim);
        htim->PWM_PulseFinishedCallback(htim);
#else
        HAL_TIM_OC_DelayElapsedCallback(htim);
 8006dee:	6878      	ldr	r0, [r7, #4]
 8006df0:	f000 fa01 	bl	80071f6 <HAL_TIM_OC_DelayElapsedCallback>
        HAL_TIM_PWM_PulseFinishedCallback(htim);
 8006df4:	6878      	ldr	r0, [r7, #4]
 8006df6:	f000 fa10 	bl	800721a <HAL_TIM_PWM_PulseFinishedCallback>
#endif /* USE_HAL_TIM_REGISTER_CALLBACKS */
      }
      htim->Channel = HAL_TIM_ACTIVE_CHANNEL_CLEARED;
 8006dfa:	687b      	ldr	r3, [r7, #4]
 8006dfc:	2200      	movs	r2, #0
 8006dfe:	771a      	strb	r2, [r3, #28]
    }
  }
  /* Capture compare 4 event */
  if (__HAL_TIM_GET_FLAG(htim, TIM_FLAG_CC4) != RESET)
 8006e00:	687b      	ldr	r3, [r7, #4]
 8006e02:	681b      	ldr	r3, [r3, #0]
 8006e04:	691b      	ldr	r3, [r3, #16]
 8006e06:	f003 0310 	and.w	r3, r3, #16
 8006e0a:	2b10      	cmp	r3, #16
 8006e0c:	d122      	bne.n	8006e54 <HAL_TIM_IRQHandler+0x158>
  {
    if (__HAL_TIM_GET_IT_SOURCE(htim, TIM_IT_CC4) != RESET)
 8006e0e:	687b      	ldr	r3, [r7, #4]
 8006e10:	681b      	ldr	r3, [r3, #0]
 8006e12:	68db      	ldr	r3, [r3, #12]
 8006e14:	f003 0310 	and.w	r3, r3, #16
 8006e18:	2b10      	cmp	r3, #16
 8006e1a:	d11b      	bne.n	8006e54 <HAL_TIM_IRQHandler+0x158>
    {
      __HAL_TIM_CLEAR_IT(htim, TIM_IT_CC4);
 8006e1c:	687b      	ldr	r3, [r7, #4]
 8006e1e:	681b      	ldr	r3, [r3, #0]
 8006e20:	f06f 0210 	mvn.w	r2, #16
 8006e24:	611a      	str	r2, [r3, #16]
      htim->Channel = HAL_TIM_ACTIVE_CHANNEL_4;
 8006e26:	687b      	ldr	r3, [r7, #4]
 8006e28:	2208      	movs	r2, #8
 8006e2a:	771a      	strb	r2, [r3, #28]
      /* Input capture event */
      if ((htim->Instance->CCMR2 & TIM_CCMR2_CC4S) != 0x00U)
 8006e2c:	687b      	ldr	r3, [r7, #4]
 8006e2e:	681b      	ldr	r3, [r3, #0]
 8006e30:	69db      	ldr	r3, [r3, #28]
 8006e32:	f403 7340 	and.w	r3, r3, #768	; 0x300
 8006e36:	2b00      	cmp	r3, #0
 8006e38:	d003      	beq.n	8006e42 <HAL_TIM_IRQHandler+0x146>
      {
#if (USE_HAL_TIM_REGISTER_CALLBACKS == 1)
        htim->IC_CaptureCallback(htim);
#else
        HAL_TIM_IC_CaptureCallback(htim);
 8006e3a:	6878      	ldr	r0, [r7, #4]
 8006e3c:	f000 f9e4 	bl	8007208 <HAL_TIM_IC_CaptureCallback>
 8006e40:	e005      	b.n	8006e4e <HAL_TIM_IRQHandler+0x152>
      {
#if (USE_HAL_TIM_REGISTER_CALLBACKS == 1)
        htim->OC_DelayElapsedCallback(htim);
        htim->PWM_PulseFinishedCallback(htim);
#else
        HAL_TIM_OC_DelayElapsedCallback(htim);
 8006e42:	6878      	ldr	r0, [r7, #4]
 8006e44:	f000 f9d7 	bl	80071f6 <HAL_TIM_OC_DelayElapsedCallback>
        HAL_TIM_PWM_PulseFinishedCallback(htim);
 8006e48:	6878      	ldr	r0, [r7, #4]
 8006e4a:	f000 f9e6 	bl	800721a <HAL_TIM_PWM_PulseFinishedCallback>
#endif /* USE_HAL_TIM_REGISTER_CALLBACKS */
      }
      htim->Channel = HAL_TIM_ACTIVE_CHANNEL_CLEARED;
 8006e4e:	687b      	ldr	r3, [r7, #4]
 8006e50:	2200      	movs	r2, #0
 8006e52:	771a      	strb	r2, [r3, #28]
    }
  }
  /* TIM Update event */
  if (__HAL_TIM_GET_FLAG(htim, TIM_FLAG_UPDATE) != RESET)
 8006e54:	687b      	ldr	r3, [r7, #4]
 8006e56:	681b      	ldr	r3, [r3, #0]
 8006e58:	691b      	ldr	r3, [r3, #16]
 8006e5a:	f003 0301 	and.w	r3, r3, #1
 8006e5e:	2b01      	cmp	r3, #1
 8006e60:	d10e      	bne.n	8006e80 <HAL_TIM_IRQHandler+0x184>
  {
    if (__HAL_TIM_GET_IT_SOURCE(htim, TIM_IT_UPDATE) != RESET)
 8006e62:	687b      	ldr	r3, [r7, #4]
 8006e64:	681b      	ldr	r3, [r3, #0]
 8006e66:	68db      	ldr	r3, [r3, #12]
 8006e68:	f003 0301 	and.w	r3, r3, #1
 8006e6c:	2b01      	cmp	r3, #1
 8006e6e:	d107      	bne.n	8006e80 <HAL_TIM_IRQHandler+0x184>
    {
      __HAL_TIM_CLEAR_IT(htim, TIM_IT_UPDATE);
 8006e70:	687b      	ldr	r3, [r7, #4]
 8006e72:	681b      	ldr	r3, [r3, #0]
 8006e74:	f06f 0201 	mvn.w	r2, #1
 8006e78:	611a      	str	r2, [r3, #16]
#if (USE_HAL_TIM_REGISTER_CALLBACKS == 1)
      htim->PeriodElapsedCallback(htim);
#else
      HAL_TIM_PeriodElapsedCallback(htim);
 8006e7a:	6878      	ldr	r0, [r7, #4]
 8006e7c:	f7fa fa9c 	bl	80013b8 <HAL_TIM_PeriodElapsedCallback>
#endif /* USE_HAL_TIM_REGISTER_CALLBACKS */
    }
  }
  /* TIM Break input event */
  if (__HAL_TIM_GET_FLAG(htim, TIM_FLAG_BREAK) != RESET)
 8006e80:	687b      	ldr	r3, [r7, #4]
 8006e82:	681b      	ldr	r3, [r3, #0]
 8006e84:	691b      	ldr	r3, [r3, #16]
 8006e86:	f003 0380 	and.w	r3, r3, #128	; 0x80
 8006e8a:	2b80      	cmp	r3, #128	; 0x80
 8006e8c:	d10e      	bne.n	8006eac <HAL_TIM_IRQHandler+0x1b0>
  {
    if (__HAL_TIM_GET_IT_SOURCE(htim, TIM_IT_BREAK) != RESET)
 8006e8e:	687b      	ldr	r3, [r7, #4]
 8006e90:	681b      	ldr	r3, [r3, #0]
 8006e92:	68db      	ldr	r3, [r3, #12]
 8006e94:	f003 0380 	and.w	r3, r3, #128	; 0x80
 8006e98:	2b80      	cmp	r3, #128	; 0x80
 8006e9a:	d107      	bne.n	8006eac <HAL_TIM_IRQHandler+0x1b0>
    {
      __HAL_TIM_CLEAR_IT(htim, TIM_IT_BREAK);
 8006e9c:	687b      	ldr	r3, [r7, #4]
 8006e9e:	681b      	ldr	r3, [r3, #0]
 8006ea0:	f06f 0280 	mvn.w	r2, #128	; 0x80
 8006ea4:	611a      	str	r2, [r3, #16]
#if (USE_HAL_TIM_REGISTER_CALLBACKS == 1)
      htim->BreakCallback(htim);
#else
      HAL_TIMEx_BreakCallback(htim);
 8006ea6:	6878      	ldr	r0, [r7, #4]
 8006ea8:	f000 fcd5 	bl	8007856 <HAL_TIMEx_BreakCallback>
#endif /* USE_HAL_TIM_REGISTER_CALLBACKS */
    }
  }
  /* TIM Trigger detection event */
  if (__HAL_TIM_GET_FLAG(htim, TIM_FLAG_TRIGGER) != RESET)
 8006eac:	687b      	ldr	r3, [r7, #4]
 8006eae:	681b      	ldr	r3, [r3, #0]
 8006eb0:	691b      	ldr	r3, [r3, #16]
 8006eb2:	f003 0340 	and.w	r3, r3, #64	; 0x40
 8006eb6:	2b40      	cmp	r3, #64	; 0x40
 8006eb8:	d10e      	bne.n	8006ed8 <HAL_TIM_IRQHandler+0x1dc>
  {
    if (__HAL_TIM_GET_IT_SOURCE(htim, TIM_IT_TRIGGER) != RESET)
 8006eba:	687b      	ldr	r3, [r7, #4]
 8006ebc:	681b      	ldr	r3, [r3, #0]
 8006ebe:	68db      	ldr	r3, [r3, #12]
 8006ec0:	f003 0340 	and.w	r3, r3, #64	; 0x40
 8006ec4:	2b40      	cmp	r3, #64	; 0x40
 8006ec6:	d107      	bne.n	8006ed8 <HAL_TIM_IRQHandler+0x1dc>
    {
      __HAL_TIM_CLEAR_IT(htim, TIM_IT_TRIGGER);
 8006ec8:	687b      	ldr	r3, [r7, #4]
 8006eca:	681b      	ldr	r3, [r3, #0]
 8006ecc:	f06f 0240 	mvn.w	r2, #64	; 0x40
 8006ed0:	611a      	str	r2, [r3, #16]
#if (USE_HAL_TIM_REGISTER_CALLBACKS == 1)
      htim->TriggerCallback(htim);
#else
      HAL_TIM_TriggerCallback(htim);
 8006ed2:	6878      	ldr	r0, [r7, #4]
 8006ed4:	f000 f9aa 	bl	800722c <HAL_TIM_TriggerCallback>
#endif /* USE_HAL_TIM_REGISTER_CALLBACKS */
    }
  }
  /* TIM commutation event */
  if (__HAL_TIM_GET_FLAG(htim, TIM_FLAG_COM) != RESET)
 8006ed8:	687b      	ldr	r3, [r7, #4]
 8006eda:	681b      	ldr	r3, [r3, #0]
 8006edc:	691b      	ldr	r3, [r3, #16]
 8006ede:	f003 0320 	and.w	r3, r3, #32
 8006ee2:	2b20      	cmp	r3, #32
 8006ee4:	d10e      	bne.n	8006f04 <HAL_TIM_IRQHandler+0x208>
  {
    if (__HAL_TIM_GET_IT_SOURCE(htim, TIM_IT_COM) != RESET)
 8006ee6:	687b      	ldr	r3, [r7, #4]
 8006ee8:	681b      	ldr	r3, [r3, #0]
 8006eea:	68db      	ldr	r3, [r3, #12]
 8006eec:	f003 0320 	and.w	r3, r3, #32
 8006ef0:	2b20      	cmp	r3, #32
 8006ef2:	d107      	bne.n	8006f04 <HAL_TIM_IRQHandler+0x208>
    {
      __HAL_TIM_CLEAR_IT(htim, TIM_FLAG_COM);
 8006ef4:	687b      	ldr	r3, [r7, #4]
 8006ef6:	681b      	ldr	r3, [r3, #0]
 8006ef8:	f06f 0220 	mvn.w	r2, #32
 8006efc:	611a      	str	r2, [r3, #16]
#if (USE_HAL_TIM_REGISTER_CALLBACKS == 1)
      htim->CommutationCallback(htim);
#else
      HAL_TIMEx_CommutCallback(htim);
 8006efe:	6878      	ldr	r0, [r7, #4]
 8006f00:	f000 fca0 	bl	8007844 <HAL_TIMEx_CommutCallback>
#endif /* USE_HAL_TIM_REGISTER_CALLBACKS */
    }
  }
}
 8006f04:	bf00      	nop
 8006f06:	3708      	adds	r7, #8
 8006f08:	46bd      	mov	sp, r7
 8006f0a:	bd80      	pop	{r7, pc}

08006f0c <HAL_TIM_PWM_ConfigChannel>:
  * @retval HAL status
  */
HAL_StatusTypeDef HAL_TIM_PWM_ConfigChannel(TIM_HandleTypeDef *htim,
                                            TIM_OC_InitTypeDef *sConfig,
                                            uint32_t Channel)
{
 8006f0c:	b580      	push	{r7, lr}
 8006f0e:	b084      	sub	sp, #16
 8006f10:	af00      	add	r7, sp, #0
 8006f12:	60f8      	str	r0, [r7, #12]
 8006f14:	60b9      	str	r1, [r7, #8]
 8006f16:	607a      	str	r2, [r7, #4]
  assert_param(IS_TIM_PWM_MODE(sConfig->OCMode));
  assert_param(IS_TIM_OC_POLARITY(sConfig->OCPolarity));
  assert_param(IS_TIM_FAST_STATE(sConfig->OCFastMode));

  /* Process Locked */
  __HAL_LOCK(htim);
 8006f18:	68fb      	ldr	r3, [r7, #12]
 8006f1a:	f893 303c 	ldrb.w	r3, [r3, #60]	; 0x3c
 8006f1e:	2b01      	cmp	r3, #1
 8006f20:	d101      	bne.n	8006f26 <HAL_TIM_PWM_ConfigChannel+0x1a>
 8006f22:	2302      	movs	r3, #2
 8006f24:	e0ac      	b.n	8007080 <HAL_TIM_PWM_ConfigChannel+0x174>
 8006f26:	68fb      	ldr	r3, [r7, #12]
 8006f28:	2201      	movs	r2, #1
 8006f2a:	f883 203c 	strb.w	r2, [r3, #60]	; 0x3c

  switch (Channel)
 8006f2e:	687b      	ldr	r3, [r7, #4]
 8006f30:	2b0c      	cmp	r3, #12
 8006f32:	f200 809f 	bhi.w	8007074 <HAL_TIM_PWM_ConfigChannel+0x168>
 8006f36:	a201      	add	r2, pc, #4	; (adr r2, 8006f3c <HAL_TIM_PWM_ConfigChannel+0x30>)
 8006f38:	f852 f023 	ldr.w	pc, [r2, r3, lsl #2]
 8006f3c:	08006f71 	.word	0x08006f71
 8006f40:	08007075 	.word	0x08007075
 8006f44:	08007075 	.word	0x08007075
 8006f48:	08007075 	.word	0x08007075
 8006f4c:	08006fb1 	.word	0x08006fb1
 8006f50:	08007075 	.word	0x08007075
 8006f54:	08007075 	.word	0x08007075
 8006f58:	08007075 	.word	0x08007075
 8006f5c:	08006ff3 	.word	0x08006ff3
 8006f60:	08007075 	.word	0x08007075
 8006f64:	08007075 	.word	0x08007075
 8006f68:	08007075 	.word	0x08007075
 8006f6c:	08007033 	.word	0x08007033
    {
      /* Check the parameters */
      assert_param(IS_TIM_CC1_INSTANCE(htim->Instance));

      /* Configure the Channel 1 in PWM mode */
      TIM_OC1_SetConfig(htim->Instance, sConfig);
 8006f70:	68fb      	ldr	r3, [r7, #12]
 8006f72:	681b      	ldr	r3, [r3, #0]
 8006f74:	68b9      	ldr	r1, [r7, #8]
 8006f76:	4618      	mov	r0, r3
 8006f78:	f000 f9c4 	bl	8007304 <TIM_OC1_SetConfig>

      /* Set the Preload enable bit for channel1 */
      htim->Instance->CCMR1 |= TIM_CCMR1_OC1PE;
 8006f7c:	68fb      	ldr	r3, [r7, #12]
 8006f7e:	681b      	ldr	r3, [r3, #0]
 8006f80:	699a      	ldr	r2, [r3, #24]
 8006f82:	68fb      	ldr	r3, [r7, #12]
 8006f84:	681b      	ldr	r3, [r3, #0]
 8006f86:	f042 0208 	orr.w	r2, r2, #8
 8006f8a:	619a      	str	r2, [r3, #24]

      /* Configure the Output Fast mode */
      htim->Instance->CCMR1 &= ~TIM_CCMR1_OC1FE;
 8006f8c:	68fb      	ldr	r3, [r7, #12]
 8006f8e:	681b      	ldr	r3, [r3, #0]
 8006f90:	699a      	ldr	r2, [r3, #24]
 8006f92:	68fb      	ldr	r3, [r7, #12]
 8006f94:	681b      	ldr	r3, [r3, #0]
 8006f96:	f022 0204 	bic.w	r2, r2, #4
 8006f9a:	619a      	str	r2, [r3, #24]
      htim->Instance->CCMR1 |= sConfig->OCFastMode;
 8006f9c:	68fb      	ldr	r3, [r7, #12]
 8006f9e:	681b      	ldr	r3, [r3, #0]
 8006fa0:	6999      	ldr	r1, [r3, #24]
 8006fa2:	68bb      	ldr	r3, [r7, #8]
 8006fa4:	691a      	ldr	r2, [r3, #16]
 8006fa6:	68fb      	ldr	r3, [r7, #12]
 8006fa8:	681b      	ldr	r3, [r3, #0]
 8006faa:	430a      	orrs	r2, r1
 8006fac:	619a      	str	r2, [r3, #24]
      break;
 8006fae:	e062      	b.n	8007076 <HAL_TIM_PWM_ConfigChannel+0x16a>
    {
      /* Check the parameters */
      assert_param(IS_TIM_CC2_INSTANCE(htim->Instance));

      /* Configure the Channel 2 in PWM mode */
      TIM_OC2_SetConfig(htim->Instance, sConfig);
 8006fb0:	68fb      	ldr	r3, [r7, #12]
 8006fb2:	681b      	ldr	r3, [r3, #0]
 8006fb4:	68b9      	ldr	r1, [r7, #8]
 8006fb6:	4618      	mov	r0, r3
 8006fb8:	f000 fa0a 	bl	80073d0 <TIM_OC2_SetConfig>

      /* Set the Preload enable bit for channel2 */
      htim->Instance->CCMR1 |= TIM_CCMR1_OC2PE;
 8006fbc:	68fb      	ldr	r3, [r7, #12]
 8006fbe:	681b      	ldr	r3, [r3, #0]
 8006fc0:	699a      	ldr	r2, [r3, #24]
 8006fc2:	68fb      	ldr	r3, [r7, #12]
 8006fc4:	681b      	ldr	r3, [r3, #0]
 8006fc6:	f442 6200 	orr.w	r2, r2, #2048	; 0x800
 8006fca:	619a      	str	r2, [r3, #24]

      /* Configure the Output Fast mode */
      htim->Instance->CCMR1 &= ~TIM_CCMR1_OC2FE;
 8006fcc:	68fb      	ldr	r3, [r7, #12]
 8006fce:	681b      	ldr	r3, [r3, #0]
 8006fd0:	699a      	ldr	r2, [r3, #24]
 8006fd2:	68fb      	ldr	r3, [r7, #12]
 8006fd4:	681b      	ldr	r3, [r3, #0]
 8006fd6:	f422 6280 	bic.w	r2, r2, #1024	; 0x400
 8006fda:	619a      	str	r2, [r3, #24]
      htim->Instance->CCMR1 |= sConfig->OCFastMode << 8U;
 8006fdc:	68fb      	ldr	r3, [r7, #12]
 8006fde:	681b      	ldr	r3, [r3, #0]
 8006fe0:	6999      	ldr	r1, [r3, #24]
 8006fe2:	68bb      	ldr	r3, [r7, #8]
 8006fe4:	691b      	ldr	r3, [r3, #16]
 8006fe6:	021a      	lsls	r2, r3, #8
 8006fe8:	68fb      	ldr	r3, [r7, #12]
 8006fea:	681b      	ldr	r3, [r3, #0]
 8006fec:	430a      	orrs	r2, r1
 8006fee:	619a      	str	r2, [r3, #24]
      break;
 8006ff0:	e041      	b.n	8007076 <HAL_TIM_PWM_ConfigChannel+0x16a>
    {
      /* Check the parameters */
      assert_param(IS_TIM_CC3_INSTANCE(htim->Instance));

      /* Configure the Channel 3 in PWM mode */
      TIM_OC3_SetConfig(htim->Instance, sConfig);
 8006ff2:	68fb      	ldr	r3, [r7, #12]
 8006ff4:	681b      	ldr	r3, [r3, #0]
 8006ff6:	68b9      	ldr	r1, [r7, #8]
 8006ff8:	4618      	mov	r0, r3
 8006ffa:	f000 fa53 	bl	80074a4 <TIM_OC3_SetConfig>

      /* Set the Preload enable bit for channel3 */
      htim->Instance->CCMR2 |= TIM_CCMR2_OC3PE;
 8006ffe:	68fb      	ldr	r3, [r7, #12]
 8007000:	681b      	ldr	r3, [r3, #0]
 8007002:	69da      	ldr	r2, [r3, #28]
 8007004:	68fb      	ldr	r3, [r7, #12]
 8007006:	681b      	ldr	r3, [r3, #0]
 8007008:	f042 0208 	orr.w	r2, r2, #8
 800700c:	61da      	str	r2, [r3, #28]

      /* Configure the Output Fast mode */
      htim->Instance->CCMR2 &= ~TIM_CCMR2_OC3FE;
 800700e:	68fb      	ldr	r3, [r7, #12]
 8007010:	681b      	ldr	r3, [r3, #0]
 8007012:	69da      	ldr	r2, [r3, #28]
 8007014:	68fb      	ldr	r3, [r7, #12]
 8007016:	681b      	ldr	r3, [r3, #0]
 8007018:	f022 0204 	bic.w	r2, r2, #4
 800701c:	61da      	str	r2, [r3, #28]
      htim->Instance->CCMR2 |= sConfig->OCFastMode;
 800701e:	68fb      	ldr	r3, [r7, #12]
 8007020:	681b      	ldr	r3, [r3, #0]
 8007022:	69d9      	ldr	r1, [r3, #28]
 8007024:	68bb      	ldr	r3, [r7, #8]
 8007026:	691a      	ldr	r2, [r3, #16]
 8007028:	68fb      	ldr	r3, [r7, #12]
 800702a:	681b      	ldr	r3, [r3, #0]
 800702c:	430a      	orrs	r2, r1
 800702e:	61da      	str	r2, [r3, #28]
      break;
 8007030:	e021      	b.n	8007076 <HAL_TIM_PWM_ConfigChannel+0x16a>
    {
      /* Check the parameters */
      assert_param(IS_TIM_CC4_INSTANCE(htim->Instance));

      /* Configure the Channel 4 in PWM mode */
      TIM_OC4_SetConfig(htim->Instance, sConfig);
 8007032:	68fb      	ldr	r3, [r7, #12]
 8007034:	681b      	ldr	r3, [r3, #0]
 8007036:	68b9      	ldr	r1, [r7, #8]
 8007038:	4618      	mov	r0, r3
 800703a:	f000 fa9d 	bl	8007578 <TIM_OC4_SetConfig>

      /* Set the Preload enable bit for channel4 */
      htim->Instance->CCMR2 |= TIM_CCMR2_OC4PE;
 800703e:	68fb      	ldr	r3, [r7, #12]
 8007040:	681b      	ldr	r3, [r3, #0]
 8007042:	69da      	ldr	r2, [r3, #28]
 8007044:	68fb      	ldr	r3, [r7, #12]
 8007046:	681b      	ldr	r3, [r3, #0]
 8007048:	f442 6200 	orr.w	r2, r2, #2048	; 0x800
 800704c:	61da      	str	r2, [r3, #28]

      /* Configure the Output Fast mode */
      htim->Instance->CCMR2 &= ~TIM_CCMR2_OC4FE;
 800704e:	68fb      	ldr	r3, [r7, #12]
 8007050:	681b      	ldr	r3, [r3, #0]
 8007052:	69da      	ldr	r2, [r3, #28]
 8007054:	68fb      	ldr	r3, [r7, #12]
 8007056:	681b      	ldr	r3, [r3, #0]
 8007058:	f422 6280 	bic.w	r2, r2, #1024	; 0x400
 800705c:	61da      	str	r2, [r3, #28]
      htim->Instance->CCMR2 |= sConfig->OCFastMode << 8U;
 800705e:	68fb      	ldr	r3, [r7, #12]
 8007060:	681b      	ldr	r3, [r3, #0]
 8007062:	69d9      	ldr	r1, [r3, #28]
 8007064:	68bb      	ldr	r3, [r7, #8]
 8007066:	691b      	ldr	r3, [r3, #16]
 8007068:	021a      	lsls	r2, r3, #8
 800706a:	68fb      	ldr	r3, [r7, #12]
 800706c:	681b      	ldr	r3, [r3, #0]
 800706e:	430a      	orrs	r2, r1
 8007070:	61da      	str	r2, [r3, #28]
      break;
 8007072:	e000      	b.n	8007076 <HAL_TIM_PWM_ConfigChannel+0x16a>
    }

    default:
      break;
 8007074:	bf00      	nop
  }

  __HAL_UNLOCK(htim);
 8007076:	68fb      	ldr	r3, [r7, #12]
 8007078:	2200      	movs	r2, #0
 800707a:	f883 203c 	strb.w	r2, [r3, #60]	; 0x3c

  return HAL_OK;
 800707e:	2300      	movs	r3, #0
}
 8007080:	4618      	mov	r0, r3
 8007082:	3710      	adds	r7, #16
 8007084:	46bd      	mov	sp, r7
 8007086:	bd80      	pop	{r7, pc}

08007088 <HAL_TIM_ConfigClockSource>:
  * @param  sClockSourceConfig pointer to a TIM_ClockConfigTypeDef structure that
  *         contains the clock source information for the TIM peripheral.
  * @retval HAL status
  */
HAL_StatusTypeDef HAL_TIM_ConfigClockSource(TIM_HandleTypeDef *htim, TIM_ClockConfigTypeDef *sClockSourceConfig)
{
 8007088:	b580      	push	{r7, lr}
 800708a:	b084      	sub	sp, #16
 800708c:	af00      	add	r7, sp, #0
 800708e:	6078      	str	r0, [r7, #4]
 8007090:	6039      	str	r1, [r7, #0]
  uint32_t tmpsmcr;

  /* Process Locked */
  __HAL_LOCK(htim);
 8007092:	687b      	ldr	r3, [r7, #4]
 8007094:	f893 303c 	ldrb.w	r3, [r3, #60]	; 0x3c
 8007098:	2b01      	cmp	r3, #1
 800709a:	d101      	bne.n	80070a0 <HAL_TIM_ConfigClockSource+0x18>
 800709c:	2302      	movs	r3, #2
 800709e:	e0a6      	b.n	80071ee <HAL_TIM_ConfigClockSource+0x166>
 80070a0:	687b      	ldr	r3, [r7, #4]
 80070a2:	2201      	movs	r2, #1
 80070a4:	f883 203c 	strb.w	r2, [r3, #60]	; 0x3c

  htim->State = HAL_TIM_STATE_BUSY;
 80070a8:	687b      	ldr	r3, [r7, #4]
 80070aa:	2202      	movs	r2, #2
 80070ac:	f883 203d 	strb.w	r2, [r3, #61]	; 0x3d

  /* Check the parameters */
  assert_param(IS_TIM_CLOCKSOURCE(sClockSourceConfig->ClockSource));

  /* Reset the SMS, TS, ECE, ETPS and ETRF bits */
  tmpsmcr = htim->Instance->SMCR;
 80070b0:	687b      	ldr	r3, [r7, #4]
 80070b2:	681b      	ldr	r3, [r3, #0]
 80070b4:	689b      	ldr	r3, [r3, #8]
 80070b6:	60fb      	str	r3, [r7, #12]
  tmpsmcr &= ~(TIM_SMCR_SMS | TIM_SMCR_TS);
 80070b8:	68fb      	ldr	r3, [r7, #12]
 80070ba:	f023 0377 	bic.w	r3, r3, #119	; 0x77
 80070be:	60fb      	str	r3, [r7, #12]
  tmpsmcr &= ~(TIM_SMCR_ETF | TIM_SMCR_ETPS | TIM_SMCR_ECE | TIM_SMCR_ETP);
 80070c0:	68fb      	ldr	r3, [r7, #12]
 80070c2:	f423 437f 	bic.w	r3, r3, #65280	; 0xff00
 80070c6:	60fb      	str	r3, [r7, #12]
  htim->Instance->SMCR = tmpsmcr;
 80070c8:	687b      	ldr	r3, [r7, #4]
 80070ca:	681b      	ldr	r3, [r3, #0]
 80070cc:	68fa      	ldr	r2, [r7, #12]
 80070ce:	609a      	str	r2, [r3, #8]

  switch (sClockSourceConfig->ClockSource)
 80070d0:	683b      	ldr	r3, [r7, #0]
 80070d2:	681b      	ldr	r3, [r3, #0]
 80070d4:	2b40      	cmp	r3, #64	; 0x40
 80070d6:	d067      	beq.n	80071a8 <HAL_TIM_ConfigClockSource+0x120>
 80070d8:	2b40      	cmp	r3, #64	; 0x40
 80070da:	d80b      	bhi.n	80070f4 <HAL_TIM_ConfigClockSource+0x6c>
 80070dc:	2b10      	cmp	r3, #16
 80070de:	d073      	beq.n	80071c8 <HAL_TIM_ConfigClockSource+0x140>
 80070e0:	2b10      	cmp	r3, #16
 80070e2:	d802      	bhi.n	80070ea <HAL_TIM_ConfigClockSource+0x62>
 80070e4:	2b00      	cmp	r3, #0
 80070e6:	d06f      	beq.n	80071c8 <HAL_TIM_ConfigClockSource+0x140>
        TIM_ITRx_SetConfig(htim->Instance, sClockSourceConfig->ClockSource);
        break;
      }

    default:
      break;
 80070e8:	e078      	b.n	80071dc <HAL_TIM_ConfigClockSource+0x154>
  switch (sClockSourceConfig->ClockSource)
 80070ea:	2b20      	cmp	r3, #32
 80070ec:	d06c      	beq.n	80071c8 <HAL_TIM_ConfigClockSource+0x140>
 80070ee:	2b30      	cmp	r3, #48	; 0x30
 80070f0:	d06a      	beq.n	80071c8 <HAL_TIM_ConfigClockSource+0x140>
      break;
 80070f2:	e073      	b.n	80071dc <HAL_TIM_ConfigClockSource+0x154>
  switch (sClockSourceConfig->ClockSource)
 80070f4:	2b70      	cmp	r3, #112	; 0x70
 80070f6:	d00d      	beq.n	8007114 <HAL_TIM_ConfigClockSource+0x8c>
 80070f8:	2b70      	cmp	r3, #112	; 0x70
 80070fa:	d804      	bhi.n	8007106 <HAL_TIM_ConfigClockSource+0x7e>
 80070fc:	2b50      	cmp	r3, #80	; 0x50
 80070fe:	d033      	beq.n	8007168 <HAL_TIM_ConfigClockSource+0xe0>
 8007100:	2b60      	cmp	r3, #96	; 0x60
 8007102:	d041      	beq.n	8007188 <HAL_TIM_ConfigClockSource+0x100>
      break;
 8007104:	e06a      	b.n	80071dc <HAL_TIM_ConfigClockSource+0x154>
  switch (sClockSourceConfig->ClockSource)
 8007106:	f5b3 5f80 	cmp.w	r3, #4096	; 0x1000
 800710a:	d066      	beq.n	80071da <HAL_TIM_ConfigClockSource+0x152>
 800710c:	f5b3 5f00 	cmp.w	r3, #8192	; 0x2000
 8007110:	d017      	beq.n	8007142 <HAL_TIM_ConfigClockSource+0xba>
      break;
 8007112:	e063      	b.n	80071dc <HAL_TIM_ConfigClockSource+0x154>
      TIM_ETR_SetConfig(htim->Instance,
 8007114:	687b      	ldr	r3, [r7, #4]
 8007116:	6818      	ldr	r0, [r3, #0]
 8007118:	683b      	ldr	r3, [r7, #0]
 800711a:	6899      	ldr	r1, [r3, #8]
 800711c:	683b      	ldr	r3, [r7, #0]
 800711e:	685a      	ldr	r2, [r3, #4]
 8007120:	683b      	ldr	r3, [r7, #0]
 8007122:	68db      	ldr	r3, [r3, #12]
 8007124:	f000 faed 	bl	8007702 <TIM_ETR_SetConfig>
      tmpsmcr = htim->Instance->SMCR;
 8007128:	687b      	ldr	r3, [r7, #4]
 800712a:	681b      	ldr	r3, [r3, #0]
 800712c:	689b      	ldr	r3, [r3, #8]
 800712e:	60fb      	str	r3, [r7, #12]
      tmpsmcr |= (TIM_SLAVEMODE_EXTERNAL1 | TIM_CLOCKSOURCE_ETRMODE1);
 8007130:	68fb      	ldr	r3, [r7, #12]
 8007132:	f043 0377 	orr.w	r3, r3, #119	; 0x77
 8007136:	60fb      	str	r3, [r7, #12]
      htim->Instance->SMCR = tmpsmcr;
 8007138:	687b      	ldr	r3, [r7, #4]
 800713a:	681b      	ldr	r3, [r3, #0]
 800713c:	68fa      	ldr	r2, [r7, #12]
 800713e:	609a      	str	r2, [r3, #8]
      break;
 8007140:	e04c      	b.n	80071dc <HAL_TIM_ConfigClockSource+0x154>
      TIM_ETR_SetConfig(htim->Instance,
 8007142:	687b      	ldr	r3, [r7, #4]
 8007144:	6818      	ldr	r0, [r3, #0]
 8007146:	683b      	ldr	r3, [r7, #0]
 8007148:	6899      	ldr	r1, [r3, #8]
 800714a:	683b      	ldr	r3, [r7, #0]
 800714c:	685a      	ldr	r2, [r3, #4]
 800714e:	683b      	ldr	r3, [r7, #0]
 8007150:	68db      	ldr	r3, [r3, #12]
 8007152:	f000 fad6 	bl	8007702 <TIM_ETR_SetConfig>
      htim->Instance->SMCR |= TIM_SMCR_ECE;
 8007156:	687b      	ldr	r3, [r7, #4]
 8007158:	681b      	ldr	r3, [r3, #0]
 800715a:	689a      	ldr	r2, [r3, #8]
 800715c:	687b      	ldr	r3, [r7, #4]
 800715e:	681b      	ldr	r3, [r3, #0]
 8007160:	f442 4280 	orr.w	r2, r2, #16384	; 0x4000
 8007164:	609a      	str	r2, [r3, #8]
      break;
 8007166:	e039      	b.n	80071dc <HAL_TIM_ConfigClockSource+0x154>
      TIM_TI1_ConfigInputStage(htim->Instance,
 8007168:	687b      	ldr	r3, [r7, #4]
 800716a:	6818      	ldr	r0, [r3, #0]
 800716c:	683b      	ldr	r3, [r7, #0]
 800716e:	6859      	ldr	r1, [r3, #4]
 8007170:	683b      	ldr	r3, [r7, #0]
 8007172:	68db      	ldr	r3, [r3, #12]
 8007174:	461a      	mov	r2, r3
 8007176:	f000 fa4d 	bl	8007614 <TIM_TI1_ConfigInputStage>
      TIM_ITRx_SetConfig(htim->Instance, TIM_CLOCKSOURCE_TI1);
 800717a:	687b      	ldr	r3, [r7, #4]
 800717c:	681b      	ldr	r3, [r3, #0]
 800717e:	2150      	movs	r1, #80	; 0x50
 8007180:	4618      	mov	r0, r3
 8007182:	f000 faa4 	bl	80076ce <TIM_ITRx_SetConfig>
      break;
 8007186:	e029      	b.n	80071dc <HAL_TIM_ConfigClockSource+0x154>
      TIM_TI2_ConfigInputStage(htim->Instance,
 8007188:	687b      	ldr	r3, [r7, #4]
 800718a:	6818      	ldr	r0, [r3, #0]
 800718c:	683b      	ldr	r3, [r7, #0]
 800718e:	6859      	ldr	r1, [r3, #4]
 8007190:	683b      	ldr	r3, [r7, #0]
 8007192:	68db      	ldr	r3, [r3, #12]
 8007194:	461a      	mov	r2, r3
 8007196:	f000 fa6b 	bl	8007670 <TIM_TI2_ConfigInputStage>
      TIM_ITRx_SetConfig(htim->Instance, TIM_CLOCKSOURCE_TI2);
 800719a:	687b      	ldr	r3, [r7, #4]
 800719c:	681b      	ldr	r3, [r3, #0]
 800719e:	2160      	movs	r1, #96	; 0x60
 80071a0:	4618      	mov	r0, r3
 80071a2:	f000 fa94 	bl	80076ce <TIM_ITRx_SetConfig>
      break;
 80071a6:	e019      	b.n	80071dc <HAL_TIM_ConfigClockSource+0x154>
      TIM_TI1_ConfigInputStage(htim->Instance,
 80071a8:	687b      	ldr	r3, [r7, #4]
 80071aa:	6818      	ldr	r0, [r3, #0]
 80071ac:	683b      	ldr	r3, [r7, #0]
 80071ae:	6859      	ldr	r1, [r3, #4]
 80071b0:	683b      	ldr	r3, [r7, #0]
 80071b2:	68db      	ldr	r3, [r3, #12]
 80071b4:	461a      	mov	r2, r3
 80071b6:	f000 fa2d 	bl	8007614 <TIM_TI1_ConfigInputStage>
      TIM_ITRx_SetConfig(htim->Instance, TIM_CLOCKSOURCE_TI1ED);
 80071ba:	687b      	ldr	r3, [r7, #4]
 80071bc:	681b      	ldr	r3, [r3, #0]
 80071be:	2140      	movs	r1, #64	; 0x40
 80071c0:	4618      	mov	r0, r3
 80071c2:	f000 fa84 	bl	80076ce <TIM_ITRx_SetConfig>
      break;
 80071c6:	e009      	b.n	80071dc <HAL_TIM_ConfigClockSource+0x154>
        TIM_ITRx_SetConfig(htim->Instance, sClockSourceConfig->ClockSource);
 80071c8:	687b      	ldr	r3, [r7, #4]
 80071ca:	681a      	ldr	r2, [r3, #0]
 80071cc:	683b      	ldr	r3, [r7, #0]
 80071ce:	681b      	ldr	r3, [r3, #0]
 80071d0:	4619      	mov	r1, r3
 80071d2:	4610      	mov	r0, r2
 80071d4:	f000 fa7b 	bl	80076ce <TIM_ITRx_SetConfig>
        break;
 80071d8:	e000      	b.n	80071dc <HAL_TIM_ConfigClockSource+0x154>
      break;
 80071da:	bf00      	nop
  }
  htim->State = HAL_TIM_STATE_READY;
 80071dc:	687b      	ldr	r3, [r7, #4]
 80071de:	2201      	movs	r2, #1
 80071e0:	f883 203d 	strb.w	r2, [r3, #61]	; 0x3d

  __HAL_UNLOCK(htim);
 80071e4:	687b      	ldr	r3, [r7, #4]
 80071e6:	2200      	movs	r2, #0
 80071e8:	f883 203c 	strb.w	r2, [r3, #60]	; 0x3c

  return HAL_OK;
 80071ec:	2300      	movs	r3, #0
}
 80071ee:	4618      	mov	r0, r3
 80071f0:	3710      	adds	r7, #16
 80071f2:	46bd      	mov	sp, r7
 80071f4:	bd80      	pop	{r7, pc}

080071f6 <HAL_TIM_OC_DelayElapsedCallback>:
  * @brief  Output Compare callback in non-blocking mode
  * @param  htim TIM OC handle
  * @retval None
  */
__weak void HAL_TIM_OC_DelayElapsedCallback(TIM_HandleTypeDef *htim)
{
 80071f6:	b480      	push	{r7}
 80071f8:	b083      	sub	sp, #12
 80071fa:	af00      	add	r7, sp, #0
 80071fc:	6078      	str	r0, [r7, #4]
  UNUSED(htim);

  /* NOTE : This function should not be modified, when the callback is needed,
            the HAL_TIM_OC_DelayElapsedCallback could be implemented in the user file
   */
}
 80071fe:	bf00      	nop
 8007200:	370c      	adds	r7, #12
 8007202:	46bd      	mov	sp, r7
 8007204:	bc80      	pop	{r7}
 8007206:	4770      	bx	lr

08007208 <HAL_TIM_IC_CaptureCallback>:
  * @brief  Input Capture callback in non-blocking mode
  * @param  htim TIM IC handle
  * @retval None
  */
__weak void HAL_TIM_IC_CaptureCallback(TIM_HandleTypeDef *htim)
{
 8007208:	b480      	push	{r7}
 800720a:	b083      	sub	sp, #12
 800720c:	af00      	add	r7, sp, #0
 800720e:	6078      	str	r0, [r7, #4]
  UNUSED(htim);

  /* NOTE : This function should not be modified, when the callback is needed,
            the HAL_TIM_IC_CaptureCallback could be implemented in the user file
   */
}
 8007210:	bf00      	nop
 8007212:	370c      	adds	r7, #12
 8007214:	46bd      	mov	sp, r7
 8007216:	bc80      	pop	{r7}
 8007218:	4770      	bx	lr

0800721a <HAL_TIM_PWM_PulseFinishedCallback>:
  * @brief  PWM Pulse finished callback in non-blocking mode
  * @param  htim TIM handle
  * @retval None
  */
__weak void HAL_TIM_PWM_PulseFinishedCallback(TIM_HandleTypeDef *htim)
{
 800721a:	b480      	push	{r7}
 800721c:	b083      	sub	sp, #12
 800721e:	af00      	add	r7, sp, #0
 8007220:	6078      	str	r0, [r7, #4]
  UNUSED(htim);

  /* NOTE : This function should not be modified, when the callback is needed,
            the HAL_TIM_PWM_PulseFinishedCallback could be implemented in the user file
   */
}
 8007222:	bf00      	nop
 8007224:	370c      	adds	r7, #12
 8007226:	46bd      	mov	sp, r7
 8007228:	bc80      	pop	{r7}
 800722a:	4770      	bx	lr

0800722c <HAL_TIM_TriggerCallback>:
  * @brief  Hall Trigger detection callback in non-blocking mode
  * @param  htim TIM handle
  * @retval None
  */
__weak void HAL_TIM_TriggerCallback(TIM_HandleTypeDef *htim)
{
 800722c:	b480      	push	{r7}
 800722e:	b083      	sub	sp, #12
 8007230:	af00      	add	r7, sp, #0
 8007232:	6078      	str	r0, [r7, #4]
  UNUSED(htim);

  /* NOTE : This function should not be modified, when the callback is needed,
            the HAL_TIM_TriggerCallback could be implemented in the user file
   */
}
 8007234:	bf00      	nop
 8007236:	370c      	adds	r7, #12
 8007238:	46bd      	mov	sp, r7
 800723a:	bc80      	pop	{r7}
 800723c:	4770      	bx	lr
	...

08007240 <TIM_Base_SetConfig>:
  * @param  TIMx TIM peripheral
  * @param  Structure TIM Base configuration structure
  * @retval None
  */
void TIM_Base_SetConfig(TIM_TypeDef *TIMx, TIM_Base_InitTypeDef *Structure)
{
 8007240:	b480      	push	{r7}
 8007242:	b085      	sub	sp, #20
 8007244:	af00      	add	r7, sp, #0
 8007246:	6078      	str	r0, [r7, #4]
 8007248:	6039      	str	r1, [r7, #0]
  uint32_t tmpcr1;
  tmpcr1 = TIMx->CR1;
 800724a:	687b      	ldr	r3, [r7, #4]
 800724c:	681b      	ldr	r3, [r3, #0]
 800724e:	60fb      	str	r3, [r7, #12]

  /* Set TIM Time Base Unit parameters ---------------------------------------*/
  if (IS_TIM_COUNTER_MODE_SELECT_INSTANCE(TIMx))
 8007250:	687b      	ldr	r3, [r7, #4]
 8007252:	4a29      	ldr	r2, [pc, #164]	; (80072f8 <TIM_Base_SetConfig+0xb8>)
 8007254:	4293      	cmp	r3, r2
 8007256:	d00b      	beq.n	8007270 <TIM_Base_SetConfig+0x30>
 8007258:	687b      	ldr	r3, [r7, #4]
 800725a:	f1b3 4f80 	cmp.w	r3, #1073741824	; 0x40000000
 800725e:	d007      	beq.n	8007270 <TIM_Base_SetConfig+0x30>
 8007260:	687b      	ldr	r3, [r7, #4]
 8007262:	4a26      	ldr	r2, [pc, #152]	; (80072fc <TIM_Base_SetConfig+0xbc>)
 8007264:	4293      	cmp	r3, r2
 8007266:	d003      	beq.n	8007270 <TIM_Base_SetConfig+0x30>
 8007268:	687b      	ldr	r3, [r7, #4]
 800726a:	4a25      	ldr	r2, [pc, #148]	; (8007300 <TIM_Base_SetConfig+0xc0>)
 800726c:	4293      	cmp	r3, r2
 800726e:	d108      	bne.n	8007282 <TIM_Base_SetConfig+0x42>
  {
    /* Select the Counter Mode */
    tmpcr1 &= ~(TIM_CR1_DIR | TIM_CR1_CMS);
 8007270:	68fb      	ldr	r3, [r7, #12]
 8007272:	f023 0370 	bic.w	r3, r3, #112	; 0x70
 8007276:	60fb      	str	r3, [r7, #12]
    tmpcr1 |= Structure->CounterMode;
 8007278:	683b      	ldr	r3, [r7, #0]
 800727a:	685b      	ldr	r3, [r3, #4]
 800727c:	68fa      	ldr	r2, [r7, #12]
 800727e:	4313      	orrs	r3, r2
 8007280:	60fb      	str	r3, [r7, #12]
  }

  if (IS_TIM_CLOCK_DIVISION_INSTANCE(TIMx))
 8007282:	687b      	ldr	r3, [r7, #4]
 8007284:	4a1c      	ldr	r2, [pc, #112]	; (80072f8 <TIM_Base_SetConfig+0xb8>)
 8007286:	4293      	cmp	r3, r2
 8007288:	d00b      	beq.n	80072a2 <TIM_Base_SetConfig+0x62>
 800728a:	687b      	ldr	r3, [r7, #4]
 800728c:	f1b3 4f80 	cmp.w	r3, #1073741824	; 0x40000000
 8007290:	d007      	beq.n	80072a2 <TIM_Base_SetConfig+0x62>
 8007292:	687b      	ldr	r3, [r7, #4]
 8007294:	4a19      	ldr	r2, [pc, #100]	; (80072fc <TIM_Base_SetConfig+0xbc>)
 8007296:	4293      	cmp	r3, r2
 8007298:	d003      	beq.n	80072a2 <TIM_Base_SetConfig+0x62>
 800729a:	687b      	ldr	r3, [r7, #4]
 800729c:	4a18      	ldr	r2, [pc, #96]	; (8007300 <TIM_Base_SetConfig+0xc0>)
 800729e:	4293      	cmp	r3, r2
 80072a0:	d108      	bne.n	80072b4 <TIM_Base_SetConfig+0x74>
  {
    /* Set the clock division */
    tmpcr1 &= ~TIM_CR1_CKD;
 80072a2:	68fb      	ldr	r3, [r7, #12]
 80072a4:	f423 7340 	bic.w	r3, r3, #768	; 0x300
 80072a8:	60fb      	str	r3, [r7, #12]
    tmpcr1 |= (uint32_t)Structure->ClockDivision;
 80072aa:	683b      	ldr	r3, [r7, #0]
 80072ac:	68db      	ldr	r3, [r3, #12]
 80072ae:	68fa      	ldr	r2, [r7, #12]
 80072b0:	4313      	orrs	r3, r2
 80072b2:	60fb      	str	r3, [r7, #12]
  }

  /* Set the auto-reload preload */
  MODIFY_REG(tmpcr1, TIM_CR1_ARPE, Structure->AutoReloadPreload);
 80072b4:	68fb      	ldr	r3, [r7, #12]
 80072b6:	f023 0280 	bic.w	r2, r3, #128	; 0x80
 80072ba:	683b      	ldr	r3, [r7, #0]
 80072bc:	695b      	ldr	r3, [r3, #20]
 80072be:	4313      	orrs	r3, r2
 80072c0:	60fb      	str	r3, [r7, #12]

  TIMx->CR1 = tmpcr1;
 80072c2:	687b      	ldr	r3, [r7, #4]
 80072c4:	68fa      	ldr	r2, [r7, #12]
 80072c6:	601a      	str	r2, [r3, #0]

  /* Set the Autoreload value */
  TIMx->ARR = (uint32_t)Structure->Period ;
 80072c8:	683b      	ldr	r3, [r7, #0]
 80072ca:	689a      	ldr	r2, [r3, #8]
 80072cc:	687b      	ldr	r3, [r7, #4]
 80072ce:	62da      	str	r2, [r3, #44]	; 0x2c

  /* Set the Prescaler value */
  TIMx->PSC = Structure->Prescaler;
 80072d0:	683b      	ldr	r3, [r7, #0]
 80072d2:	681a      	ldr	r2, [r3, #0]
 80072d4:	687b      	ldr	r3, [r7, #4]
 80072d6:	629a      	str	r2, [r3, #40]	; 0x28

  if (IS_TIM_REPETITION_COUNTER_INSTANCE(TIMx))
 80072d8:	687b      	ldr	r3, [r7, #4]
 80072da:	4a07      	ldr	r2, [pc, #28]	; (80072f8 <TIM_Base_SetConfig+0xb8>)
 80072dc:	4293      	cmp	r3, r2
 80072de:	d103      	bne.n	80072e8 <TIM_Base_SetConfig+0xa8>
  {
    /* Set the Repetition Counter value */
    TIMx->RCR = Structure->RepetitionCounter;
 80072e0:	683b      	ldr	r3, [r7, #0]
 80072e2:	691a      	ldr	r2, [r3, #16]
 80072e4:	687b      	ldr	r3, [r7, #4]
 80072e6:	631a      	str	r2, [r3, #48]	; 0x30
  }

  /* Generate an update event to reload the Prescaler
     and the repetition counter (only for advanced timer) value immediately */
  TIMx->EGR = TIM_EGR_UG;
 80072e8:	687b      	ldr	r3, [r7, #4]
 80072ea:	2201      	movs	r2, #1
 80072ec:	615a      	str	r2, [r3, #20]
}
 80072ee:	bf00      	nop
 80072f0:	3714      	adds	r7, #20
 80072f2:	46bd      	mov	sp, r7
 80072f4:	bc80      	pop	{r7}
 80072f6:	4770      	bx	lr
 80072f8:	40012c00 	.word	0x40012c00
 80072fc:	40000400 	.word	0x40000400
 8007300:	40000800 	.word	0x40000800

08007304 <TIM_OC1_SetConfig>:
  * @param  TIMx to select the TIM peripheral
  * @param  OC_Config The output configuration structure
  * @retval None
  */
static void TIM_OC1_SetConfig(TIM_TypeDef *TIMx, TIM_OC_InitTypeDef *OC_Config)
{
 8007304:	b480      	push	{r7}
 8007306:	b087      	sub	sp, #28
 8007308:	af00      	add	r7, sp, #0
 800730a:	6078      	str	r0, [r7, #4]
 800730c:	6039      	str	r1, [r7, #0]
  uint32_t tmpccmrx;
  uint32_t tmpccer;
  uint32_t tmpcr2;

  /* Disable the Channel 1: Reset the CC1E Bit */
  TIMx->CCER &= ~TIM_CCER_CC1E;
 800730e:	687b      	ldr	r3, [r7, #4]
 8007310:	6a1b      	ldr	r3, [r3, #32]
 8007312:	f023 0201 	bic.w	r2, r3, #1
 8007316:	687b      	ldr	r3, [r7, #4]
 8007318:	621a      	str	r2, [r3, #32]

  /* Get the TIMx CCER register value */
  tmpccer = TIMx->CCER;
 800731a:	687b      	ldr	r3, [r7, #4]
 800731c:	6a1b      	ldr	r3, [r3, #32]
 800731e:	617b      	str	r3, [r7, #20]
  /* Get the TIMx CR2 register value */
  tmpcr2 =  TIMx->CR2;
 8007320:	687b      	ldr	r3, [r7, #4]
 8007322:	685b      	ldr	r3, [r3, #4]
 8007324:	613b      	str	r3, [r7, #16]

  /* Get the TIMx CCMR1 register value */
  tmpccmrx = TIMx->CCMR1;
 8007326:	687b      	ldr	r3, [r7, #4]
 8007328:	699b      	ldr	r3, [r3, #24]
 800732a:	60fb      	str	r3, [r7, #12]

  /* Reset the Output Compare Mode Bits */
  tmpccmrx &= ~TIM_CCMR1_OC1M;
 800732c:	68fb      	ldr	r3, [r7, #12]
 800732e:	f023 0370 	bic.w	r3, r3, #112	; 0x70
 8007332:	60fb      	str	r3, [r7, #12]
  tmpccmrx &= ~TIM_CCMR1_CC1S;
 8007334:	68fb      	ldr	r3, [r7, #12]
 8007336:	f023 0303 	bic.w	r3, r3, #3
 800733a:	60fb      	str	r3, [r7, #12]
  /* Select the Output Compare Mode */
  tmpccmrx |= OC_Config->OCMode;
 800733c:	683b      	ldr	r3, [r7, #0]
 800733e:	681b      	ldr	r3, [r3, #0]
 8007340:	68fa      	ldr	r2, [r7, #12]
 8007342:	4313      	orrs	r3, r2
 8007344:	60fb      	str	r3, [r7, #12]

  /* Reset the Output Polarity level */
  tmpccer &= ~TIM_CCER_CC1P;
 8007346:	697b      	ldr	r3, [r7, #20]
 8007348:	f023 0302 	bic.w	r3, r3, #2
 800734c:	617b      	str	r3, [r7, #20]
  /* Set the Output Compare Polarity */
  tmpccer |= OC_Config->OCPolarity;
 800734e:	683b      	ldr	r3, [r7, #0]
 8007350:	689b      	ldr	r3, [r3, #8]
 8007352:	697a      	ldr	r2, [r7, #20]
 8007354:	4313      	orrs	r3, r2
 8007356:	617b      	str	r3, [r7, #20]

  if (IS_TIM_CCXN_INSTANCE(TIMx, TIM_CHANNEL_1))
 8007358:	687b      	ldr	r3, [r7, #4]
 800735a:	4a1c      	ldr	r2, [pc, #112]	; (80073cc <TIM_OC1_SetConfig+0xc8>)
 800735c:	4293      	cmp	r3, r2
 800735e:	d10c      	bne.n	800737a <TIM_OC1_SetConfig+0x76>
  {
    /* Check parameters */
    assert_param(IS_TIM_OCN_POLARITY(OC_Config->OCNPolarity));

    /* Reset the Output N Polarity level */
    tmpccer &= ~TIM_CCER_CC1NP;
 8007360:	697b      	ldr	r3, [r7, #20]
 8007362:	f023 0308 	bic.w	r3, r3, #8
 8007366:	617b      	str	r3, [r7, #20]
    /* Set the Output N Polarity */
    tmpccer |= OC_Config->OCNPolarity;
 8007368:	683b      	ldr	r3, [r7, #0]
 800736a:	68db      	ldr	r3, [r3, #12]
 800736c:	697a      	ldr	r2, [r7, #20]
 800736e:	4313      	orrs	r3, r2
 8007370:	617b      	str	r3, [r7, #20]
    /* Reset the Output N State */
    tmpccer &= ~TIM_CCER_CC1NE;
 8007372:	697b      	ldr	r3, [r7, #20]
 8007374:	f023 0304 	bic.w	r3, r3, #4
 8007378:	617b      	str	r3, [r7, #20]
  }

  if (IS_TIM_BREAK_INSTANCE(TIMx))
 800737a:	687b      	ldr	r3, [r7, #4]
 800737c:	4a13      	ldr	r2, [pc, #76]	; (80073cc <TIM_OC1_SetConfig+0xc8>)
 800737e:	4293      	cmp	r3, r2
 8007380:	d111      	bne.n	80073a6 <TIM_OC1_SetConfig+0xa2>
    /* Check parameters */
    assert_param(IS_TIM_OCNIDLE_STATE(OC_Config->OCNIdleState));
    assert_param(IS_TIM_OCIDLE_STATE(OC_Config->OCIdleState));

    /* Reset the Output Compare and Output Compare N IDLE State */
    tmpcr2 &= ~TIM_CR2_OIS1;
 8007382:	693b      	ldr	r3, [r7, #16]
 8007384:	f423 7380 	bic.w	r3, r3, #256	; 0x100
 8007388:	613b      	str	r3, [r7, #16]
    tmpcr2 &= ~TIM_CR2_OIS1N;
 800738a:	693b      	ldr	r3, [r7, #16]
 800738c:	f423 7300 	bic.w	r3, r3, #512	; 0x200
 8007390:	613b      	str	r3, [r7, #16]
    /* Set the Output Idle state */
    tmpcr2 |= OC_Config->OCIdleState;
 8007392:	683b      	ldr	r3, [r7, #0]
 8007394:	695b      	ldr	r3, [r3, #20]
 8007396:	693a      	ldr	r2, [r7, #16]
 8007398:	4313      	orrs	r3, r2
 800739a:	613b      	str	r3, [r7, #16]
    /* Set the Output N Idle state */
    tmpcr2 |= OC_Config->OCNIdleState;
 800739c:	683b      	ldr	r3, [r7, #0]
 800739e:	699b      	ldr	r3, [r3, #24]
 80073a0:	693a      	ldr	r2, [r7, #16]
 80073a2:	4313      	orrs	r3, r2
 80073a4:	613b      	str	r3, [r7, #16]
  }

  /* Write to TIMx CR2 */
  TIMx->CR2 = tmpcr2;
 80073a6:	687b      	ldr	r3, [r7, #4]
 80073a8:	693a      	ldr	r2, [r7, #16]
 80073aa:	605a      	str	r2, [r3, #4]

  /* Write to TIMx CCMR1 */
  TIMx->CCMR1 = tmpccmrx;
 80073ac:	687b      	ldr	r3, [r7, #4]
 80073ae:	68fa      	ldr	r2, [r7, #12]
 80073b0:	619a      	str	r2, [r3, #24]

  /* Set the Capture Compare Register value */
  TIMx->CCR1 = OC_Config->Pulse;
 80073b2:	683b      	ldr	r3, [r7, #0]
 80073b4:	685a      	ldr	r2, [r3, #4]
 80073b6:	687b      	ldr	r3, [r7, #4]
 80073b8:	635a      	str	r2, [r3, #52]	; 0x34

  /* Write to TIMx CCER */
  TIMx->CCER = tmpccer;
 80073ba:	687b      	ldr	r3, [r7, #4]
 80073bc:	697a      	ldr	r2, [r7, #20]
 80073be:	621a      	str	r2, [r3, #32]
}
 80073c0:	bf00      	nop
 80073c2:	371c      	adds	r7, #28
 80073c4:	46bd      	mov	sp, r7
 80073c6:	bc80      	pop	{r7}
 80073c8:	4770      	bx	lr
 80073ca:	bf00      	nop
 80073cc:	40012c00 	.word	0x40012c00

080073d0 <TIM_OC2_SetConfig>:
  * @param  TIMx to select the TIM peripheral
  * @param  OC_Config The output configuration structure
  * @retval None
  */
void TIM_OC2_SetConfig(TIM_TypeDef *TIMx, TIM_OC_InitTypeDef *OC_Config)
{
 80073d0:	b480      	push	{r7}
 80073d2:	b087      	sub	sp, #28
 80073d4:	af00      	add	r7, sp, #0
 80073d6:	6078      	str	r0, [r7, #4]
 80073d8:	6039      	str	r1, [r7, #0]
  uint32_t tmpccmrx;
  uint32_t tmpccer;
  uint32_t tmpcr2;

  /* Disable the Channel 2: Reset the CC2E Bit */
  TIMx->CCER &= ~TIM_CCER_CC2E;
 80073da:	687b      	ldr	r3, [r7, #4]
 80073dc:	6a1b      	ldr	r3, [r3, #32]
 80073de:	f023 0210 	bic.w	r2, r3, #16
 80073e2:	687b      	ldr	r3, [r7, #4]
 80073e4:	621a      	str	r2, [r3, #32]

  /* Get the TIMx CCER register value */
  tmpccer = TIMx->CCER;
 80073e6:	687b      	ldr	r3, [r7, #4]
 80073e8:	6a1b      	ldr	r3, [r3, #32]
 80073ea:	617b      	str	r3, [r7, #20]
  /* Get the TIMx CR2 register value */
  tmpcr2 =  TIMx->CR2;
 80073ec:	687b      	ldr	r3, [r7, #4]
 80073ee:	685b      	ldr	r3, [r3, #4]
 80073f0:	613b      	str	r3, [r7, #16]

  /* Get the TIMx CCMR1 register value */
  tmpccmrx = TIMx->CCMR1;
 80073f2:	687b      	ldr	r3, [r7, #4]
 80073f4:	699b      	ldr	r3, [r3, #24]
 80073f6:	60fb      	str	r3, [r7, #12]

  /* Reset the Output Compare mode and Capture/Compare selection Bits */
  tmpccmrx &= ~TIM_CCMR1_OC2M;
 80073f8:	68fb      	ldr	r3, [r7, #12]
 80073fa:	f423 43e0 	bic.w	r3, r3, #28672	; 0x7000
 80073fe:	60fb      	str	r3, [r7, #12]
  tmpccmrx &= ~TIM_CCMR1_CC2S;
 8007400:	68fb      	ldr	r3, [r7, #12]
 8007402:	f423 7340 	bic.w	r3, r3, #768	; 0x300
 8007406:	60fb      	str	r3, [r7, #12]

  /* Select the Output Compare Mode */
  tmpccmrx |= (OC_Config->OCMode << 8U);
 8007408:	683b      	ldr	r3, [r7, #0]
 800740a:	681b      	ldr	r3, [r3, #0]
 800740c:	021b      	lsls	r3, r3, #8
 800740e:	68fa      	ldr	r2, [r7, #12]
 8007410:	4313      	orrs	r3, r2
 8007412:	60fb      	str	r3, [r7, #12]

  /* Reset the Output Polarity level */
  tmpccer &= ~TIM_CCER_CC2P;
 8007414:	697b      	ldr	r3, [r7, #20]
 8007416:	f023 0320 	bic.w	r3, r3, #32
 800741a:	617b      	str	r3, [r7, #20]
  /* Set the Output Compare Polarity */
  tmpccer |= (OC_Config->OCPolarity << 4U);
 800741c:	683b      	ldr	r3, [r7, #0]
 800741e:	689b      	ldr	r3, [r3, #8]
 8007420:	011b      	lsls	r3, r3, #4
 8007422:	697a      	ldr	r2, [r7, #20]
 8007424:	4313      	orrs	r3, r2
 8007426:	617b      	str	r3, [r7, #20]

  if (IS_TIM_CCXN_INSTANCE(TIMx, TIM_CHANNEL_2))
 8007428:	687b      	ldr	r3, [r7, #4]
 800742a:	4a1d      	ldr	r2, [pc, #116]	; (80074a0 <TIM_OC2_SetConfig+0xd0>)
 800742c:	4293      	cmp	r3, r2
 800742e:	d10d      	bne.n	800744c <TIM_OC2_SetConfig+0x7c>
  {
    assert_param(IS_TIM_OCN_POLARITY(OC_Config->OCNPolarity));

    /* Reset the Output N Polarity level */
    tmpccer &= ~TIM_CCER_CC2NP;
 8007430:	697b      	ldr	r3, [r7, #20]
 8007432:	f023 0380 	bic.w	r3, r3, #128	; 0x80
 8007436:	617b      	str	r3, [r7, #20]
    /* Set the Output N Polarity */
    tmpccer |= (OC_Config->OCNPolarity << 4U);
 8007438:	683b      	ldr	r3, [r7, #0]
 800743a:	68db      	ldr	r3, [r3, #12]
 800743c:	011b      	lsls	r3, r3, #4
 800743e:	697a      	ldr	r2, [r7, #20]
 8007440:	4313      	orrs	r3, r2
 8007442:	617b      	str	r3, [r7, #20]
    /* Reset the Output N State */
    tmpccer &= ~TIM_CCER_CC2NE;
 8007444:	697b      	ldr	r3, [r7, #20]
 8007446:	f023 0340 	bic.w	r3, r3, #64	; 0x40
 800744a:	617b      	str	r3, [r7, #20]

  }

  if (IS_TIM_BREAK_INSTANCE(TIMx))
 800744c:	687b      	ldr	r3, [r7, #4]
 800744e:	4a14      	ldr	r2, [pc, #80]	; (80074a0 <TIM_OC2_SetConfig+0xd0>)
 8007450:	4293      	cmp	r3, r2
 8007452:	d113      	bne.n	800747c <TIM_OC2_SetConfig+0xac>
    /* Check parameters */
    assert_param(IS_TIM_OCNIDLE_STATE(OC_Config->OCNIdleState));
    assert_param(IS_TIM_OCIDLE_STATE(OC_Config->OCIdleState));

    /* Reset the Output Compare and Output Compare N IDLE State */
    tmpcr2 &= ~TIM_CR2_OIS2;
 8007454:	693b      	ldr	r3, [r7, #16]
 8007456:	f423 6380 	bic.w	r3, r3, #1024	; 0x400
 800745a:	613b      	str	r3, [r7, #16]
    tmpcr2 &= ~TIM_CR2_OIS2N;
 800745c:	693b      	ldr	r3, [r7, #16]
 800745e:	f423 6300 	bic.w	r3, r3, #2048	; 0x800
 8007462:	613b      	str	r3, [r7, #16]
    /* Set the Output Idle state */
    tmpcr2 |= (OC_Config->OCIdleState << 2U);
 8007464:	683b      	ldr	r3, [r7, #0]
 8007466:	695b      	ldr	r3, [r3, #20]
 8007468:	009b      	lsls	r3, r3, #2
 800746a:	693a      	ldr	r2, [r7, #16]
 800746c:	4313      	orrs	r3, r2
 800746e:	613b      	str	r3, [r7, #16]
    /* Set the Output N Idle state */
    tmpcr2 |= (OC_Config->OCNIdleState << 2U);
 8007470:	683b      	ldr	r3, [r7, #0]
 8007472:	699b      	ldr	r3, [r3, #24]
 8007474:	009b      	lsls	r3, r3, #2
 8007476:	693a      	ldr	r2, [r7, #16]
 8007478:	4313      	orrs	r3, r2
 800747a:	613b      	str	r3, [r7, #16]
  }

  /* Write to TIMx CR2 */
  TIMx->CR2 = tmpcr2;
 800747c:	687b      	ldr	r3, [r7, #4]
 800747e:	693a      	ldr	r2, [r7, #16]
 8007480:	605a      	str	r2, [r3, #4]

  /* Write to TIMx CCMR1 */
  TIMx->CCMR1 = tmpccmrx;
 8007482:	687b      	ldr	r3, [r7, #4]
 8007484:	68fa      	ldr	r2, [r7, #12]
 8007486:	619a      	str	r2, [r3, #24]

  /* Set the Capture Compare Register value */
  TIMx->CCR2 = OC_Config->Pulse;
 8007488:	683b      	ldr	r3, [r7, #0]
 800748a:	685a      	ldr	r2, [r3, #4]
 800748c:	687b      	ldr	r3, [r7, #4]
 800748e:	639a      	str	r2, [r3, #56]	; 0x38

  /* Write to TIMx CCER */
  TIMx->CCER = tmpccer;
 8007490:	687b      	ldr	r3, [r7, #4]
 8007492:	697a      	ldr	r2, [r7, #20]
 8007494:	621a      	str	r2, [r3, #32]
}
 8007496:	bf00      	nop
 8007498:	371c      	adds	r7, #28
 800749a:	46bd      	mov	sp, r7
 800749c:	bc80      	pop	{r7}
 800749e:	4770      	bx	lr
 80074a0:	40012c00 	.word	0x40012c00

080074a4 <TIM_OC3_SetConfig>:
  * @param  TIMx to select the TIM peripheral
  * @param  OC_Config The output configuration structure
  * @retval None
  */
static void TIM_OC3_SetConfig(TIM_TypeDef *TIMx, TIM_OC_InitTypeDef *OC_Config)
{
 80074a4:	b480      	push	{r7}
 80074a6:	b087      	sub	sp, #28
 80074a8:	af00      	add	r7, sp, #0
 80074aa:	6078      	str	r0, [r7, #4]
 80074ac:	6039      	str	r1, [r7, #0]
  uint32_t tmpccmrx;
  uint32_t tmpccer;
  uint32_t tmpcr2;

  /* Disable the Channel 3: Reset the CC2E Bit */
  TIMx->CCER &= ~TIM_CCER_CC3E;
 80074ae:	687b      	ldr	r3, [r7, #4]
 80074b0:	6a1b      	ldr	r3, [r3, #32]
 80074b2:	f423 7280 	bic.w	r2, r3, #256	; 0x100
 80074b6:	687b      	ldr	r3, [r7, #4]
 80074b8:	621a      	str	r2, [r3, #32]

  /* Get the TIMx CCER register value */
  tmpccer = TIMx->CCER;
 80074ba:	687b      	ldr	r3, [r7, #4]
 80074bc:	6a1b      	ldr	r3, [r3, #32]
 80074be:	617b      	str	r3, [r7, #20]
  /* Get the TIMx CR2 register value */
  tmpcr2 =  TIMx->CR2;
 80074c0:	687b      	ldr	r3, [r7, #4]
 80074c2:	685b      	ldr	r3, [r3, #4]
 80074c4:	613b      	str	r3, [r7, #16]

  /* Get the TIMx CCMR2 register value */
  tmpccmrx = TIMx->CCMR2;
 80074c6:	687b      	ldr	r3, [r7, #4]
 80074c8:	69db      	ldr	r3, [r3, #28]
 80074ca:	60fb      	str	r3, [r7, #12]

  /* Reset the Output Compare mode and Capture/Compare selection Bits */
  tmpccmrx &= ~TIM_CCMR2_OC3M;
 80074cc:	68fb      	ldr	r3, [r7, #12]
 80074ce:	f023 0370 	bic.w	r3, r3, #112	; 0x70
 80074d2:	60fb      	str	r3, [r7, #12]
  tmpccmrx &= ~TIM_CCMR2_CC3S;
 80074d4:	68fb      	ldr	r3, [r7, #12]
 80074d6:	f023 0303 	bic.w	r3, r3, #3
 80074da:	60fb      	str	r3, [r7, #12]
  /* Select the Output Compare Mode */
  tmpccmrx |= OC_Config->OCMode;
 80074dc:	683b      	ldr	r3, [r7, #0]
 80074de:	681b      	ldr	r3, [r3, #0]
 80074e0:	68fa      	ldr	r2, [r7, #12]
 80074e2:	4313      	orrs	r3, r2
 80074e4:	60fb      	str	r3, [r7, #12]

  /* Reset the Output Polarity level */
  tmpccer &= ~TIM_CCER_CC3P;
 80074e6:	697b      	ldr	r3, [r7, #20]
 80074e8:	f423 7300 	bic.w	r3, r3, #512	; 0x200
 80074ec:	617b      	str	r3, [r7, #20]
  /* Set the Output Compare Polarity */
  tmpccer |= (OC_Config->OCPolarity << 8U);
 80074ee:	683b      	ldr	r3, [r7, #0]
 80074f0:	689b      	ldr	r3, [r3, #8]
 80074f2:	021b      	lsls	r3, r3, #8
 80074f4:	697a      	ldr	r2, [r7, #20]
 80074f6:	4313      	orrs	r3, r2
 80074f8:	617b      	str	r3, [r7, #20]

  if (IS_TIM_CCXN_INSTANCE(TIMx, TIM_CHANNEL_3))
 80074fa:	687b      	ldr	r3, [r7, #4]
 80074fc:	4a1d      	ldr	r2, [pc, #116]	; (8007574 <TIM_OC3_SetConfig+0xd0>)
 80074fe:	4293      	cmp	r3, r2
 8007500:	d10d      	bne.n	800751e <TIM_OC3_SetConfig+0x7a>
  {
    assert_param(IS_TIM_OCN_POLARITY(OC_Config->OCNPolarity));

    /* Reset the Output N Polarity level */
    tmpccer &= ~TIM_CCER_CC3NP;
 8007502:	697b      	ldr	r3, [r7, #20]
 8007504:	f423 6300 	bic.w	r3, r3, #2048	; 0x800
 8007508:	617b      	str	r3, [r7, #20]
    /* Set the Output N Polarity */
    tmpccer |= (OC_Config->OCNPolarity << 8U);
 800750a:	683b      	ldr	r3, [r7, #0]
 800750c:	68db      	ldr	r3, [r3, #12]
 800750e:	021b      	lsls	r3, r3, #8
 8007510:	697a      	ldr	r2, [r7, #20]
 8007512:	4313      	orrs	r3, r2
 8007514:	617b      	str	r3, [r7, #20]
    /* Reset the Output N State */
    tmpccer &= ~TIM_CCER_CC3NE;
 8007516:	697b      	ldr	r3, [r7, #20]
 8007518:	f423 6380 	bic.w	r3, r3, #1024	; 0x400
 800751c:	617b      	str	r3, [r7, #20]
  }

  if (IS_TIM_BREAK_INSTANCE(TIMx))
 800751e:	687b      	ldr	r3, [r7, #4]
 8007520:	4a14      	ldr	r2, [pc, #80]	; (8007574 <TIM_OC3_SetConfig+0xd0>)
 8007522:	4293      	cmp	r3, r2
 8007524:	d113      	bne.n	800754e <TIM_OC3_SetConfig+0xaa>
    /* Check parameters */
    assert_param(IS_TIM_OCNIDLE_STATE(OC_Config->OCNIdleState));
    assert_param(IS_TIM_OCIDLE_STATE(OC_Config->OCIdleState));

    /* Reset the Output Compare and Output Compare N IDLE State */
    tmpcr2 &= ~TIM_CR2_OIS3;
 8007526:	693b      	ldr	r3, [r7, #16]
 8007528:	f423 5380 	bic.w	r3, r3, #4096	; 0x1000
 800752c:	613b      	str	r3, [r7, #16]
    tmpcr2 &= ~TIM_CR2_OIS3N;
 800752e:	693b      	ldr	r3, [r7, #16]
 8007530:	f423 5300 	bic.w	r3, r3, #8192	; 0x2000
 8007534:	613b      	str	r3, [r7, #16]
    /* Set the Output Idle state */
    tmpcr2 |= (OC_Config->OCIdleState << 4U);
 8007536:	683b      	ldr	r3, [r7, #0]
 8007538:	695b      	ldr	r3, [r3, #20]
 800753a:	011b      	lsls	r3, r3, #4
 800753c:	693a      	ldr	r2, [r7, #16]
 800753e:	4313      	orrs	r3, r2
 8007540:	613b      	str	r3, [r7, #16]
    /* Set the Output N Idle state */
    tmpcr2 |= (OC_Config->OCNIdleState << 4U);
 8007542:	683b      	ldr	r3, [r7, #0]
 8007544:	699b      	ldr	r3, [r3, #24]
 8007546:	011b      	lsls	r3, r3, #4
 8007548:	693a      	ldr	r2, [r7, #16]
 800754a:	4313      	orrs	r3, r2
 800754c:	613b      	str	r3, [r7, #16]
  }

  /* Write to TIMx CR2 */
  TIMx->CR2 = tmpcr2;
 800754e:	687b      	ldr	r3, [r7, #4]
 8007550:	693a      	ldr	r2, [r7, #16]
 8007552:	605a      	str	r2, [r3, #4]

  /* Write to TIMx CCMR2 */
  TIMx->CCMR2 = tmpccmrx;
 8007554:	687b      	ldr	r3, [r7, #4]
 8007556:	68fa      	ldr	r2, [r7, #12]
 8007558:	61da      	str	r2, [r3, #28]

  /* Set the Capture Compare Register value */
  TIMx->CCR3 = OC_Config->Pulse;
 800755a:	683b      	ldr	r3, [r7, #0]
 800755c:	685a      	ldr	r2, [r3, #4]
 800755e:	687b      	ldr	r3, [r7, #4]
 8007560:	63da      	str	r2, [r3, #60]	; 0x3c

  /* Write to TIMx CCER */
  TIMx->CCER = tmpccer;
 8007562:	687b      	ldr	r3, [r7, #4]
 8007564:	697a      	ldr	r2, [r7, #20]
 8007566:	621a      	str	r2, [r3, #32]
}
 8007568:	bf00      	nop
 800756a:	371c      	adds	r7, #28
 800756c:	46bd      	mov	sp, r7
 800756e:	bc80      	pop	{r7}
 8007570:	4770      	bx	lr
 8007572:	bf00      	nop
 8007574:	40012c00 	.word	0x40012c00

08007578 <TIM_OC4_SetConfig>:
  * @param  TIMx to select the TIM peripheral
  * @param  OC_Config The output configuration structure
  * @retval None
  */
static void TIM_OC4_SetConfig(TIM_TypeDef *TIMx, TIM_OC_InitTypeDef *OC_Config)
{
 8007578:	b480      	push	{r7}
 800757a:	b087      	sub	sp, #28
 800757c:	af00      	add	r7, sp, #0
 800757e:	6078      	str	r0, [r7, #4]
 8007580:	6039      	str	r1, [r7, #0]
  uint32_t tmpccmrx;
  uint32_t tmpccer;
  uint32_t tmpcr2;

  /* Disable the Channel 4: Reset the CC4E Bit */
  TIMx->CCER &= ~TIM_CCER_CC4E;
 8007582:	687b      	ldr	r3, [r7, #4]
 8007584:	6a1b      	ldr	r3, [r3, #32]
 8007586:	f423 5280 	bic.w	r2, r3, #4096	; 0x1000
 800758a:	687b      	ldr	r3, [r7, #4]
 800758c:	621a      	str	r2, [r3, #32]

  /* Get the TIMx CCER register value */
  tmpccer = TIMx->CCER;
 800758e:	687b      	ldr	r3, [r7, #4]
 8007590:	6a1b      	ldr	r3, [r3, #32]
 8007592:	613b      	str	r3, [r7, #16]
  /* Get the TIMx CR2 register value */
  tmpcr2 =  TIMx->CR2;
 8007594:	687b      	ldr	r3, [r7, #4]
 8007596:	685b      	ldr	r3, [r3, #4]
 8007598:	617b      	str	r3, [r7, #20]

  /* Get the TIMx CCMR2 register value */
  tmpccmrx = TIMx->CCMR2;
 800759a:	687b      	ldr	r3, [r7, #4]
 800759c:	69db      	ldr	r3, [r3, #28]
 800759e:	60fb      	str	r3, [r7, #12]

  /* Reset the Output Compare mode and Capture/Compare selection Bits */
  tmpccmrx &= ~TIM_CCMR2_OC4M;
 80075a0:	68fb      	ldr	r3, [r7, #12]
 80075a2:	f423 43e0 	bic.w	r3, r3, #28672	; 0x7000
 80075a6:	60fb      	str	r3, [r7, #12]
  tmpccmrx &= ~TIM_CCMR2_CC4S;
 80075a8:	68fb      	ldr	r3, [r7, #12]
 80075aa:	f423 7340 	bic.w	r3, r3, #768	; 0x300
 80075ae:	60fb      	str	r3, [r7, #12]

  /* Select the Output Compare Mode */
  tmpccmrx |= (OC_Config->OCMode << 8U);
 80075b0:	683b      	ldr	r3, [r7, #0]
 80075b2:	681b      	ldr	r3, [r3, #0]
 80075b4:	021b      	lsls	r3, r3, #8
 80075b6:	68fa      	ldr	r2, [r7, #12]
 80075b8:	4313      	orrs	r3, r2
 80075ba:	60fb      	str	r3, [r7, #12]

  /* Reset the Output Polarity level */
  tmpccer &= ~TIM_CCER_CC4P;
 80075bc:	693b      	ldr	r3, [r7, #16]
 80075be:	f423 5300 	bic.w	r3, r3, #8192	; 0x2000
 80075c2:	613b      	str	r3, [r7, #16]
  /* Set the Output Compare Polarity */
  tmpccer |= (OC_Config->OCPolarity << 12U);
 80075c4:	683b      	ldr	r3, [r7, #0]
 80075c6:	689b      	ldr	r3, [r3, #8]
 80075c8:	031b      	lsls	r3, r3, #12
 80075ca:	693a      	ldr	r2, [r7, #16]
 80075cc:	4313      	orrs	r3, r2
 80075ce:	613b      	str	r3, [r7, #16]

  if (IS_TIM_BREAK_INSTANCE(TIMx))
 80075d0:	687b      	ldr	r3, [r7, #4]
 80075d2:	4a0f      	ldr	r2, [pc, #60]	; (8007610 <TIM_OC4_SetConfig+0x98>)
 80075d4:	4293      	cmp	r3, r2
 80075d6:	d109      	bne.n	80075ec <TIM_OC4_SetConfig+0x74>
  {
    /* Check parameters */
    assert_param(IS_TIM_OCIDLE_STATE(OC_Config->OCIdleState));

    /* Reset the Output Compare IDLE State */
    tmpcr2 &= ~TIM_CR2_OIS4;
 80075d8:	697b      	ldr	r3, [r7, #20]
 80075da:	f423 4380 	bic.w	r3, r3, #16384	; 0x4000
 80075de:	617b      	str	r3, [r7, #20]

    /* Set the Output Idle state */
    tmpcr2 |= (OC_Config->OCIdleState << 6U);
 80075e0:	683b      	ldr	r3, [r7, #0]
 80075e2:	695b      	ldr	r3, [r3, #20]
 80075e4:	019b      	lsls	r3, r3, #6
 80075e6:	697a      	ldr	r2, [r7, #20]
 80075e8:	4313      	orrs	r3, r2
 80075ea:	617b      	str	r3, [r7, #20]
  }

  /* Write to TIMx CR2 */
  TIMx->CR2 = tmpcr2;
 80075ec:	687b      	ldr	r3, [r7, #4]
 80075ee:	697a      	ldr	r2, [r7, #20]
 80075f0:	605a      	str	r2, [r3, #4]

  /* Write to TIMx CCMR2 */
  TIMx->CCMR2 = tmpccmrx;
 80075f2:	687b      	ldr	r3, [r7, #4]
 80075f4:	68fa      	ldr	r2, [r7, #12]
 80075f6:	61da      	str	r2, [r3, #28]

  /* Set the Capture Compare Register value */
  TIMx->CCR4 = OC_Config->Pulse;
 80075f8:	683b      	ldr	r3, [r7, #0]
 80075fa:	685a      	ldr	r2, [r3, #4]
 80075fc:	687b      	ldr	r3, [r7, #4]
 80075fe:	641a      	str	r2, [r3, #64]	; 0x40

  /* Write to TIMx CCER */
  TIMx->CCER = tmpccer;
 8007600:	687b      	ldr	r3, [r7, #4]
 8007602:	693a      	ldr	r2, [r7, #16]
 8007604:	621a      	str	r2, [r3, #32]
}
 8007606:	bf00      	nop
 8007608:	371c      	adds	r7, #28
 800760a:	46bd      	mov	sp, r7
 800760c:	bc80      	pop	{r7}
 800760e:	4770      	bx	lr
 8007610:	40012c00 	.word	0x40012c00

08007614 <TIM_TI1_ConfigInputStage>:
  * @param  TIM_ICFilter Specifies the Input Capture Filter.
  *          This parameter must be a value between 0x00 and 0x0F.
  * @retval None
  */
static void TIM_TI1_ConfigInputStage(TIM_TypeDef *TIMx, uint32_t TIM_ICPolarity, uint32_t TIM_ICFilter)
{
 8007614:	b480      	push	{r7}
 8007616:	b087      	sub	sp, #28
 8007618:	af00      	add	r7, sp, #0
 800761a:	60f8      	str	r0, [r7, #12]
 800761c:	60b9      	str	r1, [r7, #8]
 800761e:	607a      	str	r2, [r7, #4]
  uint32_t tmpccmr1;
  uint32_t tmpccer;

  /* Disable the Channel 1: Reset the CC1E Bit */
  tmpccer = TIMx->CCER;
 8007620:	68fb      	ldr	r3, [r7, #12]
 8007622:	6a1b      	ldr	r3, [r3, #32]
 8007624:	617b      	str	r3, [r7, #20]
  TIMx->CCER &= ~TIM_CCER_CC1E;
 8007626:	68fb      	ldr	r3, [r7, #12]
 8007628:	6a1b      	ldr	r3, [r3, #32]
 800762a:	f023 0201 	bic.w	r2, r3, #1
 800762e:	68fb      	ldr	r3, [r7, #12]
 8007630:	621a      	str	r2, [r3, #32]
  tmpccmr1 = TIMx->CCMR1;
 8007632:	68fb      	ldr	r3, [r7, #12]
 8007634:	699b      	ldr	r3, [r3, #24]
 8007636:	613b      	str	r3, [r7, #16]

  /* Set the filter */
  tmpccmr1 &= ~TIM_CCMR1_IC1F;
 8007638:	693b      	ldr	r3, [r7, #16]
 800763a:	f023 03f0 	bic.w	r3, r3, #240	; 0xf0
 800763e:	613b      	str	r3, [r7, #16]
  tmpccmr1 |= (TIM_ICFilter << 4U);
 8007640:	687b      	ldr	r3, [r7, #4]
 8007642:	011b      	lsls	r3, r3, #4
 8007644:	693a      	ldr	r2, [r7, #16]
 8007646:	4313      	orrs	r3, r2
 8007648:	613b      	str	r3, [r7, #16]

  /* Select the Polarity and set the CC1E Bit */
  tmpccer &= ~(TIM_CCER_CC1P | TIM_CCER_CC1NP);
 800764a:	697b      	ldr	r3, [r7, #20]
 800764c:	f023 030a 	bic.w	r3, r3, #10
 8007650:	617b      	str	r3, [r7, #20]
  tmpccer |= TIM_ICPolarity;
 8007652:	697a      	ldr	r2, [r7, #20]
 8007654:	68bb      	ldr	r3, [r7, #8]
 8007656:	4313      	orrs	r3, r2
 8007658:	617b      	str	r3, [r7, #20]

  /* Write to TIMx CCMR1 and CCER registers */
  TIMx->CCMR1 = tmpccmr1;
 800765a:	68fb      	ldr	r3, [r7, #12]
 800765c:	693a      	ldr	r2, [r7, #16]
 800765e:	619a      	str	r2, [r3, #24]
  TIMx->CCER = tmpccer;
 8007660:	68fb      	ldr	r3, [r7, #12]
 8007662:	697a      	ldr	r2, [r7, #20]
 8007664:	621a      	str	r2, [r3, #32]
}
 8007666:	bf00      	nop
 8007668:	371c      	adds	r7, #28
 800766a:	46bd      	mov	sp, r7
 800766c:	bc80      	pop	{r7}
 800766e:	4770      	bx	lr

08007670 <TIM_TI2_ConfigInputStage>:
  * @param  TIM_ICFilter Specifies the Input Capture Filter.
  *          This parameter must be a value between 0x00 and 0x0F.
  * @retval None
  */
static void TIM_TI2_ConfigInputStage(TIM_TypeDef *TIMx, uint32_t TIM_ICPolarity, uint32_t TIM_ICFilter)
{
 8007670:	b480      	push	{r7}
 8007672:	b087      	sub	sp, #28
 8007674:	af00      	add	r7, sp, #0
 8007676:	60f8      	str	r0, [r7, #12]
 8007678:	60b9      	str	r1, [r7, #8]
 800767a:	607a      	str	r2, [r7, #4]
  uint32_t tmpccmr1;
  uint32_t tmpccer;

  /* Disable the Channel 2: Reset the CC2E Bit */
  TIMx->CCER &= ~TIM_CCER_CC2E;
 800767c:	68fb      	ldr	r3, [r7, #12]
 800767e:	6a1b      	ldr	r3, [r3, #32]
 8007680:	f023 0210 	bic.w	r2, r3, #16
 8007684:	68fb      	ldr	r3, [r7, #12]
 8007686:	621a      	str	r2, [r3, #32]
  tmpccmr1 = TIMx->CCMR1;
 8007688:	68fb      	ldr	r3, [r7, #12]
 800768a:	699b      	ldr	r3, [r3, #24]
 800768c:	617b      	str	r3, [r7, #20]
  tmpccer = TIMx->CCER;
 800768e:	68fb      	ldr	r3, [r7, #12]
 8007690:	6a1b      	ldr	r3, [r3, #32]
 8007692:	613b      	str	r3, [r7, #16]

  /* Set the filter */
  tmpccmr1 &= ~TIM_CCMR1_IC2F;
 8007694:	697b      	ldr	r3, [r7, #20]
 8007696:	f423 4370 	bic.w	r3, r3, #61440	; 0xf000
 800769a:	617b      	str	r3, [r7, #20]
  tmpccmr1 |= (TIM_ICFilter << 12U);
 800769c:	687b      	ldr	r3, [r7, #4]
 800769e:	031b      	lsls	r3, r3, #12
 80076a0:	697a      	ldr	r2, [r7, #20]
 80076a2:	4313      	orrs	r3, r2
 80076a4:	617b      	str	r3, [r7, #20]

  /* Select the Polarity and set the CC2E Bit */
  tmpccer &= ~(TIM_CCER_CC2P | TIM_CCER_CC2NP);
 80076a6:	693b      	ldr	r3, [r7, #16]
 80076a8:	f023 03a0 	bic.w	r3, r3, #160	; 0xa0
 80076ac:	613b      	str	r3, [r7, #16]
  tmpccer |= (TIM_ICPolarity << 4U);
 80076ae:	68bb      	ldr	r3, [r7, #8]
 80076b0:	011b      	lsls	r3, r3, #4
 80076b2:	693a      	ldr	r2, [r7, #16]
 80076b4:	4313      	orrs	r3, r2
 80076b6:	613b      	str	r3, [r7, #16]

  /* Write to TIMx CCMR1 and CCER registers */
  TIMx->CCMR1 = tmpccmr1 ;
 80076b8:	68fb      	ldr	r3, [r7, #12]
 80076ba:	697a      	ldr	r2, [r7, #20]
 80076bc:	619a      	str	r2, [r3, #24]
  TIMx->CCER = tmpccer;
 80076be:	68fb      	ldr	r3, [r7, #12]
 80076c0:	693a      	ldr	r2, [r7, #16]
 80076c2:	621a      	str	r2, [r3, #32]
}
 80076c4:	bf00      	nop
 80076c6:	371c      	adds	r7, #28
 80076c8:	46bd      	mov	sp, r7
 80076ca:	bc80      	pop	{r7}
 80076cc:	4770      	bx	lr

080076ce <TIM_ITRx_SetConfig>:
  *            @arg TIM_TS_TI2FP2: Filtered Timer Input 2
  *            @arg TIM_TS_ETRF: External Trigger input
  * @retval None
  */
static void TIM_ITRx_SetConfig(TIM_TypeDef *TIMx, uint32_t InputTriggerSource)
{
 80076ce:	b480      	push	{r7}
 80076d0:	b085      	sub	sp, #20
 80076d2:	af00      	add	r7, sp, #0
 80076d4:	6078      	str	r0, [r7, #4]
 80076d6:	6039      	str	r1, [r7, #0]
  uint32_t tmpsmcr;

  /* Get the TIMx SMCR register value */
  tmpsmcr = TIMx->SMCR;
 80076d8:	687b      	ldr	r3, [r7, #4]
 80076da:	689b      	ldr	r3, [r3, #8]
 80076dc:	60fb      	str	r3, [r7, #12]
  /* Reset the TS Bits */
  tmpsmcr &= ~TIM_SMCR_TS;
 80076de:	68fb      	ldr	r3, [r7, #12]
 80076e0:	f023 0370 	bic.w	r3, r3, #112	; 0x70
 80076e4:	60fb      	str	r3, [r7, #12]
  /* Set the Input Trigger source and the slave mode*/
  tmpsmcr |= (InputTriggerSource | TIM_SLAVEMODE_EXTERNAL1);
 80076e6:	683a      	ldr	r2, [r7, #0]
 80076e8:	68fb      	ldr	r3, [r7, #12]
 80076ea:	4313      	orrs	r3, r2
 80076ec:	f043 0307 	orr.w	r3, r3, #7
 80076f0:	60fb      	str	r3, [r7, #12]
  /* Write to TIMx SMCR */
  TIMx->SMCR = tmpsmcr;
 80076f2:	687b      	ldr	r3, [r7, #4]
 80076f4:	68fa      	ldr	r2, [r7, #12]
 80076f6:	609a      	str	r2, [r3, #8]
}
 80076f8:	bf00      	nop
 80076fa:	3714      	adds	r7, #20
 80076fc:	46bd      	mov	sp, r7
 80076fe:	bc80      	pop	{r7}
 8007700:	4770      	bx	lr

08007702 <TIM_ETR_SetConfig>:
  *          This parameter must be a value between 0x00 and 0x0F
  * @retval None
  */
void TIM_ETR_SetConfig(TIM_TypeDef *TIMx, uint32_t TIM_ExtTRGPrescaler,
                       uint32_t TIM_ExtTRGPolarity, uint32_t ExtTRGFilter)
{
 8007702:	b480      	push	{r7}
 8007704:	b087      	sub	sp, #28
 8007706:	af00      	add	r7, sp, #0
 8007708:	60f8      	str	r0, [r7, #12]
 800770a:	60b9      	str	r1, [r7, #8]
 800770c:	607a      	str	r2, [r7, #4]
 800770e:	603b      	str	r3, [r7, #0]
  uint32_t tmpsmcr;

  tmpsmcr = TIMx->SMCR;
 8007710:	68fb      	ldr	r3, [r7, #12]
 8007712:	689b      	ldr	r3, [r3, #8]
 8007714:	617b      	str	r3, [r7, #20]

  /* Reset the ETR Bits */
  tmpsmcr &= ~(TIM_SMCR_ETF | TIM_SMCR_ETPS | TIM_SMCR_ECE | TIM_SMCR_ETP);
 8007716:	697b      	ldr	r3, [r7, #20]
 8007718:	f423 437f 	bic.w	r3, r3, #65280	; 0xff00
 800771c:	617b      	str	r3, [r7, #20]

  /* Set the Prescaler, the Filter value and the Polarity */
  tmpsmcr |= (uint32_t)(TIM_ExtTRGPrescaler | (TIM_ExtTRGPolarity | (ExtTRGFilter << 8U)));
 800771e:	683b      	ldr	r3, [r7, #0]
 8007720:	021a      	lsls	r2, r3, #8
 8007722:	687b      	ldr	r3, [r7, #4]
 8007724:	431a      	orrs	r2, r3
 8007726:	68bb      	ldr	r3, [r7, #8]
 8007728:	4313      	orrs	r3, r2
 800772a:	697a      	ldr	r2, [r7, #20]
 800772c:	4313      	orrs	r3, r2
 800772e:	617b      	str	r3, [r7, #20]

  /* Write to TIMx SMCR */
  TIMx->SMCR = tmpsmcr;
 8007730:	68fb      	ldr	r3, [r7, #12]
 8007732:	697a      	ldr	r2, [r7, #20]
 8007734:	609a      	str	r2, [r3, #8]
}
 8007736:	bf00      	nop
 8007738:	371c      	adds	r7, #28
 800773a:	46bd      	mov	sp, r7
 800773c:	bc80      	pop	{r7}
 800773e:	4770      	bx	lr

08007740 <TIM_CCxChannelCmd>:
  * @param  ChannelState specifies the TIM Channel CCxE bit new state.
  *          This parameter can be: TIM_CCx_ENABLE or TIM_CCx_DISABLE.
  * @retval None
  */
void TIM_CCxChannelCmd(TIM_TypeDef *TIMx, uint32_t Channel, uint32_t ChannelState)
{
 8007740:	b480      	push	{r7}
 8007742:	b087      	sub	sp, #28
 8007744:	af00      	add	r7, sp, #0
 8007746:	60f8      	str	r0, [r7, #12]
 8007748:	60b9      	str	r1, [r7, #8]
 800774a:	607a      	str	r2, [r7, #4]

  /* Check the parameters */
  assert_param(IS_TIM_CC1_INSTANCE(TIMx));
  assert_param(IS_TIM_CHANNELS(Channel));

  tmp = TIM_CCER_CC1E << (Channel & 0x1FU); /* 0x1FU = 31 bits max shift */
 800774c:	68bb      	ldr	r3, [r7, #8]
 800774e:	f003 031f 	and.w	r3, r3, #31
 8007752:	2201      	movs	r2, #1
 8007754:	fa02 f303 	lsl.w	r3, r2, r3
 8007758:	617b      	str	r3, [r7, #20]

  /* Reset the CCxE Bit */
  TIMx->CCER &= ~tmp;
 800775a:	68fb      	ldr	r3, [r7, #12]
 800775c:	6a1a      	ldr	r2, [r3, #32]
 800775e:	697b      	ldr	r3, [r7, #20]
 8007760:	43db      	mvns	r3, r3
 8007762:	401a      	ands	r2, r3
 8007764:	68fb      	ldr	r3, [r7, #12]
 8007766:	621a      	str	r2, [r3, #32]

  /* Set or reset the CCxE Bit */
  TIMx->CCER |= (uint32_t)(ChannelState << (Channel & 0x1FU)); /* 0x1FU = 31 bits max shift */
 8007768:	68fb      	ldr	r3, [r7, #12]
 800776a:	6a1a      	ldr	r2, [r3, #32]
 800776c:	68bb      	ldr	r3, [r7, #8]
 800776e:	f003 031f 	and.w	r3, r3, #31
 8007772:	6879      	ldr	r1, [r7, #4]
 8007774:	fa01 f303 	lsl.w	r3, r1, r3
 8007778:	431a      	orrs	r2, r3
 800777a:	68fb      	ldr	r3, [r7, #12]
 800777c:	621a      	str	r2, [r3, #32]
}
 800777e:	bf00      	nop
 8007780:	371c      	adds	r7, #28
 8007782:	46bd      	mov	sp, r7
 8007784:	bc80      	pop	{r7}
 8007786:	4770      	bx	lr

08007788 <HAL_TIMEx_MasterConfigSynchronization>:
  *         mode.
  * @retval HAL status
  */
HAL_StatusTypeDef HAL_TIMEx_MasterConfigSynchronization(TIM_HandleTypeDef *htim,
                                                        TIM_MasterConfigTypeDef *sMasterConfig)
{
 8007788:	b480      	push	{r7}
 800778a:	b085      	sub	sp, #20
 800778c:	af00      	add	r7, sp, #0
 800778e:	6078      	str	r0, [r7, #4]
 8007790:	6039      	str	r1, [r7, #0]
  assert_param(IS_TIM_MASTER_INSTANCE(htim->Instance));
  assert_param(IS_TIM_TRGO_SOURCE(sMasterConfig->MasterOutputTrigger));
  assert_param(IS_TIM_MSM_STATE(sMasterConfig->MasterSlaveMode));

  /* Check input state */
  __HAL_LOCK(htim);
 8007792:	687b      	ldr	r3, [r7, #4]
 8007794:	f893 303c 	ldrb.w	r3, [r3, #60]	; 0x3c
 8007798:	2b01      	cmp	r3, #1
 800779a:	d101      	bne.n	80077a0 <HAL_TIMEx_MasterConfigSynchronization+0x18>
 800779c:	2302      	movs	r3, #2
 800779e:	e046      	b.n	800782e <HAL_TIMEx_MasterConfigSynchronization+0xa6>
 80077a0:	687b      	ldr	r3, [r7, #4]
 80077a2:	2201      	movs	r2, #1
 80077a4:	f883 203c 	strb.w	r2, [r3, #60]	; 0x3c

  /* Change the handler state */
  htim->State = HAL_TIM_STATE_BUSY;
 80077a8:	687b      	ldr	r3, [r7, #4]
 80077aa:	2202      	movs	r2, #2
 80077ac:	f883 203d 	strb.w	r2, [r3, #61]	; 0x3d

  /* Get the TIMx CR2 register value */
  tmpcr2 = htim->Instance->CR2;
 80077b0:	687b      	ldr	r3, [r7, #4]
 80077b2:	681b      	ldr	r3, [r3, #0]
 80077b4:	685b      	ldr	r3, [r3, #4]
 80077b6:	60fb      	str	r3, [r7, #12]

  /* Get the TIMx SMCR register value */
  tmpsmcr = htim->Instance->SMCR;
 80077b8:	687b      	ldr	r3, [r7, #4]
 80077ba:	681b      	ldr	r3, [r3, #0]
 80077bc:	689b      	ldr	r3, [r3, #8]
 80077be:	60bb      	str	r3, [r7, #8]

  /* Reset the MMS Bits */
  tmpcr2 &= ~TIM_CR2_MMS;
 80077c0:	68fb      	ldr	r3, [r7, #12]
 80077c2:	f023 0370 	bic.w	r3, r3, #112	; 0x70
 80077c6:	60fb      	str	r3, [r7, #12]
  /* Select the TRGO source */
  tmpcr2 |=  sMasterConfig->MasterOutputTrigger;
 80077c8:	683b      	ldr	r3, [r7, #0]
 80077ca:	681b      	ldr	r3, [r3, #0]
 80077cc:	68fa      	ldr	r2, [r7, #12]
 80077ce:	4313      	orrs	r3, r2
 80077d0:	60fb      	str	r3, [r7, #12]

  /* Update TIMx CR2 */
  htim->Instance->CR2 = tmpcr2;
 80077d2:	687b      	ldr	r3, [r7, #4]
 80077d4:	681b      	ldr	r3, [r3, #0]
 80077d6:	68fa      	ldr	r2, [r7, #12]
 80077d8:	605a      	str	r2, [r3, #4]

  if (IS_TIM_SLAVE_INSTANCE(htim->Instance))
 80077da:	687b      	ldr	r3, [r7, #4]
 80077dc:	681b      	ldr	r3, [r3, #0]
 80077de:	4a16      	ldr	r2, [pc, #88]	; (8007838 <HAL_TIMEx_MasterConfigSynchronization+0xb0>)
 80077e0:	4293      	cmp	r3, r2
 80077e2:	d00e      	beq.n	8007802 <HAL_TIMEx_MasterConfigSynchronization+0x7a>
 80077e4:	687b      	ldr	r3, [r7, #4]
 80077e6:	681b      	ldr	r3, [r3, #0]
 80077e8:	f1b3 4f80 	cmp.w	r3, #1073741824	; 0x40000000
 80077ec:	d009      	beq.n	8007802 <HAL_TIMEx_MasterConfigSynchronization+0x7a>
 80077ee:	687b      	ldr	r3, [r7, #4]
 80077f0:	681b      	ldr	r3, [r3, #0]
 80077f2:	4a12      	ldr	r2, [pc, #72]	; (800783c <HAL_TIMEx_MasterConfigSynchronization+0xb4>)
 80077f4:	4293      	cmp	r3, r2
 80077f6:	d004      	beq.n	8007802 <HAL_TIMEx_MasterConfigSynchronization+0x7a>
 80077f8:	687b      	ldr	r3, [r7, #4]
 80077fa:	681b      	ldr	r3, [r3, #0]
 80077fc:	4a10      	ldr	r2, [pc, #64]	; (8007840 <HAL_TIMEx_MasterConfigSynchronization+0xb8>)
 80077fe:	4293      	cmp	r3, r2
 8007800:	d10c      	bne.n	800781c <HAL_TIMEx_MasterConfigSynchronization+0x94>
  {
    /* Reset the MSM Bit */
    tmpsmcr &= ~TIM_SMCR_MSM;
 8007802:	68bb      	ldr	r3, [r7, #8]
 8007804:	f023 0380 	bic.w	r3, r3, #128	; 0x80
 8007808:	60bb      	str	r3, [r7, #8]
    /* Set master mode */
    tmpsmcr |= sMasterConfig->MasterSlaveMode;
 800780a:	683b      	ldr	r3, [r7, #0]
 800780c:	685b      	ldr	r3, [r3, #4]
 800780e:	68ba      	ldr	r2, [r7, #8]
 8007810:	4313      	orrs	r3, r2
 8007812:	60bb      	str	r3, [r7, #8]

    /* Update TIMx SMCR */
    htim->Instance->SMCR = tmpsmcr;
 8007814:	687b      	ldr	r3, [r7, #4]
 8007816:	681b      	ldr	r3, [r3, #0]
 8007818:	68ba      	ldr	r2, [r7, #8]
 800781a:	609a      	str	r2, [r3, #8]
  }

  /* Change the htim state */
  htim->State = HAL_TIM_STATE_READY;
 800781c:	687b      	ldr	r3, [r7, #4]
 800781e:	2201      	movs	r2, #1
 8007820:	f883 203d 	strb.w	r2, [r3, #61]	; 0x3d

  __HAL_UNLOCK(htim);
 8007824:	687b      	ldr	r3, [r7, #4]
 8007826:	2200      	movs	r2, #0
 8007828:	f883 203c 	strb.w	r2, [r3, #60]	; 0x3c

  return HAL_OK;
 800782c:	2300      	movs	r3, #0
}
 800782e:	4618      	mov	r0, r3
 8007830:	3714      	adds	r7, #20
 8007832:	46bd      	mov	sp, r7
 8007834:	bc80      	pop	{r7}
 8007836:	4770      	bx	lr
 8007838:	40012c00 	.word	0x40012c00
 800783c:	40000400 	.word	0x40000400
 8007840:	40000800 	.word	0x40000800

08007844 <HAL_TIMEx_CommutCallback>:
  * @brief  Hall commutation changed callback in non-blocking mode
  * @param  htim TIM handle
  * @retval None
  */
__weak void HAL_TIMEx_CommutCallback(TIM_HandleTypeDef *htim)
{
 8007844:	b480      	push	{r7}
 8007846:	b083      	sub	sp, #12
 8007848:	af00      	add	r7, sp, #0
 800784a:	6078      	str	r0, [r7, #4]
  UNUSED(htim);

  /* NOTE : This function should not be modified, when the callback is needed,
            the HAL_TIMEx_CommutCallback could be implemented in the user file
   */
}
 800784c:	bf00      	nop
 800784e:	370c      	adds	r7, #12
 8007850:	46bd      	mov	sp, r7
 8007852:	bc80      	pop	{r7}
 8007854:	4770      	bx	lr

08007856 <HAL_TIMEx_BreakCallback>:
  * @brief  Hall Break detection callback in non-blocking mode
  * @param  htim TIM handle
  * @retval None
  */
__weak void HAL_TIMEx_BreakCallback(TIM_HandleTypeDef *htim)
{
 8007856:	b480      	push	{r7}
 8007858:	b083      	sub	sp, #12
 800785a:	af00      	add	r7, sp, #0
 800785c:	6078      	str	r0, [r7, #4]
  UNUSED(htim);

  /* NOTE : This function should not be modified, when the callback is needed,
            the HAL_TIMEx_BreakCallback could be implemented in the user file
   */
}
 800785e:	bf00      	nop
 8007860:	370c      	adds	r7, #12
 8007862:	46bd      	mov	sp, r7
 8007864:	bc80      	pop	{r7}
 8007866:	4770      	bx	lr

08007868 <HAL_UART_Init>:
  * @param  huart  Pointer to a UART_HandleTypeDef structure that contains
  *                the configuration information for the specified UART module.
  * @retval HAL status
  */
HAL_StatusTypeDef HAL_UART_Init(UART_HandleTypeDef *huart)
{
 8007868:	b580      	push	{r7, lr}
 800786a:	b082      	sub	sp, #8
 800786c:	af00      	add	r7, sp, #0
 800786e:	6078      	str	r0, [r7, #4]
  /* Check the UART handle allocation */
  if (huart == NULL)
 8007870:	687b      	ldr	r3, [r7, #4]
 8007872:	2b00      	cmp	r3, #0
 8007874:	d101      	bne.n	800787a <HAL_UART_Init+0x12>
  {
    return HAL_ERROR;
 8007876:	2301      	movs	r3, #1
 8007878:	e03f      	b.n	80078fa <HAL_UART_Init+0x92>
  assert_param(IS_UART_WORD_LENGTH(huart->Init.WordLength));
#if defined(USART_CR1_OVER8)
  assert_param(IS_UART_OVERSAMPLING(huart->Init.OverSampling));
#endif /* USART_CR1_OVER8 */

  if (huart->gState == HAL_UART_STATE_RESET)
 800787a:	687b      	ldr	r3, [r7, #4]
 800787c:	f893 303d 	ldrb.w	r3, [r3, #61]	; 0x3d
 8007880:	b2db      	uxtb	r3, r3
 8007882:	2b00      	cmp	r3, #0
 8007884:	d106      	bne.n	8007894 <HAL_UART_Init+0x2c>
  {
    /* Allocate lock resource and initialize it */
    huart->Lock = HAL_UNLOCKED;
 8007886:	687b      	ldr	r3, [r7, #4]
 8007888:	2200      	movs	r2, #0
 800788a:	f883 203c 	strb.w	r2, [r3, #60]	; 0x3c

    /* Init the low level hardware */
    huart->MspInitCallback(huart);
#else
    /* Init the low level hardware : GPIO, CLOCK */
    HAL_UART_MspInit(huart);
 800788e:	6878      	ldr	r0, [r7, #4]
 8007890:	f7fd f848 	bl	8004924 <HAL_UART_MspInit>
#endif /* (USE_HAL_UART_REGISTER_CALLBACKS) */
  }

  huart->gState = HAL_UART_STATE_BUSY;
 8007894:	687b      	ldr	r3, [r7, #4]
 8007896:	2224      	movs	r2, #36	; 0x24
 8007898:	f883 203d 	strb.w	r2, [r3, #61]	; 0x3d

  /* Disable the peripheral */
  __HAL_UART_DISABLE(huart);
 800789c:	687b      	ldr	r3, [r7, #4]
 800789e:	681b      	ldr	r3, [r3, #0]
 80078a0:	68da      	ldr	r2, [r3, #12]
 80078a2:	687b      	ldr	r3, [r7, #4]
 80078a4:	681b      	ldr	r3, [r3, #0]
 80078a6:	f422 5200 	bic.w	r2, r2, #8192	; 0x2000
 80078aa:	60da      	str	r2, [r3, #12]

  /* Set the UART Communication parameters */
  UART_SetConfig(huart);
 80078ac:	6878      	ldr	r0, [r7, #4]
 80078ae:	f000 fbab 	bl	8008008 <UART_SetConfig>

  /* In asynchronous mode, the following bits must be kept cleared:
     - LINEN and CLKEN bits in the USART_CR2 register,
     - SCEN, HDSEL and IREN  bits in the USART_CR3 register.*/
  CLEAR_BIT(huart->Instance->CR2, (USART_CR2_LINEN | USART_CR2_CLKEN));
 80078b2:	687b      	ldr	r3, [r7, #4]
 80078b4:	681b      	ldr	r3, [r3, #0]
 80078b6:	691a      	ldr	r2, [r3, #16]
 80078b8:	687b      	ldr	r3, [r7, #4]
 80078ba:	681b      	ldr	r3, [r3, #0]
 80078bc:	f422 4290 	bic.w	r2, r2, #18432	; 0x4800
 80078c0:	611a      	str	r2, [r3, #16]
  CLEAR_BIT(huart->Instance->CR3, (USART_CR3_SCEN | USART_CR3_HDSEL | USART_CR3_IREN));
 80078c2:	687b      	ldr	r3, [r7, #4]
 80078c4:	681b      	ldr	r3, [r3, #0]
 80078c6:	695a      	ldr	r2, [r3, #20]
 80078c8:	687b      	ldr	r3, [r7, #4]
 80078ca:	681b      	ldr	r3, [r3, #0]
 80078cc:	f022 022a 	bic.w	r2, r2, #42	; 0x2a
 80078d0:	615a      	str	r2, [r3, #20]

  /* Enable the peripheral */
  __HAL_UART_ENABLE(huart);
 80078d2:	687b      	ldr	r3, [r7, #4]
 80078d4:	681b      	ldr	r3, [r3, #0]
 80078d6:	68da      	ldr	r2, [r3, #12]
 80078d8:	687b      	ldr	r3, [r7, #4]
 80078da:	681b      	ldr	r3, [r3, #0]
 80078dc:	f442 5200 	orr.w	r2, r2, #8192	; 0x2000
 80078e0:	60da      	str	r2, [r3, #12]

  /* Initialize the UART state */
  huart->ErrorCode = HAL_UART_ERROR_NONE;
 80078e2:	687b      	ldr	r3, [r7, #4]
 80078e4:	2200      	movs	r2, #0
 80078e6:	641a      	str	r2, [r3, #64]	; 0x40
  huart->gState = HAL_UART_STATE_READY;
 80078e8:	687b      	ldr	r3, [r7, #4]
 80078ea:	2220      	movs	r2, #32
 80078ec:	f883 203d 	strb.w	r2, [r3, #61]	; 0x3d
  huart->RxState = HAL_UART_STATE_READY;
 80078f0:	687b      	ldr	r3, [r7, #4]
 80078f2:	2220      	movs	r2, #32
 80078f4:	f883 203e 	strb.w	r2, [r3, #62]	; 0x3e

  return HAL_OK;
 80078f8:	2300      	movs	r3, #0
}
 80078fa:	4618      	mov	r0, r3
 80078fc:	3708      	adds	r7, #8
 80078fe:	46bd      	mov	sp, r7
 8007900:	bd80      	pop	{r7, pc}

08007902 <HAL_UART_Receive_IT>:
  * @param  pData Pointer to data buffer (u8 or u16 data elements).
  * @param  Size  Amount of data elements (u8 or u16) to be received.
  * @retval HAL status
  */
HAL_StatusTypeDef HAL_UART_Receive_IT(UART_HandleTypeDef *huart, uint8_t *pData, uint16_t Size)
{
 8007902:	b580      	push	{r7, lr}
 8007904:	b084      	sub	sp, #16
 8007906:	af00      	add	r7, sp, #0
 8007908:	60f8      	str	r0, [r7, #12]
 800790a:	60b9      	str	r1, [r7, #8]
 800790c:	4613      	mov	r3, r2
 800790e:	80fb      	strh	r3, [r7, #6]
  /* Check that a Rx process is not already ongoing */
  if (huart->RxState == HAL_UART_STATE_READY)
 8007910:	68fb      	ldr	r3, [r7, #12]
 8007912:	f893 303e 	ldrb.w	r3, [r3, #62]	; 0x3e
 8007916:	b2db      	uxtb	r3, r3
 8007918:	2b20      	cmp	r3, #32
 800791a:	d11d      	bne.n	8007958 <HAL_UART_Receive_IT+0x56>
  {
    if ((pData == NULL) || (Size == 0U))
 800791c:	68bb      	ldr	r3, [r7, #8]
 800791e:	2b00      	cmp	r3, #0
 8007920:	d002      	beq.n	8007928 <HAL_UART_Receive_IT+0x26>
 8007922:	88fb      	ldrh	r3, [r7, #6]
 8007924:	2b00      	cmp	r3, #0
 8007926:	d101      	bne.n	800792c <HAL_UART_Receive_IT+0x2a>
    {
      return HAL_ERROR;
 8007928:	2301      	movs	r3, #1
 800792a:	e016      	b.n	800795a <HAL_UART_Receive_IT+0x58>
    }

    /* Process Locked */
    __HAL_LOCK(huart);
 800792c:	68fb      	ldr	r3, [r7, #12]
 800792e:	f893 303c 	ldrb.w	r3, [r3, #60]	; 0x3c
 8007932:	2b01      	cmp	r3, #1
 8007934:	d101      	bne.n	800793a <HAL_UART_Receive_IT+0x38>
 8007936:	2302      	movs	r3, #2
 8007938:	e00f      	b.n	800795a <HAL_UART_Receive_IT+0x58>
 800793a:	68fb      	ldr	r3, [r7, #12]
 800793c:	2201      	movs	r2, #1
 800793e:	f883 203c 	strb.w	r2, [r3, #60]	; 0x3c

    /* Set Reception type to Standard reception */
    huart->ReceptionType = HAL_UART_RECEPTION_STANDARD;
 8007942:	68fb      	ldr	r3, [r7, #12]
 8007944:	2200      	movs	r2, #0
 8007946:	631a      	str	r2, [r3, #48]	; 0x30

    return(UART_Start_Receive_IT(huart, pData, Size));
 8007948:	88fb      	ldrh	r3, [r7, #6]
 800794a:	461a      	mov	r2, r3
 800794c:	68b9      	ldr	r1, [r7, #8]
 800794e:	68f8      	ldr	r0, [r7, #12]
 8007950:	f000 f9d1 	bl	8007cf6 <UART_Start_Receive_IT>
 8007954:	4603      	mov	r3, r0
 8007956:	e000      	b.n	800795a <HAL_UART_Receive_IT+0x58>
  }
  else
  {
    return HAL_BUSY;
 8007958:	2302      	movs	r3, #2
  }
}
 800795a:	4618      	mov	r0, r3
 800795c:	3710      	adds	r7, #16
 800795e:	46bd      	mov	sp, r7
 8007960:	bd80      	pop	{r7, pc}
	...

08007964 <HAL_UART_IRQHandler>:
  * @param  huart  Pointer to a UART_HandleTypeDef structure that contains
  *                the configuration information for the specified UART module.
  * @retval None
  */
void HAL_UART_IRQHandler(UART_HandleTypeDef *huart)
{
 8007964:	b580      	push	{r7, lr}
 8007966:	b08a      	sub	sp, #40	; 0x28
 8007968:	af00      	add	r7, sp, #0
 800796a:	6078      	str	r0, [r7, #4]
  uint32_t isrflags   = READ_REG(huart->Instance->SR);
 800796c:	687b      	ldr	r3, [r7, #4]
 800796e:	681b      	ldr	r3, [r3, #0]
 8007970:	681b      	ldr	r3, [r3, #0]
 8007972:	627b      	str	r3, [r7, #36]	; 0x24
  uint32_t cr1its     = READ_REG(huart->Instance->CR1);
 8007974:	687b      	ldr	r3, [r7, #4]
 8007976:	681b      	ldr	r3, [r3, #0]
 8007978:	68db      	ldr	r3, [r3, #12]
 800797a:	623b      	str	r3, [r7, #32]
  uint32_t cr3its     = READ_REG(huart->Instance->CR3);
 800797c:	687b      	ldr	r3, [r7, #4]
 800797e:	681b      	ldr	r3, [r3, #0]
 8007980:	695b      	ldr	r3, [r3, #20]
 8007982:	61fb      	str	r3, [r7, #28]
  uint32_t errorflags = 0x00U;
 8007984:	2300      	movs	r3, #0
 8007986:	61bb      	str	r3, [r7, #24]
  uint32_t dmarequest = 0x00U;
 8007988:	2300      	movs	r3, #0
 800798a:	617b      	str	r3, [r7, #20]

  /* If no error occurs */
  errorflags = (isrflags & (uint32_t)(USART_SR_PE | USART_SR_FE | USART_SR_ORE | USART_SR_NE));
 800798c:	6a7b      	ldr	r3, [r7, #36]	; 0x24
 800798e:	f003 030f 	and.w	r3, r3, #15
 8007992:	61bb      	str	r3, [r7, #24]
  if (errorflags == RESET)
 8007994:	69bb      	ldr	r3, [r7, #24]
 8007996:	2b00      	cmp	r3, #0
 8007998:	d10d      	bne.n	80079b6 <HAL_UART_IRQHandler+0x52>
  {
    /* UART in mode Receiver -------------------------------------------------*/
    if (((isrflags & USART_SR_RXNE) != RESET) && ((cr1its & USART_CR1_RXNEIE) != RESET))
 800799a:	6a7b      	ldr	r3, [r7, #36]	; 0x24
 800799c:	f003 0320 	and.w	r3, r3, #32
 80079a0:	2b00      	cmp	r3, #0
 80079a2:	d008      	beq.n	80079b6 <HAL_UART_IRQHandler+0x52>
 80079a4:	6a3b      	ldr	r3, [r7, #32]
 80079a6:	f003 0320 	and.w	r3, r3, #32
 80079aa:	2b00      	cmp	r3, #0
 80079ac:	d003      	beq.n	80079b6 <HAL_UART_IRQHandler+0x52>
    {
      UART_Receive_IT(huart);
 80079ae:	6878      	ldr	r0, [r7, #4]
 80079b0:	f000 fa81 	bl	8007eb6 <UART_Receive_IT>
      return;
 80079b4:	e17c      	b.n	8007cb0 <HAL_UART_IRQHandler+0x34c>
    }
  }

  /* If some errors occur */
  if ((errorflags != RESET) && (((cr3its & USART_CR3_EIE) != RESET) || ((cr1its & (USART_CR1_RXNEIE | USART_CR1_PEIE)) != RESET)))
 80079b6:	69bb      	ldr	r3, [r7, #24]
 80079b8:	2b00      	cmp	r3, #0
 80079ba:	f000 80b1 	beq.w	8007b20 <HAL_UART_IRQHandler+0x1bc>
 80079be:	69fb      	ldr	r3, [r7, #28]
 80079c0:	f003 0301 	and.w	r3, r3, #1
 80079c4:	2b00      	cmp	r3, #0
 80079c6:	d105      	bne.n	80079d4 <HAL_UART_IRQHandler+0x70>
 80079c8:	6a3b      	ldr	r3, [r7, #32]
 80079ca:	f403 7390 	and.w	r3, r3, #288	; 0x120
 80079ce:	2b00      	cmp	r3, #0
 80079d0:	f000 80a6 	beq.w	8007b20 <HAL_UART_IRQHandler+0x1bc>
  {
    /* UART parity error interrupt occurred ----------------------------------*/
    if (((isrflags & USART_SR_PE) != RESET) && ((cr1its & USART_CR1_PEIE) != RESET))
 80079d4:	6a7b      	ldr	r3, [r7, #36]	; 0x24
 80079d6:	f003 0301 	and.w	r3, r3, #1
 80079da:	2b00      	cmp	r3, #0
 80079dc:	d00a      	beq.n	80079f4 <HAL_UART_IRQHandler+0x90>
 80079de:	6a3b      	ldr	r3, [r7, #32]
 80079e0:	f403 7380 	and.w	r3, r3, #256	; 0x100
 80079e4:	2b00      	cmp	r3, #0
 80079e6:	d005      	beq.n	80079f4 <HAL_UART_IRQHandler+0x90>
    {
      huart->ErrorCode |= HAL_UART_ERROR_PE;
 80079e8:	687b      	ldr	r3, [r7, #4]
 80079ea:	6c1b      	ldr	r3, [r3, #64]	; 0x40
 80079ec:	f043 0201 	orr.w	r2, r3, #1
 80079f0:	687b      	ldr	r3, [r7, #4]
 80079f2:	641a      	str	r2, [r3, #64]	; 0x40
    }

    /* UART noise error interrupt occurred -----------------------------------*/
    if (((isrflags & USART_SR_NE) != RESET) && ((cr3its & USART_CR3_EIE) != RESET))
 80079f4:	6a7b      	ldr	r3, [r7, #36]	; 0x24
 80079f6:	f003 0304 	and.w	r3, r3, #4
 80079fa:	2b00      	cmp	r3, #0
 80079fc:	d00a      	beq.n	8007a14 <HAL_UART_IRQHandler+0xb0>
 80079fe:	69fb      	ldr	r3, [r7, #28]
 8007a00:	f003 0301 	and.w	r3, r3, #1
 8007a04:	2b00      	cmp	r3, #0
 8007a06:	d005      	beq.n	8007a14 <HAL_UART_IRQHandler+0xb0>
    {
      huart->ErrorCode |= HAL_UART_ERROR_NE;
 8007a08:	687b      	ldr	r3, [r7, #4]
 8007a0a:	6c1b      	ldr	r3, [r3, #64]	; 0x40
 8007a0c:	f043 0202 	orr.w	r2, r3, #2
 8007a10:	687b      	ldr	r3, [r7, #4]
 8007a12:	641a      	str	r2, [r3, #64]	; 0x40
    }

    /* UART frame error interrupt occurred -----------------------------------*/
    if (((isrflags & USART_SR_FE) != RESET) && ((cr3its & USART_CR3_EIE) != RESET))
 8007a14:	6a7b      	ldr	r3, [r7, #36]	; 0x24
 8007a16:	f003 0302 	and.w	r3, r3, #2
 8007a1a:	2b00      	cmp	r3, #0
 8007a1c:	d00a      	beq.n	8007a34 <HAL_UART_IRQHandler+0xd0>
 8007a1e:	69fb      	ldr	r3, [r7, #28]
 8007a20:	f003 0301 	and.w	r3, r3, #1
 8007a24:	2b00      	cmp	r3, #0
 8007a26:	d005      	beq.n	8007a34 <HAL_UART_IRQHandler+0xd0>
    {
      huart->ErrorCode |= HAL_UART_ERROR_FE;
 8007a28:	687b      	ldr	r3, [r7, #4]
 8007a2a:	6c1b      	ldr	r3, [r3, #64]	; 0x40
 8007a2c:	f043 0204 	orr.w	r2, r3, #4
 8007a30:	687b      	ldr	r3, [r7, #4]
 8007a32:	641a      	str	r2, [r3, #64]	; 0x40
    }

    /* UART Over-Run interrupt occurred --------------------------------------*/
    if (((isrflags & USART_SR_ORE) != RESET) && (((cr1its & USART_CR1_RXNEIE) != RESET) || ((cr3its & USART_CR3_EIE) != RESET)))
 8007a34:	6a7b      	ldr	r3, [r7, #36]	; 0x24
 8007a36:	f003 0308 	and.w	r3, r3, #8
 8007a3a:	2b00      	cmp	r3, #0
 8007a3c:	d00f      	beq.n	8007a5e <HAL_UART_IRQHandler+0xfa>
 8007a3e:	6a3b      	ldr	r3, [r7, #32]
 8007a40:	f003 0320 	and.w	r3, r3, #32
 8007a44:	2b00      	cmp	r3, #0
 8007a46:	d104      	bne.n	8007a52 <HAL_UART_IRQHandler+0xee>
 8007a48:	69fb      	ldr	r3, [r7, #28]
 8007a4a:	f003 0301 	and.w	r3, r3, #1
 8007a4e:	2b00      	cmp	r3, #0
 8007a50:	d005      	beq.n	8007a5e <HAL_UART_IRQHandler+0xfa>
    {
      huart->ErrorCode |= HAL_UART_ERROR_ORE;
 8007a52:	687b      	ldr	r3, [r7, #4]
 8007a54:	6c1b      	ldr	r3, [r3, #64]	; 0x40
 8007a56:	f043 0208 	orr.w	r2, r3, #8
 8007a5a:	687b      	ldr	r3, [r7, #4]
 8007a5c:	641a      	str	r2, [r3, #64]	; 0x40
    }

    /* Call UART Error Call back function if need be --------------------------*/
    if (huart->ErrorCode != HAL_UART_ERROR_NONE)
 8007a5e:	687b      	ldr	r3, [r7, #4]
 8007a60:	6c1b      	ldr	r3, [r3, #64]	; 0x40
 8007a62:	2b00      	cmp	r3, #0
 8007a64:	f000 811f 	beq.w	8007ca6 <HAL_UART_IRQHandler+0x342>
    {
      /* UART in mode Receiver -----------------------------------------------*/
      if (((isrflags & USART_SR_RXNE) != RESET) && ((cr1its & USART_CR1_RXNEIE) != RESET))
 8007a68:	6a7b      	ldr	r3, [r7, #36]	; 0x24
 8007a6a:	f003 0320 	and.w	r3, r3, #32
 8007a6e:	2b00      	cmp	r3, #0
 8007a70:	d007      	beq.n	8007a82 <HAL_UART_IRQHandler+0x11e>
 8007a72:	6a3b      	ldr	r3, [r7, #32]
 8007a74:	f003 0320 	and.w	r3, r3, #32
 8007a78:	2b00      	cmp	r3, #0
 8007a7a:	d002      	beq.n	8007a82 <HAL_UART_IRQHandler+0x11e>
      {
        UART_Receive_IT(huart);
 8007a7c:	6878      	ldr	r0, [r7, #4]
 8007a7e:	f000 fa1a 	bl	8007eb6 <UART_Receive_IT>
      }

      /* If Overrun error occurs, or if any error occurs in DMA mode reception,
         consider error as blocking */
      dmarequest = HAL_IS_BIT_SET(huart->Instance->CR3, USART_CR3_DMAR);
 8007a82:	687b      	ldr	r3, [r7, #4]
 8007a84:	681b      	ldr	r3, [r3, #0]
 8007a86:	695b      	ldr	r3, [r3, #20]
 8007a88:	f003 0340 	and.w	r3, r3, #64	; 0x40
 8007a8c:	2b00      	cmp	r3, #0
 8007a8e:	bf14      	ite	ne
 8007a90:	2301      	movne	r3, #1
 8007a92:	2300      	moveq	r3, #0
 8007a94:	b2db      	uxtb	r3, r3
 8007a96:	617b      	str	r3, [r7, #20]
      if (((huart->ErrorCode & HAL_UART_ERROR_ORE) != RESET) || dmarequest)
 8007a98:	687b      	ldr	r3, [r7, #4]
 8007a9a:	6c1b      	ldr	r3, [r3, #64]	; 0x40
 8007a9c:	f003 0308 	and.w	r3, r3, #8
 8007aa0:	2b00      	cmp	r3, #0
 8007aa2:	d102      	bne.n	8007aaa <HAL_UART_IRQHandler+0x146>
 8007aa4:	697b      	ldr	r3, [r7, #20]
 8007aa6:	2b00      	cmp	r3, #0
 8007aa8:	d031      	beq.n	8007b0e <HAL_UART_IRQHandler+0x1aa>
      {
        /* Blocking error : transfer is aborted
           Set the UART state ready to be able to start again the process,
           Disable Rx Interrupts, and disable Rx DMA request, if ongoing */
        UART_EndRxTransfer(huart);
 8007aaa:	6878      	ldr	r0, [r7, #4]
 8007aac:	f000 f95c 	bl	8007d68 <UART_EndRxTransfer>

        /* Disable the UART DMA Rx request if enabled */
        if (HAL_IS_BIT_SET(huart->Instance->CR3, USART_CR3_DMAR))
 8007ab0:	687b      	ldr	r3, [r7, #4]
 8007ab2:	681b      	ldr	r3, [r3, #0]
 8007ab4:	695b      	ldr	r3, [r3, #20]
 8007ab6:	f003 0340 	and.w	r3, r3, #64	; 0x40
 8007aba:	2b00      	cmp	r3, #0
 8007abc:	d023      	beq.n	8007b06 <HAL_UART_IRQHandler+0x1a2>
        {
          CLEAR_BIT(huart->Instance->CR3, USART_CR3_DMAR);
 8007abe:	687b      	ldr	r3, [r7, #4]
 8007ac0:	681b      	ldr	r3, [r3, #0]
 8007ac2:	695a      	ldr	r2, [r3, #20]
 8007ac4:	687b      	ldr	r3, [r7, #4]
 8007ac6:	681b      	ldr	r3, [r3, #0]
 8007ac8:	f022 0240 	bic.w	r2, r2, #64	; 0x40
 8007acc:	615a      	str	r2, [r3, #20]

          /* Abort the UART DMA Rx channel */
          if (huart->hdmarx != NULL)
 8007ace:	687b      	ldr	r3, [r7, #4]
 8007ad0:	6b9b      	ldr	r3, [r3, #56]	; 0x38
 8007ad2:	2b00      	cmp	r3, #0
 8007ad4:	d013      	beq.n	8007afe <HAL_UART_IRQHandler+0x19a>
          {
            /* Set the UART DMA Abort callback :
               will lead to call HAL_UART_ErrorCallback() at end of DMA abort procedure */
            huart->hdmarx->XferAbortCallback = UART_DMAAbortOnError;
 8007ad6:	687b      	ldr	r3, [r7, #4]
 8007ad8:	6b9b      	ldr	r3, [r3, #56]	; 0x38
 8007ada:	4a77      	ldr	r2, [pc, #476]	; (8007cb8 <HAL_UART_IRQHandler+0x354>)
 8007adc:	635a      	str	r2, [r3, #52]	; 0x34
            if (HAL_DMA_Abort_IT(huart->hdmarx) != HAL_OK)
 8007ade:	687b      	ldr	r3, [r7, #4]
 8007ae0:	6b9b      	ldr	r3, [r3, #56]	; 0x38
 8007ae2:	4618      	mov	r0, r3
 8007ae4:	f7fd f984 	bl	8004df0 <HAL_DMA_Abort_IT>
 8007ae8:	4603      	mov	r3, r0
 8007aea:	2b00      	cmp	r3, #0
 8007aec:	d016      	beq.n	8007b1c <HAL_UART_IRQHandler+0x1b8>
            {
              /* Call Directly XferAbortCallback function in case of error */
              huart->hdmarx->XferAbortCallback(huart->hdmarx);
 8007aee:	687b      	ldr	r3, [r7, #4]
 8007af0:	6b9b      	ldr	r3, [r3, #56]	; 0x38
 8007af2:	6b5b      	ldr	r3, [r3, #52]	; 0x34
 8007af4:	687a      	ldr	r2, [r7, #4]
 8007af6:	6b92      	ldr	r2, [r2, #56]	; 0x38
 8007af8:	4610      	mov	r0, r2
 8007afa:	4798      	blx	r3
        if (HAL_IS_BIT_SET(huart->Instance->CR3, USART_CR3_DMAR))
 8007afc:	e00e      	b.n	8007b1c <HAL_UART_IRQHandler+0x1b8>
#if (USE_HAL_UART_REGISTER_CALLBACKS == 1)
            /*Call registered error callback*/
            huart->ErrorCallback(huart);
#else
            /*Call legacy weak error callback*/
            HAL_UART_ErrorCallback(huart);
 8007afe:	6878      	ldr	r0, [r7, #4]
 8007b00:	f000 f8e5 	bl	8007cce <HAL_UART_ErrorCallback>
        if (HAL_IS_BIT_SET(huart->Instance->CR3, USART_CR3_DMAR))
 8007b04:	e00a      	b.n	8007b1c <HAL_UART_IRQHandler+0x1b8>
#if (USE_HAL_UART_REGISTER_CALLBACKS == 1)
          /*Call registered error callback*/
          huart->ErrorCallback(huart);
#else
          /*Call legacy weak error callback*/
          HAL_UART_ErrorCallback(huart);
 8007b06:	6878      	ldr	r0, [r7, #4]
 8007b08:	f000 f8e1 	bl	8007cce <HAL_UART_ErrorCallback>
        if (HAL_IS_BIT_SET(huart->Instance->CR3, USART_CR3_DMAR))
 8007b0c:	e006      	b.n	8007b1c <HAL_UART_IRQHandler+0x1b8>
#if (USE_HAL_UART_REGISTER_CALLBACKS == 1)
        /*Call registered error callback*/
        huart->ErrorCallback(huart);
#else
        /*Call legacy weak error callback*/
        HAL_UART_ErrorCallback(huart);
 8007b0e:	6878      	ldr	r0, [r7, #4]
 8007b10:	f000 f8dd 	bl	8007cce <HAL_UART_ErrorCallback>
#endif /* USE_HAL_UART_REGISTER_CALLBACKS */

        huart->ErrorCode = HAL_UART_ERROR_NONE;
 8007b14:	687b      	ldr	r3, [r7, #4]
 8007b16:	2200      	movs	r2, #0
 8007b18:	641a      	str	r2, [r3, #64]	; 0x40
      }
    }
    return;
 8007b1a:	e0c4      	b.n	8007ca6 <HAL_UART_IRQHandler+0x342>
        if (HAL_IS_BIT_SET(huart->Instance->CR3, USART_CR3_DMAR))
 8007b1c:	bf00      	nop
    return;
 8007b1e:	e0c2      	b.n	8007ca6 <HAL_UART_IRQHandler+0x342>
  } /* End if some error occurs */

  /* Check current reception Mode :
     If Reception till IDLE event has been selected : */
  if (  (huart->ReceptionType == HAL_UART_RECEPTION_TOIDLE)
 8007b20:	687b      	ldr	r3, [r7, #4]
 8007b22:	6b1b      	ldr	r3, [r3, #48]	; 0x30
 8007b24:	2b01      	cmp	r3, #1
 8007b26:	f040 80a1 	bne.w	8007c6c <HAL_UART_IRQHandler+0x308>
      &&((isrflags & USART_SR_IDLE) != 0U)
 8007b2a:	6a7b      	ldr	r3, [r7, #36]	; 0x24
 8007b2c:	f003 0310 	and.w	r3, r3, #16
 8007b30:	2b00      	cmp	r3, #0
 8007b32:	f000 809b 	beq.w	8007c6c <HAL_UART_IRQHandler+0x308>
      &&((cr1its & USART_SR_IDLE) != 0U))
 8007b36:	6a3b      	ldr	r3, [r7, #32]
 8007b38:	f003 0310 	and.w	r3, r3, #16
 8007b3c:	2b00      	cmp	r3, #0
 8007b3e:	f000 8095 	beq.w	8007c6c <HAL_UART_IRQHandler+0x308>
  {
    __HAL_UART_CLEAR_IDLEFLAG(huart);
 8007b42:	2300      	movs	r3, #0
 8007b44:	60fb      	str	r3, [r7, #12]
 8007b46:	687b      	ldr	r3, [r7, #4]
 8007b48:	681b      	ldr	r3, [r3, #0]
 8007b4a:	681b      	ldr	r3, [r3, #0]
 8007b4c:	60fb      	str	r3, [r7, #12]
 8007b4e:	687b      	ldr	r3, [r7, #4]
 8007b50:	681b      	ldr	r3, [r3, #0]
 8007b52:	685b      	ldr	r3, [r3, #4]
 8007b54:	60fb      	str	r3, [r7, #12]
 8007b56:	68fb      	ldr	r3, [r7, #12]

    /* Check if DMA mode is enabled in UART */
    if (HAL_IS_BIT_SET(huart->Instance->CR3, USART_CR3_DMAR))
 8007b58:	687b      	ldr	r3, [r7, #4]
 8007b5a:	681b      	ldr	r3, [r3, #0]
 8007b5c:	695b      	ldr	r3, [r3, #20]
 8007b5e:	f003 0340 	and.w	r3, r3, #64	; 0x40
 8007b62:	2b00      	cmp	r3, #0
 8007b64:	d04e      	beq.n	8007c04 <HAL_UART_IRQHandler+0x2a0>
    {
      /* DMA mode enabled */
      /* Check received length : If all expected data are received, do nothing,
         (DMA cplt callback will be called).
         Otherwise, if at least one data has already been received, IDLE event is to be notified to user */
      uint16_t nb_remaining_rx_data = (uint16_t) __HAL_DMA_GET_COUNTER(huart->hdmarx);
 8007b66:	687b      	ldr	r3, [r7, #4]
 8007b68:	6b9b      	ldr	r3, [r3, #56]	; 0x38
 8007b6a:	681b      	ldr	r3, [r3, #0]
 8007b6c:	685b      	ldr	r3, [r3, #4]
 8007b6e:	823b      	strh	r3, [r7, #16]
      if (  (nb_remaining_rx_data > 0U)
 8007b70:	8a3b      	ldrh	r3, [r7, #16]
 8007b72:	2b00      	cmp	r3, #0
 8007b74:	f000 8099 	beq.w	8007caa <HAL_UART_IRQHandler+0x346>
          &&(nb_remaining_rx_data < huart->RxXferSize))
 8007b78:	687b      	ldr	r3, [r7, #4]
 8007b7a:	8d9b      	ldrh	r3, [r3, #44]	; 0x2c
 8007b7c:	8a3a      	ldrh	r2, [r7, #16]
 8007b7e:	429a      	cmp	r2, r3
 8007b80:	f080 8093 	bcs.w	8007caa <HAL_UART_IRQHandler+0x346>
      {
        /* Reception is not complete */
        huart->RxXferCount = nb_remaining_rx_data;
 8007b84:	687b      	ldr	r3, [r7, #4]
 8007b86:	8a3a      	ldrh	r2, [r7, #16]
 8007b88:	85da      	strh	r2, [r3, #46]	; 0x2e

        /* In Normal mode, end DMA xfer and HAL UART Rx process*/
        if (huart->hdmarx->Init.Mode != DMA_CIRCULAR)
 8007b8a:	687b      	ldr	r3, [r7, #4]
 8007b8c:	6b9b      	ldr	r3, [r3, #56]	; 0x38
 8007b8e:	699b      	ldr	r3, [r3, #24]
 8007b90:	2b20      	cmp	r3, #32
 8007b92:	d02b      	beq.n	8007bec <HAL_UART_IRQHandler+0x288>
        {
          /* Disable PE and ERR (Frame error, noise error, overrun error) interrupts */
          CLEAR_BIT(huart->Instance->CR1, USART_CR1_PEIE);
 8007b94:	687b      	ldr	r3, [r7, #4]
 8007b96:	681b      	ldr	r3, [r3, #0]
 8007b98:	68da      	ldr	r2, [r3, #12]
 8007b9a:	687b      	ldr	r3, [r7, #4]
 8007b9c:	681b      	ldr	r3, [r3, #0]
 8007b9e:	f422 7280 	bic.w	r2, r2, #256	; 0x100
 8007ba2:	60da      	str	r2, [r3, #12]
          CLEAR_BIT(huart->Instance->CR3, USART_CR3_EIE);
 8007ba4:	687b      	ldr	r3, [r7, #4]
 8007ba6:	681b      	ldr	r3, [r3, #0]
 8007ba8:	695a      	ldr	r2, [r3, #20]
 8007baa:	687b      	ldr	r3, [r7, #4]
 8007bac:	681b      	ldr	r3, [r3, #0]
 8007bae:	f022 0201 	bic.w	r2, r2, #1
 8007bb2:	615a      	str	r2, [r3, #20]

          /* Disable the DMA transfer for the receiver request by resetting the DMAR bit
             in the UART CR3 register */
          CLEAR_BIT(huart->Instance->CR3, USART_CR3_DMAR);
 8007bb4:	687b      	ldr	r3, [r7, #4]
 8007bb6:	681b      	ldr	r3, [r3, #0]
 8007bb8:	695a      	ldr	r2, [r3, #20]
 8007bba:	687b      	ldr	r3, [r7, #4]
 8007bbc:	681b      	ldr	r3, [r3, #0]
 8007bbe:	f022 0240 	bic.w	r2, r2, #64	; 0x40
 8007bc2:	615a      	str	r2, [r3, #20]

          /* At end of Rx process, restore huart->RxState to Ready */
          huart->RxState = HAL_UART_STATE_READY;
 8007bc4:	687b      	ldr	r3, [r7, #4]
 8007bc6:	2220      	movs	r2, #32
 8007bc8:	f883 203e 	strb.w	r2, [r3, #62]	; 0x3e
          huart->ReceptionType = HAL_UART_RECEPTION_STANDARD;
 8007bcc:	687b      	ldr	r3, [r7, #4]
 8007bce:	2200      	movs	r2, #0
 8007bd0:	631a      	str	r2, [r3, #48]	; 0x30

          CLEAR_BIT(huart->Instance->CR1, USART_CR1_IDLEIE);
 8007bd2:	687b      	ldr	r3, [r7, #4]
 8007bd4:	681b      	ldr	r3, [r3, #0]
 8007bd6:	68da      	ldr	r2, [r3, #12]
 8007bd8:	687b      	ldr	r3, [r7, #4]
 8007bda:	681b      	ldr	r3, [r3, #0]
 8007bdc:	f022 0210 	bic.w	r2, r2, #16
 8007be0:	60da      	str	r2, [r3, #12]

          /* Last bytes received, so no need as the abort is immediate */
          (void)HAL_DMA_Abort(huart->hdmarx);
 8007be2:	687b      	ldr	r3, [r7, #4]
 8007be4:	6b9b      	ldr	r3, [r3, #56]	; 0x38
 8007be6:	4618      	mov	r0, r3
 8007be8:	f7fd f8c7 	bl	8004d7a <HAL_DMA_Abort>
#if (USE_HAL_UART_REGISTER_CALLBACKS == 1)
        /*Call registered Rx Event callback*/
        huart->RxEventCallback(huart, (huart->RxXferSize - huart->RxXferCount));
#else
        /*Call legacy weak Rx Event callback*/
        HAL_UARTEx_RxEventCallback(huart, (huart->RxXferSize - huart->RxXferCount));
 8007bec:	687b      	ldr	r3, [r7, #4]
 8007bee:	8d9a      	ldrh	r2, [r3, #44]	; 0x2c
 8007bf0:	687b      	ldr	r3, [r7, #4]
 8007bf2:	8ddb      	ldrh	r3, [r3, #46]	; 0x2e
 8007bf4:	b29b      	uxth	r3, r3
 8007bf6:	1ad3      	subs	r3, r2, r3
 8007bf8:	b29b      	uxth	r3, r3
 8007bfa:	4619      	mov	r1, r3
 8007bfc:	6878      	ldr	r0, [r7, #4]
 8007bfe:	f000 f86f 	bl	8007ce0 <HAL_UARTEx_RxEventCallback>
#endif
      }
      return;
 8007c02:	e052      	b.n	8007caa <HAL_UART_IRQHandler+0x346>
    else
    {
      /* DMA mode not enabled */
      /* Check received length : If all expected data are received, do nothing.
         Otherwise, if at least one data has already been received, IDLE event is to be notified to user */
      uint16_t nb_rx_data = huart->RxXferSize - huart->RxXferCount;
 8007c04:	687b      	ldr	r3, [r7, #4]
 8007c06:	8d9a      	ldrh	r2, [r3, #44]	; 0x2c
 8007c08:	687b      	ldr	r3, [r7, #4]
 8007c0a:	8ddb      	ldrh	r3, [r3, #46]	; 0x2e
 8007c0c:	b29b      	uxth	r3, r3
 8007c0e:	1ad3      	subs	r3, r2, r3
 8007c10:	827b      	strh	r3, [r7, #18]
      if (  (huart->RxXferCount > 0U)
 8007c12:	687b      	ldr	r3, [r7, #4]
 8007c14:	8ddb      	ldrh	r3, [r3, #46]	; 0x2e
 8007c16:	b29b      	uxth	r3, r3
 8007c18:	2b00      	cmp	r3, #0
 8007c1a:	d048      	beq.n	8007cae <HAL_UART_IRQHandler+0x34a>
          &&(nb_rx_data > 0U) )
 8007c1c:	8a7b      	ldrh	r3, [r7, #18]
 8007c1e:	2b00      	cmp	r3, #0
 8007c20:	d045      	beq.n	8007cae <HAL_UART_IRQHandler+0x34a>
      {
        /* Disable the UART Parity Error Interrupt and RXNE interrupts */
        CLEAR_BIT(huart->Instance->CR1, (USART_CR1_RXNEIE | USART_CR1_PEIE));
 8007c22:	687b      	ldr	r3, [r7, #4]
 8007c24:	681b      	ldr	r3, [r3, #0]
 8007c26:	68da      	ldr	r2, [r3, #12]
 8007c28:	687b      	ldr	r3, [r7, #4]
 8007c2a:	681b      	ldr	r3, [r3, #0]
 8007c2c:	f422 7290 	bic.w	r2, r2, #288	; 0x120
 8007c30:	60da      	str	r2, [r3, #12]

        /* Disable the UART Error Interrupt: (Frame error, noise error, overrun error) */
        CLEAR_BIT(huart->Instance->CR3, USART_CR3_EIE);
 8007c32:	687b      	ldr	r3, [r7, #4]
 8007c34:	681b      	ldr	r3, [r3, #0]
 8007c36:	695a      	ldr	r2, [r3, #20]
 8007c38:	687b      	ldr	r3, [r7, #4]
 8007c3a:	681b      	ldr	r3, [r3, #0]
 8007c3c:	f022 0201 	bic.w	r2, r2, #1
 8007c40:	615a      	str	r2, [r3, #20]

        /* Rx process is completed, restore huart->RxState to Ready */
        huart->RxState = HAL_UART_STATE_READY;
 8007c42:	687b      	ldr	r3, [r7, #4]
 8007c44:	2220      	movs	r2, #32
 8007c46:	f883 203e 	strb.w	r2, [r3, #62]	; 0x3e
        huart->ReceptionType = HAL_UART_RECEPTION_STANDARD;
 8007c4a:	687b      	ldr	r3, [r7, #4]
 8007c4c:	2200      	movs	r2, #0
 8007c4e:	631a      	str	r2, [r3, #48]	; 0x30

        CLEAR_BIT(huart->Instance->CR1, USART_CR1_IDLEIE);
 8007c50:	687b      	ldr	r3, [r7, #4]
 8007c52:	681b      	ldr	r3, [r3, #0]
 8007c54:	68da      	ldr	r2, [r3, #12]
 8007c56:	687b      	ldr	r3, [r7, #4]
 8007c58:	681b      	ldr	r3, [r3, #0]
 8007c5a:	f022 0210 	bic.w	r2, r2, #16
 8007c5e:	60da      	str	r2, [r3, #12]
#if (USE_HAL_UART_REGISTER_CALLBACKS == 1)
        /*Call registered Rx complete callback*/
        huart->RxEventCallback(huart, nb_rx_data);
#else
        /*Call legacy weak Rx Event callback*/
        HAL_UARTEx_RxEventCallback(huart, nb_rx_data);
 8007c60:	8a7b      	ldrh	r3, [r7, #18]
 8007c62:	4619      	mov	r1, r3
 8007c64:	6878      	ldr	r0, [r7, #4]
 8007c66:	f000 f83b 	bl	8007ce0 <HAL_UARTEx_RxEventCallback>
#endif
      }
      return;
 8007c6a:	e020      	b.n	8007cae <HAL_UART_IRQHandler+0x34a>
    }
  }

  /* UART in mode Transmitter ------------------------------------------------*/
  if (((isrflags & USART_SR_TXE) != RESET) && ((cr1its & USART_CR1_TXEIE) != RESET))
 8007c6c:	6a7b      	ldr	r3, [r7, #36]	; 0x24
 8007c6e:	f003 0380 	and.w	r3, r3, #128	; 0x80
 8007c72:	2b00      	cmp	r3, #0
 8007c74:	d008      	beq.n	8007c88 <HAL_UART_IRQHandler+0x324>
 8007c76:	6a3b      	ldr	r3, [r7, #32]
 8007c78:	f003 0380 	and.w	r3, r3, #128	; 0x80
 8007c7c:	2b00      	cmp	r3, #0
 8007c7e:	d003      	beq.n	8007c88 <HAL_UART_IRQHandler+0x324>
  {
    UART_Transmit_IT(huart);
 8007c80:	6878      	ldr	r0, [r7, #4]
 8007c82:	f000 f8b1 	bl	8007de8 <UART_Transmit_IT>
    return;
 8007c86:	e013      	b.n	8007cb0 <HAL_UART_IRQHandler+0x34c>
  }

  /* UART in mode Transmitter end --------------------------------------------*/
  if (((isrflags & USART_SR_TC) != RESET) && ((cr1its & USART_CR1_TCIE) != RESET))
 8007c88:	6a7b      	ldr	r3, [r7, #36]	; 0x24
 8007c8a:	f003 0340 	and.w	r3, r3, #64	; 0x40
 8007c8e:	2b00      	cmp	r3, #0
 8007c90:	d00e      	beq.n	8007cb0 <HAL_UART_IRQHandler+0x34c>
 8007c92:	6a3b      	ldr	r3, [r7, #32]
 8007c94:	f003 0340 	and.w	r3, r3, #64	; 0x40
 8007c98:	2b00      	cmp	r3, #0
 8007c9a:	d009      	beq.n	8007cb0 <HAL_UART_IRQHandler+0x34c>
  {
    UART_EndTransmit_IT(huart);
 8007c9c:	6878      	ldr	r0, [r7, #4]
 8007c9e:	f000 f8f2 	bl	8007e86 <UART_EndTransmit_IT>
    return;
 8007ca2:	bf00      	nop
 8007ca4:	e004      	b.n	8007cb0 <HAL_UART_IRQHandler+0x34c>
    return;
 8007ca6:	bf00      	nop
 8007ca8:	e002      	b.n	8007cb0 <HAL_UART_IRQHandler+0x34c>
      return;
 8007caa:	bf00      	nop
 8007cac:	e000      	b.n	8007cb0 <HAL_UART_IRQHandler+0x34c>
      return;
 8007cae:	bf00      	nop
  }
}
 8007cb0:	3728      	adds	r7, #40	; 0x28
 8007cb2:	46bd      	mov	sp, r7
 8007cb4:	bd80      	pop	{r7, pc}
 8007cb6:	bf00      	nop
 8007cb8:	08007dc1 	.word	0x08007dc1

08007cbc <HAL_UART_TxCpltCallback>:
  * @param  huart  Pointer to a UART_HandleTypeDef structure that contains
  *                the configuration information for the specified UART module.
  * @retval None
  */
__weak void HAL_UART_TxCpltCallback(UART_HandleTypeDef *huart)
{
 8007cbc:	b480      	push	{r7}
 8007cbe:	b083      	sub	sp, #12
 8007cc0:	af00      	add	r7, sp, #0
 8007cc2:	6078      	str	r0, [r7, #4]
  /* Prevent unused argument(s) compilation warning */
  UNUSED(huart);
  /* NOTE: This function should not be modified, when the callback is needed,
           the HAL_UART_TxCpltCallback could be implemented in the user file
   */
}
 8007cc4:	bf00      	nop
 8007cc6:	370c      	adds	r7, #12
 8007cc8:	46bd      	mov	sp, r7
 8007cca:	bc80      	pop	{r7}
 8007ccc:	4770      	bx	lr

08007cce <HAL_UART_ErrorCallback>:
  * @param  huart  Pointer to a UART_HandleTypeDef structure that contains
  *                the configuration information for the specified UART module.
  * @retval None
  */
__weak void HAL_UART_ErrorCallback(UART_HandleTypeDef *huart)
{
 8007cce:	b480      	push	{r7}
 8007cd0:	b083      	sub	sp, #12
 8007cd2:	af00      	add	r7, sp, #0
 8007cd4:	6078      	str	r0, [r7, #4]
  /* Prevent unused argument(s) compilation warning */
  UNUSED(huart);
  /* NOTE: This function should not be modified, when the callback is needed,
           the HAL_UART_ErrorCallback could be implemented in the user file
   */
}
 8007cd6:	bf00      	nop
 8007cd8:	370c      	adds	r7, #12
 8007cda:	46bd      	mov	sp, r7
 8007cdc:	bc80      	pop	{r7}
 8007cde:	4770      	bx	lr

08007ce0 <HAL_UARTEx_RxEventCallback>:
  * @param  Size  Number of data available in application reception buffer (indicates a position in
  *               reception buffer until which, data are available)
  * @retval None
  */
__weak void HAL_UARTEx_RxEventCallback(UART_HandleTypeDef *huart, uint16_t Size)
{
 8007ce0:	b480      	push	{r7}
 8007ce2:	b083      	sub	sp, #12
 8007ce4:	af00      	add	r7, sp, #0
 8007ce6:	6078      	str	r0, [r7, #4]
 8007ce8:	460b      	mov	r3, r1
 8007cea:	807b      	strh	r3, [r7, #2]
  UNUSED(Size);

  /* NOTE : This function should not be modified, when the callback is needed,
            the HAL_UARTEx_RxEventCallback can be implemented in the user file.
   */
}
 8007cec:	bf00      	nop
 8007cee:	370c      	adds	r7, #12
 8007cf0:	46bd      	mov	sp, r7
 8007cf2:	bc80      	pop	{r7}
 8007cf4:	4770      	bx	lr

08007cf6 <UART_Start_Receive_IT>:
  * @param  pData Pointer to data buffer (u8 or u16 data elements).
  * @param  Size  Amount of data elements (u8 or u16) to be received.
  * @retval HAL status
  */
HAL_StatusTypeDef UART_Start_Receive_IT(UART_HandleTypeDef *huart, uint8_t *pData, uint16_t Size)
{
 8007cf6:	b480      	push	{r7}
 8007cf8:	b085      	sub	sp, #20
 8007cfa:	af00      	add	r7, sp, #0
 8007cfc:	60f8      	str	r0, [r7, #12]
 8007cfe:	60b9      	str	r1, [r7, #8]
 8007d00:	4613      	mov	r3, r2
 8007d02:	80fb      	strh	r3, [r7, #6]
  huart->pRxBuffPtr = pData;
 8007d04:	68fb      	ldr	r3, [r7, #12]
 8007d06:	68ba      	ldr	r2, [r7, #8]
 8007d08:	629a      	str	r2, [r3, #40]	; 0x28
  huart->RxXferSize = Size;
 8007d0a:	68fb      	ldr	r3, [r7, #12]
 8007d0c:	88fa      	ldrh	r2, [r7, #6]
 8007d0e:	859a      	strh	r2, [r3, #44]	; 0x2c
  huart->RxXferCount = Size;
 8007d10:	68fb      	ldr	r3, [r7, #12]
 8007d12:	88fa      	ldrh	r2, [r7, #6]
 8007d14:	85da      	strh	r2, [r3, #46]	; 0x2e

  huart->ErrorCode = HAL_UART_ERROR_NONE;
 8007d16:	68fb      	ldr	r3, [r7, #12]
 8007d18:	2200      	movs	r2, #0
 8007d1a:	641a      	str	r2, [r3, #64]	; 0x40
  huart->RxState = HAL_UART_STATE_BUSY_RX;
 8007d1c:	68fb      	ldr	r3, [r7, #12]
 8007d1e:	2222      	movs	r2, #34	; 0x22
 8007d20:	f883 203e 	strb.w	r2, [r3, #62]	; 0x3e

  /* Process Unlocked */
  __HAL_UNLOCK(huart);
 8007d24:	68fb      	ldr	r3, [r7, #12]
 8007d26:	2200      	movs	r2, #0
 8007d28:	f883 203c 	strb.w	r2, [r3, #60]	; 0x3c

  /* Enable the UART Parity Error Interrupt */
  __HAL_UART_ENABLE_IT(huart, UART_IT_PE);
 8007d2c:	68fb      	ldr	r3, [r7, #12]
 8007d2e:	681b      	ldr	r3, [r3, #0]
 8007d30:	68da      	ldr	r2, [r3, #12]
 8007d32:	68fb      	ldr	r3, [r7, #12]
 8007d34:	681b      	ldr	r3, [r3, #0]
 8007d36:	f442 7280 	orr.w	r2, r2, #256	; 0x100
 8007d3a:	60da      	str	r2, [r3, #12]

  /* Enable the UART Error Interrupt: (Frame error, noise error, overrun error) */
  __HAL_UART_ENABLE_IT(huart, UART_IT_ERR);
 8007d3c:	68fb      	ldr	r3, [r7, #12]
 8007d3e:	681b      	ldr	r3, [r3, #0]
 8007d40:	695a      	ldr	r2, [r3, #20]
 8007d42:	68fb      	ldr	r3, [r7, #12]
 8007d44:	681b      	ldr	r3, [r3, #0]
 8007d46:	f042 0201 	orr.w	r2, r2, #1
 8007d4a:	615a      	str	r2, [r3, #20]

  /* Enable the UART Data Register not empty Interrupt */
  __HAL_UART_ENABLE_IT(huart, UART_IT_RXNE);
 8007d4c:	68fb      	ldr	r3, [r7, #12]
 8007d4e:	681b      	ldr	r3, [r3, #0]
 8007d50:	68da      	ldr	r2, [r3, #12]
 8007d52:	68fb      	ldr	r3, [r7, #12]
 8007d54:	681b      	ldr	r3, [r3, #0]
 8007d56:	f042 0220 	orr.w	r2, r2, #32
 8007d5a:	60da      	str	r2, [r3, #12]

  return HAL_OK;
 8007d5c:	2300      	movs	r3, #0
}
 8007d5e:	4618      	mov	r0, r3
 8007d60:	3714      	adds	r7, #20
 8007d62:	46bd      	mov	sp, r7
 8007d64:	bc80      	pop	{r7}
 8007d66:	4770      	bx	lr

08007d68 <UART_EndRxTransfer>:
  * @brief  End ongoing Rx transfer on UART peripheral (following error detection or Reception completion).
  * @param  huart UART handle.
  * @retval None
  */
static void UART_EndRxTransfer(UART_HandleTypeDef *huart)
{
 8007d68:	b480      	push	{r7}
 8007d6a:	b083      	sub	sp, #12
 8007d6c:	af00      	add	r7, sp, #0
 8007d6e:	6078      	str	r0, [r7, #4]
  /* Disable RXNE, PE and ERR (Frame error, noise error, overrun error) interrupts */
  CLEAR_BIT(huart->Instance->CR1, (USART_CR1_RXNEIE | USART_CR1_PEIE));
 8007d70:	687b      	ldr	r3, [r7, #4]
 8007d72:	681b      	ldr	r3, [r3, #0]
 8007d74:	68da      	ldr	r2, [r3, #12]
 8007d76:	687b      	ldr	r3, [r7, #4]
 8007d78:	681b      	ldr	r3, [r3, #0]
 8007d7a:	f422 7290 	bic.w	r2, r2, #288	; 0x120
 8007d7e:	60da      	str	r2, [r3, #12]
  CLEAR_BIT(huart->Instance->CR3, USART_CR3_EIE);
 8007d80:	687b      	ldr	r3, [r7, #4]
 8007d82:	681b      	ldr	r3, [r3, #0]
 8007d84:	695a      	ldr	r2, [r3, #20]
 8007d86:	687b      	ldr	r3, [r7, #4]
 8007d88:	681b      	ldr	r3, [r3, #0]
 8007d8a:	f022 0201 	bic.w	r2, r2, #1
 8007d8e:	615a      	str	r2, [r3, #20]

  /* In case of reception waiting for IDLE event, disable also the IDLE IE interrupt source */
  if (huart->ReceptionType == HAL_UART_RECEPTION_TOIDLE)
 8007d90:	687b      	ldr	r3, [r7, #4]
 8007d92:	6b1b      	ldr	r3, [r3, #48]	; 0x30
 8007d94:	2b01      	cmp	r3, #1
 8007d96:	d107      	bne.n	8007da8 <UART_EndRxTransfer+0x40>
  {
    CLEAR_BIT(huart->Instance->CR1, USART_CR1_IDLEIE);
 8007d98:	687b      	ldr	r3, [r7, #4]
 8007d9a:	681b      	ldr	r3, [r3, #0]
 8007d9c:	68da      	ldr	r2, [r3, #12]
 8007d9e:	687b      	ldr	r3, [r7, #4]
 8007da0:	681b      	ldr	r3, [r3, #0]
 8007da2:	f022 0210 	bic.w	r2, r2, #16
 8007da6:	60da      	str	r2, [r3, #12]
  }

  /* At end of Rx process, restore huart->RxState to Ready */
  huart->RxState = HAL_UART_STATE_READY;
 8007da8:	687b      	ldr	r3, [r7, #4]
 8007daa:	2220      	movs	r2, #32
 8007dac:	f883 203e 	strb.w	r2, [r3, #62]	; 0x3e
  huart->ReceptionType = HAL_UART_RECEPTION_STANDARD;
 8007db0:	687b      	ldr	r3, [r7, #4]
 8007db2:	2200      	movs	r2, #0
 8007db4:	631a      	str	r2, [r3, #48]	; 0x30
}
 8007db6:	bf00      	nop
 8007db8:	370c      	adds	r7, #12
 8007dba:	46bd      	mov	sp, r7
 8007dbc:	bc80      	pop	{r7}
 8007dbe:	4770      	bx	lr

08007dc0 <UART_DMAAbortOnError>:
  * @param  hdma  Pointer to a DMA_HandleTypeDef structure that contains
  *               the configuration information for the specified DMA module.
  * @retval None
  */
static void UART_DMAAbortOnError(DMA_HandleTypeDef *hdma)
{
 8007dc0:	b580      	push	{r7, lr}
 8007dc2:	b084      	sub	sp, #16
 8007dc4:	af00      	add	r7, sp, #0
 8007dc6:	6078      	str	r0, [r7, #4]
  UART_HandleTypeDef *huart = (UART_HandleTypeDef *)((DMA_HandleTypeDef *)hdma)->Parent;
 8007dc8:	687b      	ldr	r3, [r7, #4]
 8007dca:	6a5b      	ldr	r3, [r3, #36]	; 0x24
 8007dcc:	60fb      	str	r3, [r7, #12]
  huart->RxXferCount = 0x00U;
 8007dce:	68fb      	ldr	r3, [r7, #12]
 8007dd0:	2200      	movs	r2, #0
 8007dd2:	85da      	strh	r2, [r3, #46]	; 0x2e
  huart->TxXferCount = 0x00U;
 8007dd4:	68fb      	ldr	r3, [r7, #12]
 8007dd6:	2200      	movs	r2, #0
 8007dd8:	84da      	strh	r2, [r3, #38]	; 0x26
#if (USE_HAL_UART_REGISTER_CALLBACKS == 1)
  /*Call registered error callback*/
  huart->ErrorCallback(huart);
#else
  /*Call legacy weak error callback*/
  HAL_UART_ErrorCallback(huart);
 8007dda:	68f8      	ldr	r0, [r7, #12]
 8007ddc:	f7ff ff77 	bl	8007cce <HAL_UART_ErrorCallback>
#endif /* USE_HAL_UART_REGISTER_CALLBACKS */
}
 8007de0:	bf00      	nop
 8007de2:	3710      	adds	r7, #16
 8007de4:	46bd      	mov	sp, r7
 8007de6:	bd80      	pop	{r7, pc}

08007de8 <UART_Transmit_IT>:
  * @param  huart  Pointer to a UART_HandleTypeDef structure that contains
  *                the configuration information for the specified UART module.
  * @retval HAL status
  */
static HAL_StatusTypeDef UART_Transmit_IT(UART_HandleTypeDef *huart)
{
 8007de8:	b480      	push	{r7}
 8007dea:	b085      	sub	sp, #20
 8007dec:	af00      	add	r7, sp, #0
 8007dee:	6078      	str	r0, [r7, #4]
  uint16_t *tmp;

  /* Check that a Tx process is ongoing */
  if (huart->gState == HAL_UART_STATE_BUSY_TX)
 8007df0:	687b      	ldr	r3, [r7, #4]
 8007df2:	f893 303d 	ldrb.w	r3, [r3, #61]	; 0x3d
 8007df6:	b2db      	uxtb	r3, r3
 8007df8:	2b21      	cmp	r3, #33	; 0x21
 8007dfa:	d13e      	bne.n	8007e7a <UART_Transmit_IT+0x92>
  {
    if ((huart->Init.WordLength == UART_WORDLENGTH_9B) && (huart->Init.Parity == UART_PARITY_NONE))
 8007dfc:	687b      	ldr	r3, [r7, #4]
 8007dfe:	689b      	ldr	r3, [r3, #8]
 8007e00:	f5b3 5f80 	cmp.w	r3, #4096	; 0x1000
 8007e04:	d114      	bne.n	8007e30 <UART_Transmit_IT+0x48>
 8007e06:	687b      	ldr	r3, [r7, #4]
 8007e08:	691b      	ldr	r3, [r3, #16]
 8007e0a:	2b00      	cmp	r3, #0
 8007e0c:	d110      	bne.n	8007e30 <UART_Transmit_IT+0x48>
    {
      tmp = (uint16_t *) huart->pTxBuffPtr;
 8007e0e:	687b      	ldr	r3, [r7, #4]
 8007e10:	6a1b      	ldr	r3, [r3, #32]
 8007e12:	60fb      	str	r3, [r7, #12]
      huart->Instance->DR = (uint16_t)(*tmp & (uint16_t)0x01FF);
 8007e14:	68fb      	ldr	r3, [r7, #12]
 8007e16:	881b      	ldrh	r3, [r3, #0]
 8007e18:	461a      	mov	r2, r3
 8007e1a:	687b      	ldr	r3, [r7, #4]
 8007e1c:	681b      	ldr	r3, [r3, #0]
 8007e1e:	f3c2 0208 	ubfx	r2, r2, #0, #9
 8007e22:	605a      	str	r2, [r3, #4]
      huart->pTxBuffPtr += 2U;
 8007e24:	687b      	ldr	r3, [r7, #4]
 8007e26:	6a1b      	ldr	r3, [r3, #32]
 8007e28:	1c9a      	adds	r2, r3, #2
 8007e2a:	687b      	ldr	r3, [r7, #4]
 8007e2c:	621a      	str	r2, [r3, #32]
 8007e2e:	e008      	b.n	8007e42 <UART_Transmit_IT+0x5a>
    }
    else
    {
      huart->Instance->DR = (uint8_t)(*huart->pTxBuffPtr++ & (uint8_t)0x00FF);
 8007e30:	687b      	ldr	r3, [r7, #4]
 8007e32:	6a1b      	ldr	r3, [r3, #32]
 8007e34:	1c59      	adds	r1, r3, #1
 8007e36:	687a      	ldr	r2, [r7, #4]
 8007e38:	6211      	str	r1, [r2, #32]
 8007e3a:	781a      	ldrb	r2, [r3, #0]
 8007e3c:	687b      	ldr	r3, [r7, #4]
 8007e3e:	681b      	ldr	r3, [r3, #0]
 8007e40:	605a      	str	r2, [r3, #4]
    }

    if (--huart->TxXferCount == 0U)
 8007e42:	687b      	ldr	r3, [r7, #4]
 8007e44:	8cdb      	ldrh	r3, [r3, #38]	; 0x26
 8007e46:	b29b      	uxth	r3, r3
 8007e48:	3b01      	subs	r3, #1
 8007e4a:	b29b      	uxth	r3, r3
 8007e4c:	687a      	ldr	r2, [r7, #4]
 8007e4e:	4619      	mov	r1, r3
 8007e50:	84d1      	strh	r1, [r2, #38]	; 0x26
 8007e52:	2b00      	cmp	r3, #0
 8007e54:	d10f      	bne.n	8007e76 <UART_Transmit_IT+0x8e>
    {
      /* Disable the UART Transmit Complete Interrupt */
      __HAL_UART_DISABLE_IT(huart, UART_IT_TXE);
 8007e56:	687b      	ldr	r3, [r7, #4]
 8007e58:	681b      	ldr	r3, [r3, #0]
 8007e5a:	68da      	ldr	r2, [r3, #12]
 8007e5c:	687b      	ldr	r3, [r7, #4]
 8007e5e:	681b      	ldr	r3, [r3, #0]
 8007e60:	f022 0280 	bic.w	r2, r2, #128	; 0x80
 8007e64:	60da      	str	r2, [r3, #12]

      /* Enable the UART Transmit Complete Interrupt */
      __HAL_UART_ENABLE_IT(huart, UART_IT_TC);
 8007e66:	687b      	ldr	r3, [r7, #4]
 8007e68:	681b      	ldr	r3, [r3, #0]
 8007e6a:	68da      	ldr	r2, [r3, #12]
 8007e6c:	687b      	ldr	r3, [r7, #4]
 8007e6e:	681b      	ldr	r3, [r3, #0]
 8007e70:	f042 0240 	orr.w	r2, r2, #64	; 0x40
 8007e74:	60da      	str	r2, [r3, #12]
    }
    return HAL_OK;
 8007e76:	2300      	movs	r3, #0
 8007e78:	e000      	b.n	8007e7c <UART_Transmit_IT+0x94>
  }
  else
  {
    return HAL_BUSY;
 8007e7a:	2302      	movs	r3, #2
  }
}
 8007e7c:	4618      	mov	r0, r3
 8007e7e:	3714      	adds	r7, #20
 8007e80:	46bd      	mov	sp, r7
 8007e82:	bc80      	pop	{r7}
 8007e84:	4770      	bx	lr

08007e86 <UART_EndTransmit_IT>:
  * @param  huart  Pointer to a UART_HandleTypeDef structure that contains
  *                the configuration information for the specified UART module.
  * @retval HAL status
  */
static HAL_StatusTypeDef UART_EndTransmit_IT(UART_HandleTypeDef *huart)
{
 8007e86:	b580      	push	{r7, lr}
 8007e88:	b082      	sub	sp, #8
 8007e8a:	af00      	add	r7, sp, #0
 8007e8c:	6078      	str	r0, [r7, #4]
  /* Disable the UART Transmit Complete Interrupt */
  __HAL_UART_DISABLE_IT(huart, UART_IT_TC);
 8007e8e:	687b      	ldr	r3, [r7, #4]
 8007e90:	681b      	ldr	r3, [r3, #0]
 8007e92:	68da      	ldr	r2, [r3, #12]
 8007e94:	687b      	ldr	r3, [r7, #4]
 8007e96:	681b      	ldr	r3, [r3, #0]
 8007e98:	f022 0240 	bic.w	r2, r2, #64	; 0x40
 8007e9c:	60da      	str	r2, [r3, #12]

  /* Tx process is ended, restore huart->gState to Ready */
  huart->gState = HAL_UART_STATE_READY;
 8007e9e:	687b      	ldr	r3, [r7, #4]
 8007ea0:	2220      	movs	r2, #32
 8007ea2:	f883 203d 	strb.w	r2, [r3, #61]	; 0x3d
#if (USE_HAL_UART_REGISTER_CALLBACKS == 1)
  /*Call registered Tx complete callback*/
  huart->TxCpltCallback(huart);
#else
  /*Call legacy weak Tx complete callback*/
  HAL_UART_TxCpltCallback(huart);
 8007ea6:	6878      	ldr	r0, [r7, #4]
 8007ea8:	f7ff ff08 	bl	8007cbc <HAL_UART_TxCpltCallback>
#endif /* USE_HAL_UART_REGISTER_CALLBACKS */

  return HAL_OK;
 8007eac:	2300      	movs	r3, #0
}
 8007eae:	4618      	mov	r0, r3
 8007eb0:	3708      	adds	r7, #8
 8007eb2:	46bd      	mov	sp, r7
 8007eb4:	bd80      	pop	{r7, pc}

08007eb6 <UART_Receive_IT>:
  * @param  huart  Pointer to a UART_HandleTypeDef structure that contains
  *                the configuration information for the specified UART module.
  * @retval HAL status
  */
static HAL_StatusTypeDef UART_Receive_IT(UART_HandleTypeDef *huart)
{
 8007eb6:	b580      	push	{r7, lr}
 8007eb8:	b086      	sub	sp, #24
 8007eba:	af00      	add	r7, sp, #0
 8007ebc:	6078      	str	r0, [r7, #4]
  uint8_t  *pdata8bits;
  uint16_t *pdata16bits;

  /* Check that a Rx process is ongoing */
  if (huart->RxState == HAL_UART_STATE_BUSY_RX)
 8007ebe:	687b      	ldr	r3, [r7, #4]
 8007ec0:	f893 303e 	ldrb.w	r3, [r3, #62]	; 0x3e
 8007ec4:	b2db      	uxtb	r3, r3
 8007ec6:	2b22      	cmp	r3, #34	; 0x22
 8007ec8:	f040 8099 	bne.w	8007ffe <UART_Receive_IT+0x148>
  {
    if ((huart->Init.WordLength == UART_WORDLENGTH_9B) && (huart->Init.Parity == UART_PARITY_NONE))
 8007ecc:	687b      	ldr	r3, [r7, #4]
 8007ece:	689b      	ldr	r3, [r3, #8]
 8007ed0:	f5b3 5f80 	cmp.w	r3, #4096	; 0x1000
 8007ed4:	d117      	bne.n	8007f06 <UART_Receive_IT+0x50>
 8007ed6:	687b      	ldr	r3, [r7, #4]
 8007ed8:	691b      	ldr	r3, [r3, #16]
 8007eda:	2b00      	cmp	r3, #0
 8007edc:	d113      	bne.n	8007f06 <UART_Receive_IT+0x50>
    {
      pdata8bits  = NULL;
 8007ede:	2300      	movs	r3, #0
 8007ee0:	617b      	str	r3, [r7, #20]
      pdata16bits = (uint16_t *) huart->pRxBuffPtr;
 8007ee2:	687b      	ldr	r3, [r7, #4]
 8007ee4:	6a9b      	ldr	r3, [r3, #40]	; 0x28
 8007ee6:	613b      	str	r3, [r7, #16]
      *pdata16bits = (uint16_t)(huart->Instance->DR & (uint16_t)0x01FF);
 8007ee8:	687b      	ldr	r3, [r7, #4]
 8007eea:	681b      	ldr	r3, [r3, #0]
 8007eec:	685b      	ldr	r3, [r3, #4]
 8007eee:	b29b      	uxth	r3, r3
 8007ef0:	f3c3 0308 	ubfx	r3, r3, #0, #9
 8007ef4:	b29a      	uxth	r2, r3
 8007ef6:	693b      	ldr	r3, [r7, #16]
 8007ef8:	801a      	strh	r2, [r3, #0]
      huart->pRxBuffPtr += 2U;
 8007efa:	687b      	ldr	r3, [r7, #4]
 8007efc:	6a9b      	ldr	r3, [r3, #40]	; 0x28
 8007efe:	1c9a      	adds	r2, r3, #2
 8007f00:	687b      	ldr	r3, [r7, #4]
 8007f02:	629a      	str	r2, [r3, #40]	; 0x28
 8007f04:	e026      	b.n	8007f54 <UART_Receive_IT+0x9e>
    }
    else
    {
      pdata8bits = (uint8_t *) huart->pRxBuffPtr;
 8007f06:	687b      	ldr	r3, [r7, #4]
 8007f08:	6a9b      	ldr	r3, [r3, #40]	; 0x28
 8007f0a:	617b      	str	r3, [r7, #20]
      pdata16bits  = NULL;
 8007f0c:	2300      	movs	r3, #0
 8007f0e:	613b      	str	r3, [r7, #16]

      if ((huart->Init.WordLength == UART_WORDLENGTH_9B) || ((huart->Init.WordLength == UART_WORDLENGTH_8B) && (huart->Init.Parity == UART_PARITY_NONE)))
 8007f10:	687b      	ldr	r3, [r7, #4]
 8007f12:	689b      	ldr	r3, [r3, #8]
 8007f14:	f5b3 5f80 	cmp.w	r3, #4096	; 0x1000
 8007f18:	d007      	beq.n	8007f2a <UART_Receive_IT+0x74>
 8007f1a:	687b      	ldr	r3, [r7, #4]
 8007f1c:	689b      	ldr	r3, [r3, #8]
 8007f1e:	2b00      	cmp	r3, #0
 8007f20:	d10a      	bne.n	8007f38 <UART_Receive_IT+0x82>
 8007f22:	687b      	ldr	r3, [r7, #4]
 8007f24:	691b      	ldr	r3, [r3, #16]
 8007f26:	2b00      	cmp	r3, #0
 8007f28:	d106      	bne.n	8007f38 <UART_Receive_IT+0x82>
      {
        *pdata8bits = (uint8_t)(huart->Instance->DR & (uint8_t)0x00FF);
 8007f2a:	687b      	ldr	r3, [r7, #4]
 8007f2c:	681b      	ldr	r3, [r3, #0]
 8007f2e:	685b      	ldr	r3, [r3, #4]
 8007f30:	b2da      	uxtb	r2, r3
 8007f32:	697b      	ldr	r3, [r7, #20]
 8007f34:	701a      	strb	r2, [r3, #0]
 8007f36:	e008      	b.n	8007f4a <UART_Receive_IT+0x94>
      }
      else
      {
        *pdata8bits = (uint8_t)(huart->Instance->DR & (uint8_t)0x007F);
 8007f38:	687b      	ldr	r3, [r7, #4]
 8007f3a:	681b      	ldr	r3, [r3, #0]
 8007f3c:	685b      	ldr	r3, [r3, #4]
 8007f3e:	b2db      	uxtb	r3, r3
 8007f40:	f003 037f 	and.w	r3, r3, #127	; 0x7f
 8007f44:	b2da      	uxtb	r2, r3
 8007f46:	697b      	ldr	r3, [r7, #20]
 8007f48:	701a      	strb	r2, [r3, #0]
      }
      huart->pRxBuffPtr += 1U;
 8007f4a:	687b      	ldr	r3, [r7, #4]
 8007f4c:	6a9b      	ldr	r3, [r3, #40]	; 0x28
 8007f4e:	1c5a      	adds	r2, r3, #1
 8007f50:	687b      	ldr	r3, [r7, #4]
 8007f52:	629a      	str	r2, [r3, #40]	; 0x28
    }

    if (--huart->RxXferCount == 0U)
 8007f54:	687b      	ldr	r3, [r7, #4]
 8007f56:	8ddb      	ldrh	r3, [r3, #46]	; 0x2e
 8007f58:	b29b      	uxth	r3, r3
 8007f5a:	3b01      	subs	r3, #1
 8007f5c:	b29b      	uxth	r3, r3
 8007f5e:	687a      	ldr	r2, [r7, #4]
 8007f60:	4619      	mov	r1, r3
 8007f62:	85d1      	strh	r1, [r2, #46]	; 0x2e
 8007f64:	2b00      	cmp	r3, #0
 8007f66:	d148      	bne.n	8007ffa <UART_Receive_IT+0x144>
    {
      /* Disable the UART Data Register not empty Interrupt */
      __HAL_UART_DISABLE_IT(huart, UART_IT_RXNE);
 8007f68:	687b      	ldr	r3, [r7, #4]
 8007f6a:	681b      	ldr	r3, [r3, #0]
 8007f6c:	68da      	ldr	r2, [r3, #12]
 8007f6e:	687b      	ldr	r3, [r7, #4]
 8007f70:	681b      	ldr	r3, [r3, #0]
 8007f72:	f022 0220 	bic.w	r2, r2, #32
 8007f76:	60da      	str	r2, [r3, #12]

      /* Disable the UART Parity Error Interrupt */
      __HAL_UART_DISABLE_IT(huart, UART_IT_PE);
 8007f78:	687b      	ldr	r3, [r7, #4]
 8007f7a:	681b      	ldr	r3, [r3, #0]
 8007f7c:	68da      	ldr	r2, [r3, #12]
 8007f7e:	687b      	ldr	r3, [r7, #4]
 8007f80:	681b      	ldr	r3, [r3, #0]
 8007f82:	f422 7280 	bic.w	r2, r2, #256	; 0x100
 8007f86:	60da      	str	r2, [r3, #12]

      /* Disable the UART Error Interrupt: (Frame error, noise error, overrun error) */
      __HAL_UART_DISABLE_IT(huart, UART_IT_ERR);
 8007f88:	687b      	ldr	r3, [r7, #4]
 8007f8a:	681b      	ldr	r3, [r3, #0]
 8007f8c:	695a      	ldr	r2, [r3, #20]
 8007f8e:	687b      	ldr	r3, [r7, #4]
 8007f90:	681b      	ldr	r3, [r3, #0]
 8007f92:	f022 0201 	bic.w	r2, r2, #1
 8007f96:	615a      	str	r2, [r3, #20]

      /* Rx process is completed, restore huart->RxState to Ready */
      huart->RxState = HAL_UART_STATE_READY;
 8007f98:	687b      	ldr	r3, [r7, #4]
 8007f9a:	2220      	movs	r2, #32
 8007f9c:	f883 203e 	strb.w	r2, [r3, #62]	; 0x3e

      /* Check current reception Mode :
         If Reception till IDLE event has been selected : */
      if (huart->ReceptionType == HAL_UART_RECEPTION_TOIDLE)
 8007fa0:	687b      	ldr	r3, [r7, #4]
 8007fa2:	6b1b      	ldr	r3, [r3, #48]	; 0x30
 8007fa4:	2b01      	cmp	r3, #1
 8007fa6:	d123      	bne.n	8007ff0 <UART_Receive_IT+0x13a>
      {
        /* Set reception type to Standard */
        huart->ReceptionType = HAL_UART_RECEPTION_STANDARD;
 8007fa8:	687b      	ldr	r3, [r7, #4]
 8007faa:	2200      	movs	r2, #0
 8007fac:	631a      	str	r2, [r3, #48]	; 0x30

        /* Disable IDLE interrupt */
        CLEAR_BIT(huart->Instance->CR1, USART_CR1_IDLEIE);
 8007fae:	687b      	ldr	r3, [r7, #4]
 8007fb0:	681b      	ldr	r3, [r3, #0]
 8007fb2:	68da      	ldr	r2, [r3, #12]
 8007fb4:	687b      	ldr	r3, [r7, #4]
 8007fb6:	681b      	ldr	r3, [r3, #0]
 8007fb8:	f022 0210 	bic.w	r2, r2, #16
 8007fbc:	60da      	str	r2, [r3, #12]

        /* Check if IDLE flag is set */
        if (__HAL_UART_GET_FLAG(huart, UART_FLAG_IDLE))
 8007fbe:	687b      	ldr	r3, [r7, #4]
 8007fc0:	681b      	ldr	r3, [r3, #0]
 8007fc2:	681b      	ldr	r3, [r3, #0]
 8007fc4:	f003 0310 	and.w	r3, r3, #16
 8007fc8:	2b10      	cmp	r3, #16
 8007fca:	d10a      	bne.n	8007fe2 <UART_Receive_IT+0x12c>
        {
          /* Clear IDLE flag in ISR */
          __HAL_UART_CLEAR_IDLEFLAG(huart);
 8007fcc:	2300      	movs	r3, #0
 8007fce:	60fb      	str	r3, [r7, #12]
 8007fd0:	687b      	ldr	r3, [r7, #4]
 8007fd2:	681b      	ldr	r3, [r3, #0]
 8007fd4:	681b      	ldr	r3, [r3, #0]
 8007fd6:	60fb      	str	r3, [r7, #12]
 8007fd8:	687b      	ldr	r3, [r7, #4]
 8007fda:	681b      	ldr	r3, [r3, #0]
 8007fdc:	685b      	ldr	r3, [r3, #4]
 8007fde:	60fb      	str	r3, [r7, #12]
 8007fe0:	68fb      	ldr	r3, [r7, #12]
#if (USE_HAL_UART_REGISTER_CALLBACKS == 1)
        /*Call registered Rx Event callback*/
        huart->RxEventCallback(huart, huart->RxXferSize);
#else
        /*Call legacy weak Rx Event callback*/
        HAL_UARTEx_RxEventCallback(huart, huart->RxXferSize);
 8007fe2:	687b      	ldr	r3, [r7, #4]
 8007fe4:	8d9b      	ldrh	r3, [r3, #44]	; 0x2c
 8007fe6:	4619      	mov	r1, r3
 8007fe8:	6878      	ldr	r0, [r7, #4]
 8007fea:	f7ff fe79 	bl	8007ce0 <HAL_UARTEx_RxEventCallback>
 8007fee:	e002      	b.n	8007ff6 <UART_Receive_IT+0x140>
#if (USE_HAL_UART_REGISTER_CALLBACKS == 1)		  
       /*Call registered Rx complete callback*/
       huart->RxCpltCallback(huart);
#else
       /*Call legacy weak Rx complete callback*/
       HAL_UART_RxCpltCallback(huart);
 8007ff0:	6878      	ldr	r0, [r7, #4]
 8007ff2:	f7f9 f9f7 	bl	80013e4 <HAL_UART_RxCpltCallback>
#endif /* USE_HAL_UART_REGISTER_CALLBACKS */
      }

      return HAL_OK;
 8007ff6:	2300      	movs	r3, #0
 8007ff8:	e002      	b.n	8008000 <UART_Receive_IT+0x14a>
    }
    return HAL_OK;
 8007ffa:	2300      	movs	r3, #0
 8007ffc:	e000      	b.n	8008000 <UART_Receive_IT+0x14a>
  }
  else
  {
    return HAL_BUSY;
 8007ffe:	2302      	movs	r3, #2
  }
}
 8008000:	4618      	mov	r0, r3
 8008002:	3718      	adds	r7, #24
 8008004:	46bd      	mov	sp, r7
 8008006:	bd80      	pop	{r7, pc}

08008008 <UART_SetConfig>:
  * @param  huart  Pointer to a UART_HandleTypeDef structure that contains
  *                the configuration information for the specified UART module.
  * @retval None
  */
static void UART_SetConfig(UART_HandleTypeDef *huart)
{
 8008008:	b580      	push	{r7, lr}
 800800a:	b084      	sub	sp, #16
 800800c:	af00      	add	r7, sp, #0
 800800e:	6078      	str	r0, [r7, #4]
  assert_param(IS_UART_MODE(huart->Init.Mode));

  /*-------------------------- USART CR2 Configuration -----------------------*/
  /* Configure the UART Stop Bits: Set STOP[13:12] bits
     according to huart->Init.StopBits value */
  MODIFY_REG(huart->Instance->CR2, USART_CR2_STOP, huart->Init.StopBits);
 8008010:	687b      	ldr	r3, [r7, #4]
 8008012:	681b      	ldr	r3, [r3, #0]
 8008014:	691b      	ldr	r3, [r3, #16]
 8008016:	f423 5140 	bic.w	r1, r3, #12288	; 0x3000
 800801a:	687b      	ldr	r3, [r7, #4]
 800801c:	68da      	ldr	r2, [r3, #12]
 800801e:	687b      	ldr	r3, [r7, #4]
 8008020:	681b      	ldr	r3, [r3, #0]
 8008022:	430a      	orrs	r2, r1
 8008024:	611a      	str	r2, [r3, #16]
  tmpreg = (uint32_t)huart->Init.WordLength | huart->Init.Parity | huart->Init.Mode | huart->Init.OverSampling;
  MODIFY_REG(huart->Instance->CR1,
             (uint32_t)(USART_CR1_M | USART_CR1_PCE | USART_CR1_PS | USART_CR1_TE | USART_CR1_RE | USART_CR1_OVER8),
             tmpreg);
#else
  tmpreg = (uint32_t)huart->Init.WordLength | huart->Init.Parity | huart->Init.Mode;
 8008026:	687b      	ldr	r3, [r7, #4]
 8008028:	689a      	ldr	r2, [r3, #8]
 800802a:	687b      	ldr	r3, [r7, #4]
 800802c:	691b      	ldr	r3, [r3, #16]
 800802e:	431a      	orrs	r2, r3
 8008030:	687b      	ldr	r3, [r7, #4]
 8008032:	695b      	ldr	r3, [r3, #20]
 8008034:	4313      	orrs	r3, r2
 8008036:	60bb      	str	r3, [r7, #8]
  MODIFY_REG(huart->Instance->CR1,
 8008038:	687b      	ldr	r3, [r7, #4]
 800803a:	681b      	ldr	r3, [r3, #0]
 800803c:	68db      	ldr	r3, [r3, #12]
 800803e:	f423 53b0 	bic.w	r3, r3, #5632	; 0x1600
 8008042:	f023 030c 	bic.w	r3, r3, #12
 8008046:	687a      	ldr	r2, [r7, #4]
 8008048:	6812      	ldr	r2, [r2, #0]
 800804a:	68b9      	ldr	r1, [r7, #8]
 800804c:	430b      	orrs	r3, r1
 800804e:	60d3      	str	r3, [r2, #12]
             tmpreg);
#endif /* USART_CR1_OVER8 */

  /*-------------------------- USART CR3 Configuration -----------------------*/
  /* Configure the UART HFC: Set CTSE and RTSE bits according to huart->Init.HwFlowCtl value */
  MODIFY_REG(huart->Instance->CR3, (USART_CR3_RTSE | USART_CR3_CTSE), huart->Init.HwFlowCtl);
 8008050:	687b      	ldr	r3, [r7, #4]
 8008052:	681b      	ldr	r3, [r3, #0]
 8008054:	695b      	ldr	r3, [r3, #20]
 8008056:	f423 7140 	bic.w	r1, r3, #768	; 0x300
 800805a:	687b      	ldr	r3, [r7, #4]
 800805c:	699a      	ldr	r2, [r3, #24]
 800805e:	687b      	ldr	r3, [r7, #4]
 8008060:	681b      	ldr	r3, [r3, #0]
 8008062:	430a      	orrs	r2, r1
 8008064:	615a      	str	r2, [r3, #20]


  if(huart->Instance == USART1)
 8008066:	687b      	ldr	r3, [r7, #4]
 8008068:	681b      	ldr	r3, [r3, #0]
 800806a:	4a2c      	ldr	r2, [pc, #176]	; (800811c <UART_SetConfig+0x114>)
 800806c:	4293      	cmp	r3, r2
 800806e:	d103      	bne.n	8008078 <UART_SetConfig+0x70>
  {
    pclk = HAL_RCC_GetPCLK2Freq();
 8008070:	f7fe fc7e 	bl	8006970 <HAL_RCC_GetPCLK2Freq>
 8008074:	60f8      	str	r0, [r7, #12]
 8008076:	e002      	b.n	800807e <UART_SetConfig+0x76>
  }
  else
  {
    pclk = HAL_RCC_GetPCLK1Freq();
 8008078:	f7fe fc66 	bl	8006948 <HAL_RCC_GetPCLK1Freq>
 800807c:	60f8      	str	r0, [r7, #12]
  else
  {
    huart->Instance->BRR = UART_BRR_SAMPLING16(pclk, huart->Init.BaudRate);
  }
#else
  huart->Instance->BRR = UART_BRR_SAMPLING16(pclk, huart->Init.BaudRate);
 800807e:	68fa      	ldr	r2, [r7, #12]
 8008080:	4613      	mov	r3, r2
 8008082:	009b      	lsls	r3, r3, #2
 8008084:	4413      	add	r3, r2
 8008086:	009a      	lsls	r2, r3, #2
 8008088:	441a      	add	r2, r3
 800808a:	687b      	ldr	r3, [r7, #4]
 800808c:	685b      	ldr	r3, [r3, #4]
 800808e:	009b      	lsls	r3, r3, #2
 8008090:	fbb2 f3f3 	udiv	r3, r2, r3
 8008094:	4a22      	ldr	r2, [pc, #136]	; (8008120 <UART_SetConfig+0x118>)
 8008096:	fba2 2303 	umull	r2, r3, r2, r3
 800809a:	095b      	lsrs	r3, r3, #5
 800809c:	0119      	lsls	r1, r3, #4
 800809e:	68fa      	ldr	r2, [r7, #12]
 80080a0:	4613      	mov	r3, r2
 80080a2:	009b      	lsls	r3, r3, #2
 80080a4:	4413      	add	r3, r2
 80080a6:	009a      	lsls	r2, r3, #2
 80080a8:	441a      	add	r2, r3
 80080aa:	687b      	ldr	r3, [r7, #4]
 80080ac:	685b      	ldr	r3, [r3, #4]
 80080ae:	009b      	lsls	r3, r3, #2
 80080b0:	fbb2 f2f3 	udiv	r2, r2, r3
 80080b4:	4b1a      	ldr	r3, [pc, #104]	; (8008120 <UART_SetConfig+0x118>)
 80080b6:	fba3 0302 	umull	r0, r3, r3, r2
 80080ba:	095b      	lsrs	r3, r3, #5
 80080bc:	2064      	movs	r0, #100	; 0x64
 80080be:	fb00 f303 	mul.w	r3, r0, r3
 80080c2:	1ad3      	subs	r3, r2, r3
 80080c4:	011b      	lsls	r3, r3, #4
 80080c6:	3332      	adds	r3, #50	; 0x32
 80080c8:	4a15      	ldr	r2, [pc, #84]	; (8008120 <UART_SetConfig+0x118>)
 80080ca:	fba2 2303 	umull	r2, r3, r2, r3
 80080ce:	095b      	lsrs	r3, r3, #5
 80080d0:	f003 03f0 	and.w	r3, r3, #240	; 0xf0
 80080d4:	4419      	add	r1, r3
 80080d6:	68fa      	ldr	r2, [r7, #12]
 80080d8:	4613      	mov	r3, r2
 80080da:	009b      	lsls	r3, r3, #2
 80080dc:	4413      	add	r3, r2
 80080de:	009a      	lsls	r2, r3, #2
 80080e0:	441a      	add	r2, r3
 80080e2:	687b      	ldr	r3, [r7, #4]
 80080e4:	685b      	ldr	r3, [r3, #4]
 80080e6:	009b      	lsls	r3, r3, #2
 80080e8:	fbb2 f2f3 	udiv	r2, r2, r3
 80080ec:	4b0c      	ldr	r3, [pc, #48]	; (8008120 <UART_SetConfig+0x118>)
 80080ee:	fba3 0302 	umull	r0, r3, r3, r2
 80080f2:	095b      	lsrs	r3, r3, #5
 80080f4:	2064      	movs	r0, #100	; 0x64
 80080f6:	fb00 f303 	mul.w	r3, r0, r3
 80080fa:	1ad3      	subs	r3, r2, r3
 80080fc:	011b      	lsls	r3, r3, #4
 80080fe:	3332      	adds	r3, #50	; 0x32
 8008100:	4a07      	ldr	r2, [pc, #28]	; (8008120 <UART_SetConfig+0x118>)
 8008102:	fba2 2303 	umull	r2, r3, r2, r3
 8008106:	095b      	lsrs	r3, r3, #5
 8008108:	f003 020f 	and.w	r2, r3, #15
 800810c:	687b      	ldr	r3, [r7, #4]
 800810e:	681b      	ldr	r3, [r3, #0]
 8008110:	440a      	add	r2, r1
 8008112:	609a      	str	r2, [r3, #8]
#endif /* USART_CR1_OVER8 */
}
 8008114:	bf00      	nop
 8008116:	3710      	adds	r7, #16
 8008118:	46bd      	mov	sp, r7
 800811a:	bd80      	pop	{r7, pc}
 800811c:	40013800 	.word	0x40013800
 8008120:	51eb851f 	.word	0x51eb851f

08008124 <__errno>:
 8008124:	4b01      	ldr	r3, [pc, #4]	; (800812c <__errno+0x8>)
 8008126:	6818      	ldr	r0, [r3, #0]
 8008128:	4770      	bx	lr
 800812a:	bf00      	nop
 800812c:	200000b8 	.word	0x200000b8

08008130 <__libc_init_array>:
 8008130:	b570      	push	{r4, r5, r6, lr}
 8008132:	2500      	movs	r5, #0
 8008134:	4e0c      	ldr	r6, [pc, #48]	; (8008168 <__libc_init_array+0x38>)
 8008136:	4c0d      	ldr	r4, [pc, #52]	; (800816c <__libc_init_array+0x3c>)
 8008138:	1ba4      	subs	r4, r4, r6
 800813a:	10a4      	asrs	r4, r4, #2
 800813c:	42a5      	cmp	r5, r4
 800813e:	d109      	bne.n	8008154 <__libc_init_array+0x24>
 8008140:	f000 fb92 	bl	8008868 <_init>
 8008144:	2500      	movs	r5, #0
 8008146:	4e0a      	ldr	r6, [pc, #40]	; (8008170 <__libc_init_array+0x40>)
 8008148:	4c0a      	ldr	r4, [pc, #40]	; (8008174 <__libc_init_array+0x44>)
 800814a:	1ba4      	subs	r4, r4, r6
 800814c:	10a4      	asrs	r4, r4, #2
 800814e:	42a5      	cmp	r5, r4
 8008150:	d105      	bne.n	800815e <__libc_init_array+0x2e>
 8008152:	bd70      	pop	{r4, r5, r6, pc}
 8008154:	f856 3025 	ldr.w	r3, [r6, r5, lsl #2]
 8008158:	4798      	blx	r3
 800815a:	3501      	adds	r5, #1
 800815c:	e7ee      	b.n	800813c <__libc_init_array+0xc>
 800815e:	f856 3025 	ldr.w	r3, [r6, r5, lsl #2]
 8008162:	4798      	blx	r3
 8008164:	3501      	adds	r5, #1
 8008166:	e7f2      	b.n	800814e <__libc_init_array+0x1e>
 8008168:	08008bb8 	.word	0x08008bb8
 800816c:	08008bb8 	.word	0x08008bb8
 8008170:	08008bb8 	.word	0x08008bb8
 8008174:	08008bbc 	.word	0x08008bbc

08008178 <memset>:
 8008178:	4603      	mov	r3, r0
 800817a:	4402      	add	r2, r0
 800817c:	4293      	cmp	r3, r2
 800817e:	d100      	bne.n	8008182 <memset+0xa>
 8008180:	4770      	bx	lr
 8008182:	f803 1b01 	strb.w	r1, [r3], #1
 8008186:	e7f9      	b.n	800817c <memset+0x4>

08008188 <atan>:
 8008188:	e92d 4ff8 	stmdb	sp!, {r3, r4, r5, r6, r7, r8, r9, sl, fp, lr}
 800818c:	4bb6      	ldr	r3, [pc, #728]	; (8008468 <atan+0x2e0>)
 800818e:	f021 4600 	bic.w	r6, r1, #2147483648	; 0x80000000
 8008192:	429e      	cmp	r6, r3
 8008194:	4604      	mov	r4, r0
 8008196:	460d      	mov	r5, r1
 8008198:	468b      	mov	fp, r1
 800819a:	dd17      	ble.n	80081cc <atan+0x44>
 800819c:	4bb3      	ldr	r3, [pc, #716]	; (800846c <atan+0x2e4>)
 800819e:	429e      	cmp	r6, r3
 80081a0:	dc01      	bgt.n	80081a6 <atan+0x1e>
 80081a2:	d109      	bne.n	80081b8 <atan+0x30>
 80081a4:	b140      	cbz	r0, 80081b8 <atan+0x30>
 80081a6:	4622      	mov	r2, r4
 80081a8:	462b      	mov	r3, r5
 80081aa:	4620      	mov	r0, r4
 80081ac:	4629      	mov	r1, r5
 80081ae:	f7f7 ffd5 	bl	800015c <__adddf3>
 80081b2:	4604      	mov	r4, r0
 80081b4:	460d      	mov	r5, r1
 80081b6:	e005      	b.n	80081c4 <atan+0x3c>
 80081b8:	f1bb 0f00 	cmp.w	fp, #0
 80081bc:	4cac      	ldr	r4, [pc, #688]	; (8008470 <atan+0x2e8>)
 80081be:	f340 8121 	ble.w	8008404 <atan+0x27c>
 80081c2:	4dac      	ldr	r5, [pc, #688]	; (8008474 <atan+0x2ec>)
 80081c4:	4620      	mov	r0, r4
 80081c6:	4629      	mov	r1, r5
 80081c8:	e8bd 8ff8 	ldmia.w	sp!, {r3, r4, r5, r6, r7, r8, r9, sl, fp, pc}
 80081cc:	4baa      	ldr	r3, [pc, #680]	; (8008478 <atan+0x2f0>)
 80081ce:	429e      	cmp	r6, r3
 80081d0:	dc11      	bgt.n	80081f6 <atan+0x6e>
 80081d2:	f1a3 73de 	sub.w	r3, r3, #29097984	; 0x1bc0000
 80081d6:	429e      	cmp	r6, r3
 80081d8:	dc0a      	bgt.n	80081f0 <atan+0x68>
 80081da:	a38b      	add	r3, pc, #556	; (adr r3, 8008408 <atan+0x280>)
 80081dc:	e9d3 2300 	ldrd	r2, r3, [r3]
 80081e0:	f7f7 ffbc 	bl	800015c <__adddf3>
 80081e4:	2200      	movs	r2, #0
 80081e6:	4ba5      	ldr	r3, [pc, #660]	; (800847c <atan+0x2f4>)
 80081e8:	f7f8 fbfe 	bl	80009e8 <__aeabi_dcmpgt>
 80081ec:	2800      	cmp	r0, #0
 80081ee:	d1e9      	bne.n	80081c4 <atan+0x3c>
 80081f0:	f04f 3aff 	mov.w	sl, #4294967295
 80081f4:	e027      	b.n	8008246 <atan+0xbe>
 80081f6:	f000 f951 	bl	800849c <fabs>
 80081fa:	4ba1      	ldr	r3, [pc, #644]	; (8008480 <atan+0x2f8>)
 80081fc:	4604      	mov	r4, r0
 80081fe:	429e      	cmp	r6, r3
 8008200:	460d      	mov	r5, r1
 8008202:	f300 80b8 	bgt.w	8008376 <atan+0x1ee>
 8008206:	f5a3 2350 	sub.w	r3, r3, #851968	; 0xd0000
 800820a:	429e      	cmp	r6, r3
 800820c:	f300 809c 	bgt.w	8008348 <atan+0x1c0>
 8008210:	4602      	mov	r2, r0
 8008212:	460b      	mov	r3, r1
 8008214:	f7f7 ffa2 	bl	800015c <__adddf3>
 8008218:	2200      	movs	r2, #0
 800821a:	4b98      	ldr	r3, [pc, #608]	; (800847c <atan+0x2f4>)
 800821c:	f7f7 ff9c 	bl	8000158 <__aeabi_dsub>
 8008220:	2200      	movs	r2, #0
 8008222:	4606      	mov	r6, r0
 8008224:	460f      	mov	r7, r1
 8008226:	f04f 4380 	mov.w	r3, #1073741824	; 0x40000000
 800822a:	4620      	mov	r0, r4
 800822c:	4629      	mov	r1, r5
 800822e:	f7f7 ff95 	bl	800015c <__adddf3>
 8008232:	4602      	mov	r2, r0
 8008234:	460b      	mov	r3, r1
 8008236:	4630      	mov	r0, r6
 8008238:	4639      	mov	r1, r7
 800823a:	f7f8 fa6f 	bl	800071c <__aeabi_ddiv>
 800823e:	f04f 0a00 	mov.w	sl, #0
 8008242:	4604      	mov	r4, r0
 8008244:	460d      	mov	r5, r1
 8008246:	4622      	mov	r2, r4
 8008248:	462b      	mov	r3, r5
 800824a:	4620      	mov	r0, r4
 800824c:	4629      	mov	r1, r5
 800824e:	f7f8 f93b 	bl	80004c8 <__aeabi_dmul>
 8008252:	4602      	mov	r2, r0
 8008254:	460b      	mov	r3, r1
 8008256:	4680      	mov	r8, r0
 8008258:	4689      	mov	r9, r1
 800825a:	f7f8 f935 	bl	80004c8 <__aeabi_dmul>
 800825e:	a36c      	add	r3, pc, #432	; (adr r3, 8008410 <atan+0x288>)
 8008260:	e9d3 2300 	ldrd	r2, r3, [r3]
 8008264:	4606      	mov	r6, r0
 8008266:	460f      	mov	r7, r1
 8008268:	f7f8 f92e 	bl	80004c8 <__aeabi_dmul>
 800826c:	a36a      	add	r3, pc, #424	; (adr r3, 8008418 <atan+0x290>)
 800826e:	e9d3 2300 	ldrd	r2, r3, [r3]
 8008272:	f7f7 ff73 	bl	800015c <__adddf3>
 8008276:	4632      	mov	r2, r6
 8008278:	463b      	mov	r3, r7
 800827a:	f7f8 f925 	bl	80004c8 <__aeabi_dmul>
 800827e:	a368      	add	r3, pc, #416	; (adr r3, 8008420 <atan+0x298>)
 8008280:	e9d3 2300 	ldrd	r2, r3, [r3]
 8008284:	f7f7 ff6a 	bl	800015c <__adddf3>
 8008288:	4632      	mov	r2, r6
 800828a:	463b      	mov	r3, r7
 800828c:	f7f8 f91c 	bl	80004c8 <__aeabi_dmul>
 8008290:	a365      	add	r3, pc, #404	; (adr r3, 8008428 <atan+0x2a0>)
 8008292:	e9d3 2300 	ldrd	r2, r3, [r3]
 8008296:	f7f7 ff61 	bl	800015c <__adddf3>
 800829a:	4632      	mov	r2, r6
 800829c:	463b      	mov	r3, r7
 800829e:	f7f8 f913 	bl	80004c8 <__aeabi_dmul>
 80082a2:	a363      	add	r3, pc, #396	; (adr r3, 8008430 <atan+0x2a8>)
 80082a4:	e9d3 2300 	ldrd	r2, r3, [r3]
 80082a8:	f7f7 ff58 	bl	800015c <__adddf3>
 80082ac:	4632      	mov	r2, r6
 80082ae:	463b      	mov	r3, r7
 80082b0:	f7f8 f90a 	bl	80004c8 <__aeabi_dmul>
 80082b4:	a360      	add	r3, pc, #384	; (adr r3, 8008438 <atan+0x2b0>)
 80082b6:	e9d3 2300 	ldrd	r2, r3, [r3]
 80082ba:	f7f7 ff4f 	bl	800015c <__adddf3>
 80082be:	4642      	mov	r2, r8
 80082c0:	464b      	mov	r3, r9
 80082c2:	f7f8 f901 	bl	80004c8 <__aeabi_dmul>
 80082c6:	a35e      	add	r3, pc, #376	; (adr r3, 8008440 <atan+0x2b8>)
 80082c8:	e9d3 2300 	ldrd	r2, r3, [r3]
 80082cc:	4680      	mov	r8, r0
 80082ce:	4689      	mov	r9, r1
 80082d0:	4630      	mov	r0, r6
 80082d2:	4639      	mov	r1, r7
 80082d4:	f7f8 f8f8 	bl	80004c8 <__aeabi_dmul>
 80082d8:	a35b      	add	r3, pc, #364	; (adr r3, 8008448 <atan+0x2c0>)
 80082da:	e9d3 2300 	ldrd	r2, r3, [r3]
 80082de:	f7f7 ff3b 	bl	8000158 <__aeabi_dsub>
 80082e2:	4632      	mov	r2, r6
 80082e4:	463b      	mov	r3, r7
 80082e6:	f7f8 f8ef 	bl	80004c8 <__aeabi_dmul>
 80082ea:	a359      	add	r3, pc, #356	; (adr r3, 8008450 <atan+0x2c8>)
 80082ec:	e9d3 2300 	ldrd	r2, r3, [r3]
 80082f0:	f7f7 ff32 	bl	8000158 <__aeabi_dsub>
 80082f4:	4632      	mov	r2, r6
 80082f6:	463b      	mov	r3, r7
 80082f8:	f7f8 f8e6 	bl	80004c8 <__aeabi_dmul>
 80082fc:	a356      	add	r3, pc, #344	; (adr r3, 8008458 <atan+0x2d0>)
 80082fe:	e9d3 2300 	ldrd	r2, r3, [r3]
 8008302:	f7f7 ff29 	bl	8000158 <__aeabi_dsub>
 8008306:	4632      	mov	r2, r6
 8008308:	463b      	mov	r3, r7
 800830a:	f7f8 f8dd 	bl	80004c8 <__aeabi_dmul>
 800830e:	a354      	add	r3, pc, #336	; (adr r3, 8008460 <atan+0x2d8>)
 8008310:	e9d3 2300 	ldrd	r2, r3, [r3]
 8008314:	f7f7 ff20 	bl	8000158 <__aeabi_dsub>
 8008318:	4632      	mov	r2, r6
 800831a:	463b      	mov	r3, r7
 800831c:	f7f8 f8d4 	bl	80004c8 <__aeabi_dmul>
 8008320:	4602      	mov	r2, r0
 8008322:	460b      	mov	r3, r1
 8008324:	4640      	mov	r0, r8
 8008326:	4649      	mov	r1, r9
 8008328:	f7f7 ff18 	bl	800015c <__adddf3>
 800832c:	4622      	mov	r2, r4
 800832e:	462b      	mov	r3, r5
 8008330:	f7f8 f8ca 	bl	80004c8 <__aeabi_dmul>
 8008334:	f1ba 3fff 	cmp.w	sl, #4294967295
 8008338:	4602      	mov	r2, r0
 800833a:	460b      	mov	r3, r1
 800833c:	d144      	bne.n	80083c8 <atan+0x240>
 800833e:	4620      	mov	r0, r4
 8008340:	4629      	mov	r1, r5
 8008342:	f7f7 ff09 	bl	8000158 <__aeabi_dsub>
 8008346:	e734      	b.n	80081b2 <atan+0x2a>
 8008348:	2200      	movs	r2, #0
 800834a:	4b4c      	ldr	r3, [pc, #304]	; (800847c <atan+0x2f4>)
 800834c:	f7f7 ff04 	bl	8000158 <__aeabi_dsub>
 8008350:	2200      	movs	r2, #0
 8008352:	4606      	mov	r6, r0
 8008354:	460f      	mov	r7, r1
 8008356:	4b49      	ldr	r3, [pc, #292]	; (800847c <atan+0x2f4>)
 8008358:	4620      	mov	r0, r4
 800835a:	4629      	mov	r1, r5
 800835c:	f7f7 fefe 	bl	800015c <__adddf3>
 8008360:	4602      	mov	r2, r0
 8008362:	460b      	mov	r3, r1
 8008364:	4630      	mov	r0, r6
 8008366:	4639      	mov	r1, r7
 8008368:	f7f8 f9d8 	bl	800071c <__aeabi_ddiv>
 800836c:	f04f 0a01 	mov.w	sl, #1
 8008370:	4604      	mov	r4, r0
 8008372:	460d      	mov	r5, r1
 8008374:	e767      	b.n	8008246 <atan+0xbe>
 8008376:	4b43      	ldr	r3, [pc, #268]	; (8008484 <atan+0x2fc>)
 8008378:	429e      	cmp	r6, r3
 800837a:	dc1a      	bgt.n	80083b2 <atan+0x22a>
 800837c:	2200      	movs	r2, #0
 800837e:	4b42      	ldr	r3, [pc, #264]	; (8008488 <atan+0x300>)
 8008380:	f7f7 feea 	bl	8000158 <__aeabi_dsub>
 8008384:	2200      	movs	r2, #0
 8008386:	4606      	mov	r6, r0
 8008388:	460f      	mov	r7, r1
 800838a:	4b3f      	ldr	r3, [pc, #252]	; (8008488 <atan+0x300>)
 800838c:	4620      	mov	r0, r4
 800838e:	4629      	mov	r1, r5
 8008390:	f7f8 f89a 	bl	80004c8 <__aeabi_dmul>
 8008394:	2200      	movs	r2, #0
 8008396:	4b39      	ldr	r3, [pc, #228]	; (800847c <atan+0x2f4>)
 8008398:	f7f7 fee0 	bl	800015c <__adddf3>
 800839c:	4602      	mov	r2, r0
 800839e:	460b      	mov	r3, r1
 80083a0:	4630      	mov	r0, r6
 80083a2:	4639      	mov	r1, r7
 80083a4:	f7f8 f9ba 	bl	800071c <__aeabi_ddiv>
 80083a8:	f04f 0a02 	mov.w	sl, #2
 80083ac:	4604      	mov	r4, r0
 80083ae:	460d      	mov	r5, r1
 80083b0:	e749      	b.n	8008246 <atan+0xbe>
 80083b2:	4602      	mov	r2, r0
 80083b4:	460b      	mov	r3, r1
 80083b6:	2000      	movs	r0, #0
 80083b8:	4934      	ldr	r1, [pc, #208]	; (800848c <atan+0x304>)
 80083ba:	f7f8 f9af 	bl	800071c <__aeabi_ddiv>
 80083be:	f04f 0a03 	mov.w	sl, #3
 80083c2:	4604      	mov	r4, r0
 80083c4:	460d      	mov	r5, r1
 80083c6:	e73e      	b.n	8008246 <atan+0xbe>
 80083c8:	4b31      	ldr	r3, [pc, #196]	; (8008490 <atan+0x308>)
 80083ca:	4e32      	ldr	r6, [pc, #200]	; (8008494 <atan+0x30c>)
 80083cc:	ea4f 0aca 	mov.w	sl, sl, lsl #3
 80083d0:	4456      	add	r6, sl
 80083d2:	449a      	add	sl, r3
 80083d4:	e9da 2300 	ldrd	r2, r3, [sl]
 80083d8:	f7f7 febe 	bl	8000158 <__aeabi_dsub>
 80083dc:	4622      	mov	r2, r4
 80083de:	462b      	mov	r3, r5
 80083e0:	f7f7 feba 	bl	8000158 <__aeabi_dsub>
 80083e4:	4602      	mov	r2, r0
 80083e6:	460b      	mov	r3, r1
 80083e8:	e9d6 0100 	ldrd	r0, r1, [r6]
 80083ec:	f7f7 feb4 	bl	8000158 <__aeabi_dsub>
 80083f0:	f1bb 0f00 	cmp.w	fp, #0
 80083f4:	4604      	mov	r4, r0
 80083f6:	460d      	mov	r5, r1
 80083f8:	f6bf aee4 	bge.w	80081c4 <atan+0x3c>
 80083fc:	f101 4300 	add.w	r3, r1, #2147483648	; 0x80000000
 8008400:	461d      	mov	r5, r3
 8008402:	e6df      	b.n	80081c4 <atan+0x3c>
 8008404:	4d24      	ldr	r5, [pc, #144]	; (8008498 <atan+0x310>)
 8008406:	e6dd      	b.n	80081c4 <atan+0x3c>
 8008408:	8800759c 	.word	0x8800759c
 800840c:	7e37e43c 	.word	0x7e37e43c
 8008410:	e322da11 	.word	0xe322da11
 8008414:	3f90ad3a 	.word	0x3f90ad3a
 8008418:	24760deb 	.word	0x24760deb
 800841c:	3fa97b4b 	.word	0x3fa97b4b
 8008420:	a0d03d51 	.word	0xa0d03d51
 8008424:	3fb10d66 	.word	0x3fb10d66
 8008428:	c54c206e 	.word	0xc54c206e
 800842c:	3fb745cd 	.word	0x3fb745cd
 8008430:	920083ff 	.word	0x920083ff
 8008434:	3fc24924 	.word	0x3fc24924
 8008438:	5555550d 	.word	0x5555550d
 800843c:	3fd55555 	.word	0x3fd55555
 8008440:	2c6a6c2f 	.word	0x2c6a6c2f
 8008444:	bfa2b444 	.word	0xbfa2b444
 8008448:	52defd9a 	.word	0x52defd9a
 800844c:	3fadde2d 	.word	0x3fadde2d
 8008450:	af749a6d 	.word	0xaf749a6d
 8008454:	3fb3b0f2 	.word	0x3fb3b0f2
 8008458:	fe231671 	.word	0xfe231671
 800845c:	3fbc71c6 	.word	0x3fbc71c6
 8008460:	9998ebc4 	.word	0x9998ebc4
 8008464:	3fc99999 	.word	0x3fc99999
 8008468:	440fffff 	.word	0x440fffff
 800846c:	7ff00000 	.word	0x7ff00000
 8008470:	54442d18 	.word	0x54442d18
 8008474:	3ff921fb 	.word	0x3ff921fb
 8008478:	3fdbffff 	.word	0x3fdbffff
 800847c:	3ff00000 	.word	0x3ff00000
 8008480:	3ff2ffff 	.word	0x3ff2ffff
 8008484:	40037fff 	.word	0x40037fff
 8008488:	3ff80000 	.word	0x3ff80000
 800848c:	bff00000 	.word	0xbff00000
 8008490:	08008b90 	.word	0x08008b90
 8008494:	08008b70 	.word	0x08008b70
 8008498:	bff921fb 	.word	0xbff921fb

0800849c <fabs>:
 800849c:	f021 4300 	bic.w	r3, r1, #2147483648	; 0x80000000
 80084a0:	4619      	mov	r1, r3
 80084a2:	4770      	bx	lr

080084a4 <atan2>:
 80084a4:	f000 b854 	b.w	8008550 <__ieee754_atan2>

080084a8 <sqrt>:
 80084a8:	e92d 4ff0 	stmdb	sp!, {r4, r5, r6, r7, r8, r9, sl, fp, lr}
 80084ac:	b08b      	sub	sp, #44	; 0x2c
 80084ae:	4604      	mov	r4, r0
 80084b0:	460d      	mov	r5, r1
 80084b2:	f000 f92b 	bl	800870c <__ieee754_sqrt>
 80084b6:	4b24      	ldr	r3, [pc, #144]	; (8008548 <sqrt+0xa0>)
 80084b8:	4680      	mov	r8, r0
 80084ba:	f993 a000 	ldrsb.w	sl, [r3]
 80084be:	4689      	mov	r9, r1
 80084c0:	f1ba 3fff 	cmp.w	sl, #4294967295
 80084c4:	d02b      	beq.n	800851e <sqrt+0x76>
 80084c6:	4622      	mov	r2, r4
 80084c8:	462b      	mov	r3, r5
 80084ca:	4620      	mov	r0, r4
 80084cc:	4629      	mov	r1, r5
 80084ce:	f7f8 fa95 	bl	80009fc <__aeabi_dcmpun>
 80084d2:	4683      	mov	fp, r0
 80084d4:	bb18      	cbnz	r0, 800851e <sqrt+0x76>
 80084d6:	2600      	movs	r6, #0
 80084d8:	2700      	movs	r7, #0
 80084da:	4632      	mov	r2, r6
 80084dc:	463b      	mov	r3, r7
 80084de:	4620      	mov	r0, r4
 80084e0:	4629      	mov	r1, r5
 80084e2:	f7f8 fa63 	bl	80009ac <__aeabi_dcmplt>
 80084e6:	b1d0      	cbz	r0, 800851e <sqrt+0x76>
 80084e8:	2301      	movs	r3, #1
 80084ea:	9300      	str	r3, [sp, #0]
 80084ec:	4b17      	ldr	r3, [pc, #92]	; (800854c <sqrt+0xa4>)
 80084ee:	f8cd b020 	str.w	fp, [sp, #32]
 80084f2:	9301      	str	r3, [sp, #4]
 80084f4:	e9cd 4504 	strd	r4, r5, [sp, #16]
 80084f8:	e9cd 4502 	strd	r4, r5, [sp, #8]
 80084fc:	f1ba 0f00 	cmp.w	sl, #0
 8008500:	d112      	bne.n	8008528 <sqrt+0x80>
 8008502:	e9cd 6706 	strd	r6, r7, [sp, #24]
 8008506:	4668      	mov	r0, sp
 8008508:	f000 f9ac 	bl	8008864 <matherr>
 800850c:	b1b8      	cbz	r0, 800853e <sqrt+0x96>
 800850e:	9b08      	ldr	r3, [sp, #32]
 8008510:	b11b      	cbz	r3, 800851a <sqrt+0x72>
 8008512:	f7ff fe07 	bl	8008124 <__errno>
 8008516:	9b08      	ldr	r3, [sp, #32]
 8008518:	6003      	str	r3, [r0, #0]
 800851a:	e9dd 8906 	ldrd	r8, r9, [sp, #24]
 800851e:	4640      	mov	r0, r8
 8008520:	4649      	mov	r1, r9
 8008522:	b00b      	add	sp, #44	; 0x2c
 8008524:	e8bd 8ff0 	ldmia.w	sp!, {r4, r5, r6, r7, r8, r9, sl, fp, pc}
 8008528:	4632      	mov	r2, r6
 800852a:	463b      	mov	r3, r7
 800852c:	4630      	mov	r0, r6
 800852e:	4639      	mov	r1, r7
 8008530:	f7f8 f8f4 	bl	800071c <__aeabi_ddiv>
 8008534:	f1ba 0f02 	cmp.w	sl, #2
 8008538:	e9cd 0106 	strd	r0, r1, [sp, #24]
 800853c:	d1e3      	bne.n	8008506 <sqrt+0x5e>
 800853e:	f7ff fdf1 	bl	8008124 <__errno>
 8008542:	2321      	movs	r3, #33	; 0x21
 8008544:	6003      	str	r3, [r0, #0]
 8008546:	e7e2      	b.n	800850e <sqrt+0x66>
 8008548:	2000011c 	.word	0x2000011c
 800854c:	08008bb0 	.word	0x08008bb0

08008550 <__ieee754_atan2>:
 8008550:	e92d 4ff8 	stmdb	sp!, {r3, r4, r5, r6, r7, r8, r9, sl, fp, lr}
 8008554:	4256      	negs	r6, r2
 8008556:	f023 4c00 	bic.w	ip, r3, #2147483648	; 0x80000000
 800855a:	4316      	orrs	r6, r2
 800855c:	f8df 91a8 	ldr.w	r9, [pc, #424]	; 8008708 <__ieee754_atan2+0x1b8>
 8008560:	ea4c 76d6 	orr.w	r6, ip, r6, lsr #31
 8008564:	454e      	cmp	r6, r9
 8008566:	4604      	mov	r4, r0
 8008568:	460d      	mov	r5, r1
 800856a:	469e      	mov	lr, r3
 800856c:	d808      	bhi.n	8008580 <__ieee754_atan2+0x30>
 800856e:	4246      	negs	r6, r0
 8008570:	f021 4700 	bic.w	r7, r1, #2147483648	; 0x80000000
 8008574:	4306      	orrs	r6, r0
 8008576:	ea47 76d6 	orr.w	r6, r7, r6, lsr #31
 800857a:	454e      	cmp	r6, r9
 800857c:	4688      	mov	r8, r1
 800857e:	d906      	bls.n	800858e <__ieee754_atan2+0x3e>
 8008580:	4620      	mov	r0, r4
 8008582:	4629      	mov	r1, r5
 8008584:	f7f7 fdea 	bl	800015c <__adddf3>
 8008588:	4604      	mov	r4, r0
 800858a:	460d      	mov	r5, r1
 800858c:	e030      	b.n	80085f0 <__ieee754_atan2+0xa0>
 800858e:	f103 4640 	add.w	r6, r3, #3221225472	; 0xc0000000
 8008592:	f506 1680 	add.w	r6, r6, #1048576	; 0x100000
 8008596:	4316      	orrs	r6, r2
 8008598:	d103      	bne.n	80085a2 <__ieee754_atan2+0x52>
 800859a:	e8bd 4ff8 	ldmia.w	sp!, {r3, r4, r5, r6, r7, r8, r9, sl, fp, lr}
 800859e:	f7ff bdf3 	b.w	8008188 <atan>
 80085a2:	179e      	asrs	r6, r3, #30
 80085a4:	f006 0602 	and.w	r6, r6, #2
 80085a8:	ea46 76d1 	orr.w	r6, r6, r1, lsr #31
 80085ac:	ea57 0100 	orrs.w	r1, r7, r0
 80085b0:	d107      	bne.n	80085c2 <__ieee754_atan2+0x72>
 80085b2:	2e02      	cmp	r6, #2
 80085b4:	d079      	beq.n	80086aa <__ieee754_atan2+0x15a>
 80085b6:	2e03      	cmp	r6, #3
 80085b8:	d11a      	bne.n	80085f0 <__ieee754_atan2+0xa0>
 80085ba:	a541      	add	r5, pc, #260	; (adr r5, 80086c0 <__ieee754_atan2+0x170>)
 80085bc:	e9d5 4500 	ldrd	r4, r5, [r5]
 80085c0:	e016      	b.n	80085f0 <__ieee754_atan2+0xa0>
 80085c2:	ea5c 0102 	orrs.w	r1, ip, r2
 80085c6:	d106      	bne.n	80085d6 <__ieee754_atan2+0x86>
 80085c8:	f1b8 0f00 	cmp.w	r8, #0
 80085cc:	da71      	bge.n	80086b2 <__ieee754_atan2+0x162>
 80085ce:	a53e      	add	r5, pc, #248	; (adr r5, 80086c8 <__ieee754_atan2+0x178>)
 80085d0:	e9d5 4500 	ldrd	r4, r5, [r5]
 80085d4:	e00c      	b.n	80085f0 <__ieee754_atan2+0xa0>
 80085d6:	45cc      	cmp	ip, r9
 80085d8:	d123      	bne.n	8008622 <__ieee754_atan2+0xd2>
 80085da:	4567      	cmp	r7, ip
 80085dc:	d114      	bne.n	8008608 <__ieee754_atan2+0xb8>
 80085de:	2e02      	cmp	r6, #2
 80085e0:	d00a      	beq.n	80085f8 <__ieee754_atan2+0xa8>
 80085e2:	2e03      	cmp	r6, #3
 80085e4:	d00c      	beq.n	8008600 <__ieee754_atan2+0xb0>
 80085e6:	2e01      	cmp	r6, #1
 80085e8:	d15b      	bne.n	80086a2 <__ieee754_atan2+0x152>
 80085ea:	a539      	add	r5, pc, #228	; (adr r5, 80086d0 <__ieee754_atan2+0x180>)
 80085ec:	e9d5 4500 	ldrd	r4, r5, [r5]
 80085f0:	4620      	mov	r0, r4
 80085f2:	4629      	mov	r1, r5
 80085f4:	e8bd 8ff8 	ldmia.w	sp!, {r3, r4, r5, r6, r7, r8, r9, sl, fp, pc}
 80085f8:	a537      	add	r5, pc, #220	; (adr r5, 80086d8 <__ieee754_atan2+0x188>)
 80085fa:	e9d5 4500 	ldrd	r4, r5, [r5]
 80085fe:	e7f7      	b.n	80085f0 <__ieee754_atan2+0xa0>
 8008600:	a537      	add	r5, pc, #220	; (adr r5, 80086e0 <__ieee754_atan2+0x190>)
 8008602:	e9d5 4500 	ldrd	r4, r5, [r5]
 8008606:	e7f3      	b.n	80085f0 <__ieee754_atan2+0xa0>
 8008608:	2e02      	cmp	r6, #2
 800860a:	d04e      	beq.n	80086aa <__ieee754_atan2+0x15a>
 800860c:	2e03      	cmp	r6, #3
 800860e:	d0d4      	beq.n	80085ba <__ieee754_atan2+0x6a>
 8008610:	2e01      	cmp	r6, #1
 8008612:	f04f 0400 	mov.w	r4, #0
 8008616:	d102      	bne.n	800861e <__ieee754_atan2+0xce>
 8008618:	f04f 4500 	mov.w	r5, #2147483648	; 0x80000000
 800861c:	e7e8      	b.n	80085f0 <__ieee754_atan2+0xa0>
 800861e:	2500      	movs	r5, #0
 8008620:	e7e6      	b.n	80085f0 <__ieee754_atan2+0xa0>
 8008622:	454f      	cmp	r7, r9
 8008624:	d0d0      	beq.n	80085c8 <__ieee754_atan2+0x78>
 8008626:	eba7 070c 	sub.w	r7, r7, ip
 800862a:	153f      	asrs	r7, r7, #20
 800862c:	2f3c      	cmp	r7, #60	; 0x3c
 800862e:	dc1e      	bgt.n	800866e <__ieee754_atan2+0x11e>
 8008630:	2b00      	cmp	r3, #0
 8008632:	da01      	bge.n	8008638 <__ieee754_atan2+0xe8>
 8008634:	373c      	adds	r7, #60	; 0x3c
 8008636:	db1e      	blt.n	8008676 <__ieee754_atan2+0x126>
 8008638:	4620      	mov	r0, r4
 800863a:	4629      	mov	r1, r5
 800863c:	f7f8 f86e 	bl	800071c <__aeabi_ddiv>
 8008640:	f7ff ff2c 	bl	800849c <fabs>
 8008644:	f7ff fda0 	bl	8008188 <atan>
 8008648:	4604      	mov	r4, r0
 800864a:	460d      	mov	r5, r1
 800864c:	2e01      	cmp	r6, #1
 800864e:	d015      	beq.n	800867c <__ieee754_atan2+0x12c>
 8008650:	2e02      	cmp	r6, #2
 8008652:	d017      	beq.n	8008684 <__ieee754_atan2+0x134>
 8008654:	2e00      	cmp	r6, #0
 8008656:	d0cb      	beq.n	80085f0 <__ieee754_atan2+0xa0>
 8008658:	a323      	add	r3, pc, #140	; (adr r3, 80086e8 <__ieee754_atan2+0x198>)
 800865a:	e9d3 2300 	ldrd	r2, r3, [r3]
 800865e:	4620      	mov	r0, r4
 8008660:	4629      	mov	r1, r5
 8008662:	f7f7 fd79 	bl	8000158 <__aeabi_dsub>
 8008666:	a322      	add	r3, pc, #136	; (adr r3, 80086f0 <__ieee754_atan2+0x1a0>)
 8008668:	e9d3 2300 	ldrd	r2, r3, [r3]
 800866c:	e016      	b.n	800869c <__ieee754_atan2+0x14c>
 800866e:	a522      	add	r5, pc, #136	; (adr r5, 80086f8 <__ieee754_atan2+0x1a8>)
 8008670:	e9d5 4500 	ldrd	r4, r5, [r5]
 8008674:	e7ea      	b.n	800864c <__ieee754_atan2+0xfc>
 8008676:	2400      	movs	r4, #0
 8008678:	2500      	movs	r5, #0
 800867a:	e7e7      	b.n	800864c <__ieee754_atan2+0xfc>
 800867c:	f105 4300 	add.w	r3, r5, #2147483648	; 0x80000000
 8008680:	461d      	mov	r5, r3
 8008682:	e7b5      	b.n	80085f0 <__ieee754_atan2+0xa0>
 8008684:	a318      	add	r3, pc, #96	; (adr r3, 80086e8 <__ieee754_atan2+0x198>)
 8008686:	e9d3 2300 	ldrd	r2, r3, [r3]
 800868a:	4620      	mov	r0, r4
 800868c:	4629      	mov	r1, r5
 800868e:	f7f7 fd63 	bl	8000158 <__aeabi_dsub>
 8008692:	4602      	mov	r2, r0
 8008694:	460b      	mov	r3, r1
 8008696:	a116      	add	r1, pc, #88	; (adr r1, 80086f0 <__ieee754_atan2+0x1a0>)
 8008698:	e9d1 0100 	ldrd	r0, r1, [r1]
 800869c:	f7f7 fd5c 	bl	8000158 <__aeabi_dsub>
 80086a0:	e772      	b.n	8008588 <__ieee754_atan2+0x38>
 80086a2:	a517      	add	r5, pc, #92	; (adr r5, 8008700 <__ieee754_atan2+0x1b0>)
 80086a4:	e9d5 4500 	ldrd	r4, r5, [r5]
 80086a8:	e7a2      	b.n	80085f0 <__ieee754_atan2+0xa0>
 80086aa:	a511      	add	r5, pc, #68	; (adr r5, 80086f0 <__ieee754_atan2+0x1a0>)
 80086ac:	e9d5 4500 	ldrd	r4, r5, [r5]
 80086b0:	e79e      	b.n	80085f0 <__ieee754_atan2+0xa0>
 80086b2:	a511      	add	r5, pc, #68	; (adr r5, 80086f8 <__ieee754_atan2+0x1a8>)
 80086b4:	e9d5 4500 	ldrd	r4, r5, [r5]
 80086b8:	e79a      	b.n	80085f0 <__ieee754_atan2+0xa0>
 80086ba:	bf00      	nop
 80086bc:	f3af 8000 	nop.w
 80086c0:	54442d18 	.word	0x54442d18
 80086c4:	c00921fb 	.word	0xc00921fb
 80086c8:	54442d18 	.word	0x54442d18
 80086cc:	bff921fb 	.word	0xbff921fb
 80086d0:	54442d18 	.word	0x54442d18
 80086d4:	bfe921fb 	.word	0xbfe921fb
 80086d8:	7f3321d2 	.word	0x7f3321d2
 80086dc:	4002d97c 	.word	0x4002d97c
 80086e0:	7f3321d2 	.word	0x7f3321d2
 80086e4:	c002d97c 	.word	0xc002d97c
 80086e8:	33145c07 	.word	0x33145c07
 80086ec:	3ca1a626 	.word	0x3ca1a626
 80086f0:	54442d18 	.word	0x54442d18
 80086f4:	400921fb 	.word	0x400921fb
 80086f8:	54442d18 	.word	0x54442d18
 80086fc:	3ff921fb 	.word	0x3ff921fb
 8008700:	54442d18 	.word	0x54442d18
 8008704:	3fe921fb 	.word	0x3fe921fb
 8008708:	7ff00000 	.word	0x7ff00000

0800870c <__ieee754_sqrt>:
 800870c:	4b54      	ldr	r3, [pc, #336]	; (8008860 <__ieee754_sqrt+0x154>)
 800870e:	e92d 41f0 	stmdb	sp!, {r4, r5, r6, r7, r8, lr}
 8008712:	438b      	bics	r3, r1
 8008714:	4606      	mov	r6, r0
 8008716:	460d      	mov	r5, r1
 8008718:	460a      	mov	r2, r1
 800871a:	460c      	mov	r4, r1
 800871c:	d10f      	bne.n	800873e <__ieee754_sqrt+0x32>
 800871e:	4602      	mov	r2, r0
 8008720:	460b      	mov	r3, r1
 8008722:	f7f7 fed1 	bl	80004c8 <__aeabi_dmul>
 8008726:	4602      	mov	r2, r0
 8008728:	460b      	mov	r3, r1
 800872a:	4630      	mov	r0, r6
 800872c:	4629      	mov	r1, r5
 800872e:	f7f7 fd15 	bl	800015c <__adddf3>
 8008732:	4606      	mov	r6, r0
 8008734:	460d      	mov	r5, r1
 8008736:	4630      	mov	r0, r6
 8008738:	4629      	mov	r1, r5
 800873a:	e8bd 81f0 	ldmia.w	sp!, {r4, r5, r6, r7, r8, pc}
 800873e:	2900      	cmp	r1, #0
 8008740:	4607      	mov	r7, r0
 8008742:	4603      	mov	r3, r0
 8008744:	dc0e      	bgt.n	8008764 <__ieee754_sqrt+0x58>
 8008746:	f021 4c00 	bic.w	ip, r1, #2147483648	; 0x80000000
 800874a:	ea5c 0707 	orrs.w	r7, ip, r7
 800874e:	d0f2      	beq.n	8008736 <__ieee754_sqrt+0x2a>
 8008750:	b141      	cbz	r1, 8008764 <__ieee754_sqrt+0x58>
 8008752:	4602      	mov	r2, r0
 8008754:	460b      	mov	r3, r1
 8008756:	f7f7 fcff 	bl	8000158 <__aeabi_dsub>
 800875a:	4602      	mov	r2, r0
 800875c:	460b      	mov	r3, r1
 800875e:	f7f7 ffdd 	bl	800071c <__aeabi_ddiv>
 8008762:	e7e6      	b.n	8008732 <__ieee754_sqrt+0x26>
 8008764:	1512      	asrs	r2, r2, #20
 8008766:	d074      	beq.n	8008852 <__ieee754_sqrt+0x146>
 8008768:	f2a2 32ff 	subw	r2, r2, #1023	; 0x3ff
 800876c:	07d5      	lsls	r5, r2, #31
 800876e:	f04f 0500 	mov.w	r5, #0
 8008772:	f3c4 0413 	ubfx	r4, r4, #0, #20
 8008776:	bf48      	it	mi
 8008778:	0fd9      	lsrmi	r1, r3, #31
 800877a:	f444 1480 	orr.w	r4, r4, #1048576	; 0x100000
 800877e:	bf44      	itt	mi
 8008780:	005b      	lslmi	r3, r3, #1
 8008782:	eb01 0444 	addmi.w	r4, r1, r4, lsl #1
 8008786:	1051      	asrs	r1, r2, #1
 8008788:	0fda      	lsrs	r2, r3, #31
 800878a:	eb02 0444 	add.w	r4, r2, r4, lsl #1
 800878e:	4628      	mov	r0, r5
 8008790:	2216      	movs	r2, #22
 8008792:	f44f 1600 	mov.w	r6, #2097152	; 0x200000
 8008796:	005b      	lsls	r3, r3, #1
 8008798:	1987      	adds	r7, r0, r6
 800879a:	42a7      	cmp	r7, r4
 800879c:	bfde      	ittt	le
 800879e:	19b8      	addle	r0, r7, r6
 80087a0:	1be4      	suble	r4, r4, r7
 80087a2:	19ad      	addle	r5, r5, r6
 80087a4:	0fdf      	lsrs	r7, r3, #31
 80087a6:	3a01      	subs	r2, #1
 80087a8:	eb07 0444 	add.w	r4, r7, r4, lsl #1
 80087ac:	ea4f 0343 	mov.w	r3, r3, lsl #1
 80087b0:	ea4f 0656 	mov.w	r6, r6, lsr #1
 80087b4:	d1f0      	bne.n	8008798 <__ieee754_sqrt+0x8c>
 80087b6:	f04f 0c20 	mov.w	ip, #32
 80087ba:	4696      	mov	lr, r2
 80087bc:	f04f 4600 	mov.w	r6, #2147483648	; 0x80000000
 80087c0:	4284      	cmp	r4, r0
 80087c2:	eb06 070e 	add.w	r7, r6, lr
 80087c6:	dc02      	bgt.n	80087ce <__ieee754_sqrt+0xc2>
 80087c8:	d112      	bne.n	80087f0 <__ieee754_sqrt+0xe4>
 80087ca:	429f      	cmp	r7, r3
 80087cc:	d810      	bhi.n	80087f0 <__ieee754_sqrt+0xe4>
 80087ce:	2f00      	cmp	r7, #0
 80087d0:	eb07 0e06 	add.w	lr, r7, r6
 80087d4:	da42      	bge.n	800885c <__ieee754_sqrt+0x150>
 80087d6:	f1be 0f00 	cmp.w	lr, #0
 80087da:	db3f      	blt.n	800885c <__ieee754_sqrt+0x150>
 80087dc:	f100 0801 	add.w	r8, r0, #1
 80087e0:	1a24      	subs	r4, r4, r0
 80087e2:	4640      	mov	r0, r8
 80087e4:	429f      	cmp	r7, r3
 80087e6:	bf88      	it	hi
 80087e8:	f104 34ff 	addhi.w	r4, r4, #4294967295
 80087ec:	1bdb      	subs	r3, r3, r7
 80087ee:	4432      	add	r2, r6
 80087f0:	0064      	lsls	r4, r4, #1
 80087f2:	f1bc 0c01 	subs.w	ip, ip, #1
 80087f6:	eb04 74d3 	add.w	r4, r4, r3, lsr #31
 80087fa:	ea4f 0656 	mov.w	r6, r6, lsr #1
 80087fe:	ea4f 0343 	mov.w	r3, r3, lsl #1
 8008802:	d1dd      	bne.n	80087c0 <__ieee754_sqrt+0xb4>
 8008804:	4323      	orrs	r3, r4
 8008806:	d006      	beq.n	8008816 <__ieee754_sqrt+0x10a>
 8008808:	1c54      	adds	r4, r2, #1
 800880a:	bf0b      	itete	eq
 800880c:	4662      	moveq	r2, ip
 800880e:	3201      	addne	r2, #1
 8008810:	3501      	addeq	r5, #1
 8008812:	f022 0201 	bicne.w	r2, r2, #1
 8008816:	106b      	asrs	r3, r5, #1
 8008818:	0852      	lsrs	r2, r2, #1
 800881a:	07e8      	lsls	r0, r5, #31
 800881c:	f103 537f 	add.w	r3, r3, #1069547520	; 0x3fc00000
 8008820:	f503 1300 	add.w	r3, r3, #2097152	; 0x200000
 8008824:	bf48      	it	mi
 8008826:	f042 4200 	orrmi.w	r2, r2, #2147483648	; 0x80000000
 800882a:	eb03 5501 	add.w	r5, r3, r1, lsl #20
 800882e:	4616      	mov	r6, r2
 8008830:	e781      	b.n	8008736 <__ieee754_sqrt+0x2a>
 8008832:	0adc      	lsrs	r4, r3, #11
 8008834:	3915      	subs	r1, #21
 8008836:	055b      	lsls	r3, r3, #21
 8008838:	2c00      	cmp	r4, #0
 800883a:	d0fa      	beq.n	8008832 <__ieee754_sqrt+0x126>
 800883c:	02e6      	lsls	r6, r4, #11
 800883e:	d50a      	bpl.n	8008856 <__ieee754_sqrt+0x14a>
 8008840:	f1c2 0020 	rsb	r0, r2, #32
 8008844:	fa23 f000 	lsr.w	r0, r3, r0
 8008848:	1e55      	subs	r5, r2, #1
 800884a:	4093      	lsls	r3, r2
 800884c:	4304      	orrs	r4, r0
 800884e:	1b4a      	subs	r2, r1, r5
 8008850:	e78a      	b.n	8008768 <__ieee754_sqrt+0x5c>
 8008852:	4611      	mov	r1, r2
 8008854:	e7f0      	b.n	8008838 <__ieee754_sqrt+0x12c>
 8008856:	0064      	lsls	r4, r4, #1
 8008858:	3201      	adds	r2, #1
 800885a:	e7ef      	b.n	800883c <__ieee754_sqrt+0x130>
 800885c:	4680      	mov	r8, r0
 800885e:	e7bf      	b.n	80087e0 <__ieee754_sqrt+0xd4>
 8008860:	7ff00000 	.word	0x7ff00000

08008864 <matherr>:
 8008864:	2000      	movs	r0, #0
 8008866:	4770      	bx	lr

08008868 <_init>:
 8008868:	b5f8      	push	{r3, r4, r5, r6, r7, lr}
 800886a:	bf00      	nop
 800886c:	bcf8      	pop	{r3, r4, r5, r6, r7}
 800886e:	bc08      	pop	{r3}
 8008870:	469e      	mov	lr, r3
 8008872:	4770      	bx	lr

08008874 <_fini>:
 8008874:	b5f8      	push	{r3, r4, r5, r6, r7, lr}
 8008876:	bf00      	nop
 8008878:	bcf8      	pop	{r3, r4, r5, r6, r7}
 800887a:	bc08      	pop	{r3}
 800887c:	469e      	mov	lr, r3
 800887e:	4770      	bx	lr
